Archive member included to satisfy reference by file (symbol)

arch/arm/lib/lib.a(lib1funcs.o)
                              arch/arm/mach-omap2/built-in.o (__aeabi_uidiv)
arch/arm/lib/lib.a(div0.o)    arch/arm/lib/lib.a(lib1funcs.o) (__div0)

Discarded input sections

 .data          0x0000000000000000        0x0 arch/arm/cpu/armv7/start.o
 .bss           0x0000000000000000        0x0 arch/arm/cpu/armv7/start.o
 .text          0x0000000000000000        0x0 board/ti/am335x/built-in.o
 .text.do_board_detect
                0x0000000000000000       0x20 board/ti/am335x/built-in.o
 .rodata.do_board_detect.str1.1
                0x0000000000000000       0x1b board/ti/am335x/built-in.o
 .data          0x0000000000000000        0x0 board/ti/am335x/built-in.o
 .bss           0x0000000000000000        0x0 board/ti/am335x/built-in.o
 .text.mmu_page_table_flush
                0x0000000000000000       0x1e arch/arm/cpu/armv7/built-in.o
 .text.v7_arch_cp15_set_l2aux_ctrl
                0x0000000000000000        0x6 arch/arm/cpu/armv7/built-in.o
 .text.sdelay   0x0000000000000000        0x6 arch/arm/cpu/armv7/built-in.o
 .text.wait_on_value
                0x0000000000000000       0x1e arch/arm/cpu/armv7/built-in.o
 .data          0x0000000000000000        0x0 arch/arm/cpu/armv7/built-in.o
 .bss           0x0000000000000000        0x0 arch/arm/cpu/armv7/built-in.o
 .text.armv7_boot_nonsec_default
                0x0000000000000000        0x4 arch/arm/lib/built-in.o
 .text.enable_caches
                0x0000000000000000        0xc arch/arm/lib/built-in.o
 .text.invalidate_dcache_range
                0x0000000000000000        0x2 arch/arm/lib/built-in.o
 .text.flush_dcache_range
                0x0000000000000000        0x2 arch/arm/lib/built-in.o
 .text.flush_dcache_all
                0x0000000000000000        0xa arch/arm/lib/built-in.o
 .text.invalidate_l2_cache
                0x0000000000000000        0xc arch/arm/lib/built-in.o
 .text.arm_init_before_mmu
                0x0000000000000000        0x2 arch/arm/lib/built-in.o
 .text.arm_init_domains
                0x0000000000000000        0x2 arch/arm/lib/built-in.o
 .text.mmu_page_table_flush
                0x0000000000000000        0x2 arch/arm/lib/built-in.o
 .text.mmu_set_region_dcache_behaviour
                0x0000000000000000       0x40 arch/arm/lib/built-in.o
 .text.dram_bank_mmu_setup
                0x0000000000000000       0x2a arch/arm/lib/built-in.o
 .text.fdt_psci
                0x0000000000000000        0x4 arch/arm/lib/built-in.o
 .rodata.enable_caches.str1.1
                0x0000000000000000       0x1d arch/arm/lib/built-in.o
 .data          0x0000000000000000        0x0 arch/arm/lib/built-in.o
 .__secure_end  0x0000000000000000        0x0 arch/arm/lib/built-in.o
 .__secure_stack_end
                0x0000000000000000        0x0 arch/arm/lib/built-in.o
 .__secure_stack_start
                0x0000000000000000        0x0 arch/arm/lib/built-in.o
 .__secure_start
                0x0000000000000000        0x0 arch/arm/lib/built-in.o
 .bss           0x0000000000000000        0x0 arch/arm/lib/built-in.o
 .text.get_dpll_mpu_params
                0x0000000000000000        0x8 arch/arm/mach-omap2/built-in.o
 .text.get_dpll_core_params
                0x0000000000000000       0x14 arch/arm/mach-omap2/built-in.o
 .text.get_dpll_per_params
                0x0000000000000000       0x14 arch/arm/mach-omap2/built-in.o
 .text.setup_clocks_for_console
                0x0000000000000000       0x78 arch/arm/mach-omap2/built-in.o
 .text.enable_basic_clocks
                0x0000000000000000       0x44 arch/arm/mach-omap2/built-in.o
 .text.set_mpu_spreadspectrum
                0x0000000000000000       0xc0 arch/arm/mach-omap2/built-in.o
 .text.do_setup_dpll
                0x0000000000000000       0xe0 arch/arm/mach-omap2/built-in.o
 .text.do_enable_clocks
                0x0000000000000000       0x64 arch/arm/mach-omap2/built-in.o
 .text.do_disable_clocks
                0x0000000000000000       0x6c arch/arm/mach-omap2/built-in.o
 .text.scale_vcores
                0x0000000000000000        0x2 arch/arm/mach-omap2/built-in.o
 .text.setup_early_clocks
                0x0000000000000000       0x12 arch/arm/mach-omap2/built-in.o
 .text.prcm_init
                0x0000000000000000       0x5c arch/arm/mach-omap2/built-in.o
 .text.rtc_only_prcm_init
                0x0000000000000000       0x1c arch/arm/mach-omap2/built-in.o
 .text.get_sysboot_value
                0x0000000000000000       0x14 arch/arm/mach-omap2/built-in.o
 .text.get_sys_clk_index
                0x0000000000000000       0x14 arch/arm/mach-omap2/built-in.o
 .text.am335x_get_efuse_mpu_max_freq
                0x0000000000000000       0x74 arch/arm/mach-omap2/built-in.o
 .text.am335x_get_tps65910_mpu_vdd
                0x0000000000000000       0x34 arch/arm/mach-omap2/built-in.o
 .text.am335x_get_mpu_vdd
                0x0000000000000000       0x20 arch/arm/mach-omap2/built-in.o
 .text.configure_mr
                0x0000000000000000       0x88 arch/arm/mach-omap2/built-in.o
 .text.config_sdram_emif4d5
                0x0000000000000000      0x164 arch/arm/mach-omap2/built-in.o
 .text.config_sdram
                0x0000000000000000       0x80 arch/arm/mach-omap2/built-in.o
 .text.set_sdram_timings
                0x0000000000000000       0x3c arch/arm/mach-omap2/built-in.o
 .text.config_ddr_phy
                0x0000000000000000      0x1bc arch/arm/mach-omap2/built-in.o
 .text.config_cmd_ctrl
                0x0000000000000000       0x44 arch/arm/mach-omap2/built-in.o
 .text.config_ddr_data
                0x0000000000000000       0x4c arch/arm/mach-omap2/built-in.o
 .text.config_io_ctrl
                0x0000000000000000       0x34 arch/arm/mach-omap2/built-in.o
 .text.cpu_mmc_init
                0x0000000000000000       0x28 arch/arm/mach-omap2/built-in.o
 .text.configure_module_pin_mux
                0x0000000000000000       0x20 arch/arm/mach-omap2/built-in.o
 .text.set_uart_mux_conf
                0x0000000000000000        0x2 arch/arm/mach-omap2/built-in.o
 .text.set_mux_conf_regs
                0x0000000000000000        0x2 arch/arm/mach-omap2/built-in.o
 .text.ft_cpu_setup
                0x0000000000000000        0x2 arch/arm/mach-omap2/built-in.o
 .text.warm_reset
                0x0000000000000000       0x1c arch/arm/mach-omap2/built-in.o
 .text.setup_warmreset_time
                0x0000000000000000        0x2 arch/arm/mach-omap2/built-in.o
 .text.do_cancel_out
                0x0000000000000000       0x44 arch/arm/mach-omap2/built-in.o
 .text.cancel_out
                0x0000000000000000       0x62 arch/arm/mach-omap2/built-in.o
 .text.omap_die_id
                0x0000000000000000        0xc arch/arm/mach-omap2/built-in.o
 .text.omap_die_id_serial
                0x0000000000000000       0x4c arch/arm/mach-omap2/built-in.o
 .text.omap_die_id_get_board_serial
                0x0000000000000000       0x24 arch/arm/mach-omap2/built-in.o
 .text.omap_die_id_usbethaddr
                0x0000000000000000       0x6c arch/arm/mach-omap2/built-in.o
 .text.omap_die_id_display
                0x0000000000000000       0x2c arch/arm/mach-omap2/built-in.o
 .text.omap_sys_boot_device
                0x0000000000000000        0x4 arch/arm/mach-omap2/built-in.o
 .text.save_omap_boot_params
                0x0000000000000000       0x74 arch/arm/mach-omap2/built-in.o
 .text.enable_gpmc_cs_config
                0x0000000000000000       0x6c arch/arm/mach-omap2/built-in.o
 .text.set_gpmc_cs0
                0x0000000000000000       0x18 arch/arm/mach-omap2/built-in.o
 .text.gpmc_init
                0x0000000000000000       0x50 arch/arm/mach-omap2/built-in.o
 .rodata        0x0000000000000000       0x84 arch/arm/mach-omap2/built-in.o
 .rodata.cmdpll
                0x0000000000000000        0x4 arch/arm/mach-omap2/built-in.o
 .rodata.cmper  0x0000000000000000        0x4 arch/arm/mach-omap2/built-in.o
 .rodata.cmrtc  0x0000000000000000        0x4 arch/arm/mach-omap2/built-in.o
 .rodata.cmwkup
                0x0000000000000000        0x4 arch/arm/mach-omap2/built-in.o
 .rodata.dpll_core_1000MHz
                0x0000000000000000       0x40 arch/arm/mach-omap2/built-in.o
 .rodata.dpll_core_opp100
                0x0000000000000000       0x10 arch/arm/mach-omap2/built-in.o
 .rodata.dpll_core_regs
                0x0000000000000000       0x24 arch/arm/mach-omap2/built-in.o
 .rodata.dpll_ddr2_266MHz
                0x0000000000000000       0x40 arch/arm/mach-omap2/built-in.o
 .rodata.dpll_ddr3_303MHz
                0x0000000000000000       0x40 arch/arm/mach-omap2/built-in.o
 .rodata.dpll_ddr3_400MHz
                0x0000000000000000       0x40 arch/arm/mach-omap2/built-in.o
 .rodata.dpll_ddr_regs
                0x0000000000000000       0x24 arch/arm/mach-omap2/built-in.o
 .rodata.dpll_disp_regs
                0x0000000000000000       0x24 arch/arm/mach-omap2/built-in.o
 .rodata.dpll_mpu_opp
                0x0000000000000000      0x180 arch/arm/mach-omap2/built-in.o
 .rodata.dpll_mpu_regs
                0x0000000000000000       0x24 arch/arm/mach-omap2/built-in.o
 .rodata.dpll_per_192MHz
                0x0000000000000000       0x40 arch/arm/mach-omap2/built-in.o
 .rodata.dpll_per_regs
                0x0000000000000000       0x24 arch/arm/mach-omap2/built-in.o
 .rodata.set_mpu_spreadspectrum.str1.1
                0x0000000000000000       0x31 arch/arm/mach-omap2/built-in.o
 .rodata.do_disable_clocks.str1.1
                0x0000000000000000       0x2b arch/arm/mach-omap2/built-in.o
 .rodata.do_enable_clocks.str1.1
                0x0000000000000000       0x2a arch/arm/mach-omap2/built-in.o
 .rodata.do_setup_dpll.str1.1
                0x0000000000000000       0x3a arch/arm/mach-omap2/built-in.o
 .rodata.CSWTCH.9
                0x0000000000000000       0x4c arch/arm/mach-omap2/built-in.o
 .rodata.config_sdram_emif4d5.str1.1
                0x0000000000000000       0x2a arch/arm/mach-omap2/built-in.o
 .rodata.ddr_cmd_reg
                0x0000000000000000        0x8 arch/arm/mach-omap2/built-in.o
 .rodata.ddr_data_reg
                0x0000000000000000        0x8 arch/arm/mach-omap2/built-in.o
 .rodata.emif_reg
                0x0000000000000000        0x8 arch/arm/mach-omap2/built-in.o
 .rodata.omap_die_id_display.str1.1
                0x0000000000000000       0x1f arch/arm/mach-omap2/built-in.o
 .rodata.omap_die_id_serial.str1.1
                0x0000000000000000       0x11 arch/arm/mach-omap2/built-in.o
 .rodata.omap_die_id_usbethaddr.str1.1
                0x0000000000000000       0x13 arch/arm/mach-omap2/built-in.o
 .data          0x0000000000000000        0x0 arch/arm/mach-omap2/built-in.o
 .data.dpll_mpu_opp100
                0x0000000000000000       0x10 arch/arm/mach-omap2/built-in.o
 .data.cstat    0x0000000000000000        0x4 arch/arm/mach-omap2/built-in.o
 .data.gpmc_cfg
                0x0000000000000000        0x4 arch/arm/mach-omap2/built-in.o
 .data.gpmc_cs0_flash
                0x0000000000000000        0x1 arch/arm/mach-omap2/built-in.o
 .bss           0x0000000000000000        0x0 arch/arm/mach-omap2/built-in.o
 .text          0x0000000000000000        0x0 board/ti/common/built-in.o
 .text.ti_i2c_eeprom_get
                0x0000000000000000       0x90 board/ti/common/built-in.o
 .text.ti_eeprom_string_cleanup
                0x0000000000000000       0x22 board/ti/common/built-in.o
 .text.ti_i2c_eeprom_am6_get.part.0
                0x0000000000000000      0x148 board/ti/common/built-in.o
 .text.gpi2c_init
                0x0000000000000000        0x2 board/ti/common/built-in.o
 .text.ti_i2c_eeprom_am_set
                0x0000000000000000       0x60 board/ti/common/built-in.o
 .text.ti_i2c_eeprom_am_get
                0x0000000000000000       0xcc board/ti/common/built-in.o
 .text.ti_i2c_eeprom_dra7_get
                0x0000000000000000       0xb0 board/ti/common/built-in.o
 .text.ti_i2c_eeprom_am6_get
                0x0000000000000000       0x6c board/ti/common/built-in.o
 .text.ti_i2c_eeprom_am6_get_base
                0x0000000000000000       0x38 board/ti/common/built-in.o
 .text.board_ti_rev_is
                0x0000000000000000       0x34 board/ti/common/built-in.o
 .text.board_ti_get_config
                0x0000000000000000        0x8 board/ti/common/built-in.o
 .text.board_ti_get_name
                0x0000000000000000        0x8 board/ti/common/built-in.o
 .text.board_ti_get_eth_mac_addr
                0x0000000000000000       0x34 board/ti/common/built-in.o
 .text.board_ti_am6_get_eth_mac_addr
                0x0000000000000000       0x3c board/ti/common/built-in.o
 .text.board_ti_get_emif1_size
                0x0000000000000000       0x20 board/ti/common/built-in.o
 .text.board_ti_get_emif2_size
                0x0000000000000000       0x20 board/ti/common/built-in.o
 .text.set_board_info_env_am6
                0x0000000000000000       0x4c board/ti/common/built-in.o
 .text.board_ti_set_ethaddr
                0x0000000000000000      0x128 board/ti/common/built-in.o
 .text.board_ti_am6_set_ethaddr
                0x0000000000000000       0x54 board/ti/common/built-in.o
 .text.board_ti_was_eeprom_read
                0x0000000000000000       0x18 board/ti/common/built-in.o
 .rodata.__func__.10381
                0x0000000000000000       0x16 board/ti/common/built-in.o
 .rodata.__func__.10465
                0x0000000000000000       0x15 board/ti/common/built-in.o
 .rodata.board_ti_set_ethaddr.str1.1
                0x0000000000000000       0x34 board/ti/common/built-in.o
 .rodata.set_board_info_env_am6.str1.1
                0x0000000000000000       0x20 board/ti/common/built-in.o
 .rodata.ti_i2c_eeprom_am6_get.part.0.str1.1
                0x0000000000000000       0x36 board/ti/common/built-in.o
 .rodata.ti_i2c_eeprom_am6_get.str1.1
                0x0000000000000000       0x1e board/ti/common/built-in.o
 .rodata.ti_i2c_eeprom_am_get.str1.1
                0x0000000000000000        0x5 board/ti/common/built-in.o
 .rodata.ti_i2c_eeprom_am_set.str1.1
                0x0000000000000000        0x5 board/ti/common/built-in.o
 .rodata.ti_i2c_eeprom_dra7_get.str1.1
                0x0000000000000000        0x6 board/ti/common/built-in.o
 .data          0x0000000000000000        0x0 board/ti/common/built-in.o
 .bss           0x0000000000000000        0x0 board/ti/common/built-in.o
 .text          0x0000000000000000        0x0 cmd/built-in.o
 .text.bootz_setup
                0x0000000000000000       0x14 cmd/built-in.o
 .text.eeprom_init
                0x0000000000000000        0xc cmd/built-in.o
 .text.name_to_gpio
                0x0000000000000000        0x8 cmd/built-in.o
 .text.i2c_init_board
                0x0000000000000000        0x2 cmd/built-in.o
 .rodata.bootz_setup.str1.1
                0x0000000000000000       0x34 cmd/built-in.o
 .data          0x0000000000000000        0x0 cmd/built-in.o
 .bss           0x0000000000000000        0x0 cmd/built-in.o
 .text          0x0000000000000000        0x0 common/built-in.o
 .text.board_init_f_init_stack_protection
                0x0000000000000000        0x2 common/built-in.o
 .text.hash_parse_string
                0x0000000000000000       0x3c common/built-in.o
 .text.hash_block
                0x0000000000000000       0x3e common/built-in.o
 .text.unset_local_var
                0x0000000000000000       0x5c common/built-in.o
 .text.dram_init_banksize
                0x0000000000000000       0x1a common/built-in.o
 .text.arch_cpu_init_dm
                0x0000000000000000        0x4 common/built-in.o
 .text.red_led_off
                0x0000000000000000        0x2 common/built-in.o
 .text.green_led_on
                0x0000000000000000        0x2 common/built-in.o
 .text.green_led_off
                0x0000000000000000        0x2 common/built-in.o
 .text.yellow_led_on
                0x0000000000000000        0x2 common/built-in.o
 .text.yellow_led_off
                0x0000000000000000        0x2 common/built-in.o
 .text.blue_led_on
                0x0000000000000000        0x2 common/built-in.o
 .text.blue_led_off
                0x0000000000000000        0x2 common/built-in.o
 .text.arch_reserve_stacks
                0x0000000000000000        0x4 common/built-in.o
 .text.board_flash_wp_on
                0x0000000000000000        0x4 common/built-in.o
 .text.fixup_cpu
                0x0000000000000000        0x4 common/built-in.o
 .text.board_quiesce_devices
                0x0000000000000000        0x2 common/built-in.o
 .text.fdt_read_prop
                0x0000000000000000       0x3c common/built-in.o
 .text.fdt_getprop_u32_default_node
                0x0000000000000000       0x24 common/built-in.o
 .text.fdt_getprop_u32_default
                0x0000000000000000       0x24 common/built-in.o
 .text.do_fixup_by_path_u32
                0x0000000000000000       0x1a common/built-in.o
 .text.do_fixup_by_prop
                0x0000000000000000       0x5e common/built-in.o
 .text.do_fixup_by_prop_u32
                0x0000000000000000       0x24 common/built-in.o
 .text.do_fixup_by_compat
                0x0000000000000000       0x50 common/built-in.o
 .text.do_fixup_by_compat_u32
                0x0000000000000000       0x1a common/built-in.o
 .text.fdt_record_loadable
                0x0000000000000000       0xf4 common/built-in.o
 .text.fdt_increase_size
                0x0000000000000000        0xc common/built-in.o
 .text.fdt_del_node_and_alias
                0x0000000000000000       0x30 common/built-in.o
 .text.fdt_translate_dma_address
                0x0000000000000000        0xc common/built-in.o
 .text.fdt_node_offset_by_compat_reg
                0x0000000000000000       0x5c common/built-in.o
 .text.fdt_alloc_phandle
                0x0000000000000000       0x36 common/built-in.o
 .text.fdt_set_phandle
                0x0000000000000000       0x40 common/built-in.o
 .text.fdt_create_phandle
                0x0000000000000000       0x40 common/built-in.o
 .text.fdt_set_node_status
                0x0000000000000000       0x90 common/built-in.o
 .text.fdt_set_status_by_alias
                0x0000000000000000       0x1c common/built-in.o
 .text.fdt_verify_alias_address
                0x0000000000000000       0x88 common/built-in.o
 .text.fdt_get_base_address
                0x0000000000000000       0x2c common/built-in.o
 .text.fdt_read_range
                0x0000000000000000       0xd0 common/built-in.o
 .text.fdt_setup_simplefb_node
                0x0000000000000000      0x160 common/built-in.o
 .text.fdt_fixup_display
                0x0000000000000000       0x84 common/built-in.o
 .text.mdio_register_seq
                0x0000000000000000       0x24 common/built-in.o
 .text.mdio_unregister
                0x0000000000000000       0x24 common/built-in.o
 .text.mdio_get_list_head
                0x0000000000000000        0x8 common/built-in.o
 .text.usb_set_protocol
                0x0000000000000000       0x2e common/built-in.o
 .text.usb_set_idle
                0x0000000000000000       0x32 common/built-in.o
 .text.usb_get_report
                0x0000000000000000       0x3a common/built-in.o
 .text.usb_get_class_descriptor
                0x0000000000000000       0x3a common/built-in.o
 .text.board_usb_init
                0x0000000000000000        0x4 common/built-in.o
 .text.board_usb_cleanup
                0x0000000000000000        0x4 common/built-in.o
 .text.usb_hub_probe
                0x0000000000000000       0x3a common/built-in.o
 .text.splash_screen_prepare
                0x0000000000000000        0x6 common/built-in.o
 .text.menu_default_choice
                0x0000000000000000       0x12 common/built-in.o
 .text.cli_simple_parse_line
                0x0000000000000000       0x50 common/built-in.o
 .text.cli_simple_run_command
                0x0000000000000000       0xd0 common/built-in.o
 .text.cli_simple_loop
                0x0000000000000000       0x58 common/built-in.o
 .text.cli_simple_run_command_list
                0x0000000000000000       0x3a common/built-in.o
 .text.serial_printf
                0x0000000000000000       0x32 common/built-in.o
 .text.fgetc    0x0000000000000000        0xe common/built-in.o
 .text.fprintf  0x0000000000000000       0x36 common/built-in.o
 .text.confirm_yesno
                0x0000000000000000       0x80 common/built-in.o
 .text.console_announce_r
                0x0000000000000000       0x50 common/built-in.o
 .text.stdio_print_current_devices
                0x0000000000000000       0x78 common/built-in.o
 .text.valloc   0x0000000000000000        0xa common/built-in.o
 .text.pvalloc  0x0000000000000000       0x14 common/built-in.o
 .text.cfree    0x0000000000000000        0x4 common/built-in.o
 .text.malloc_usable_size
                0x0000000000000000       0x30 common/built-in.o
 .text.mallopt  0x0000000000000000       0x30 common/built-in.o
 .text.malloc_simple_info
                0x0000000000000000        0x2 common/built-in.o
 .text.image_check_hcrc
                0x0000000000000000       0x2a common/built-in.o
 .text.image_check_dcrc
                0x0000000000000000       0x22 common/built-in.o
 .text.genimg_get_short_name
                0x0000000000000000       0x14 common/built-in.o
 .text.genimg_get_cat_name
                0x0000000000000000       0x38 common/built-in.o
 .text.genimg_get_cat_short_name
                0x0000000000000000       0x38 common/built-in.o
 .text.genimg_get_cat_count
                0x0000000000000000       0x10 common/built-in.o
 .text.genimg_get_cat_desc
                0x0000000000000000       0x10 common/built-in.o
 .text.genimg_get_type_short_name
                0x0000000000000000        0xc common/built-in.o
 .text.image_print_contents
                0x0000000000000000      0x128 common/built-in.o
 .text.genimg_get_comp_short_name
                0x0000000000000000        0xc common/built-in.o
 .text.genimg_get_os_short_name
                0x0000000000000000        0xc common/built-in.o
 .text.genimg_get_arch_short_name
                0x0000000000000000        0xc common/built-in.o
 .text.arch_fixup_fdt
                0x0000000000000000        0x4 common/built-in.o
 .text.fit_get_subimage_count
                0x0000000000000000       0x30 common/built-in.o
 .text.fit_set_timestamp
                0x0000000000000000       0x2c common/built-in.o
 .text.fit_conf_find_compat
                0x0000000000000000      0x114 common/built-in.o
 .text.fit_conf_get_prop_node_count
                0x0000000000000000        0x4 common/built-in.o
 .text.stdio_init
                0x0000000000000000        0xe common/built-in.o
 .text.run_command_repeatable
                0x0000000000000000       0x12 common/built-in.o
 .text.cmd_discard_repeatable
                0x0000000000000000        0xe common/built-in.o
 .rodata.__func__.9532
                0x0000000000000000       0x14 common/built-in.o
 .rodata.fdt_create_phandle.str1.1
                0x0000000000000000       0x1a common/built-in.o
 .rodata.fdt_fixup_display.str1.1
                0x0000000000000000       0x1c common/built-in.o
 .rodata.fdt_read_range.str1.1
                0x0000000000000000        0xf common/built-in.o
 .rodata.fdt_record_loadable.str1.1
                0x0000000000000000       0x2e common/built-in.o
 .rodata.fdt_set_node_status.str1.1
                0x0000000000000000       0x3a common/built-in.o
 .rodata.fdt_set_phandle.str1.1
                0x0000000000000000       0x16 common/built-in.o
 .rodata.fdt_setup_simplefb_node.str1.1
                0x0000000000000000       0x2c common/built-in.o
 .rodata.fdt_translate_dma_address.str1.1
                0x0000000000000000        0xb common/built-in.o
 .rodata.fdt_verify_alias_address.str1.1
                0x0000000000000000       0xcc common/built-in.o
 .rodata.mdio_register_seq.str1.1
                0x0000000000000000        0x6 common/built-in.o
 .rodata.cli_simple_loop.str1.1
                0x0000000000000000       0x11 common/built-in.o
 .rodata.cli_simple_parse_line.str1.1
                0x0000000000000000       0x1f common/built-in.o
 .rodata.cli_simple_run_command.str1.1
                0x0000000000000000       0x16 common/built-in.o
 .rodata.confirm_yesno.str1.1
                0x0000000000000000       0x10 common/built-in.o
 .rodata.console_announce_r.str1.1
                0x0000000000000000        0x7 common/built-in.o
 .rodata.stdio_print_current_devices.str1.1
                0x0000000000000000       0x74 common/built-in.o
 .rodata.genimg_get_short_name.str1.1
                0x0000000000000000        0x8 common/built-in.o
 .rodata.image_print_contents.str1.1
                0x0000000000000000       0xe5 common/built-in.o
 .rodata.table_info
                0x0000000000000000       0x30 common/built-in.o
 .rodata.unknown_str.10026
                0x0000000000000000        0x9 common/built-in.o
 .rodata.fit_conf_find_compat.str1.1
                0x0000000000000000        0xb common/built-in.o
 .data          0x0000000000000000        0x0 common/built-in.o
 .bss           0x0000000000000000        0x0 common/built-in.o
 .bss.lastcommand.9269
                0x0000000000000000      0x401 common/built-in.o
 .bss.msg.10027
                0x0000000000000000       0x1e common/built-in.o
 .bss.save_addr
                0x0000000000000000        0x4 common/built-in.o
 .bss.save_size
                0x0000000000000000        0x4 common/built-in.o
 .text          0x0000000000000000        0x0 disk/built-in.o
 .text.part_get_info_by_dev_and_name_or_num
                0x0000000000000000       0x98 disk/built-in.o
 .text.is_valid_dos_buf
                0x0000000000000000       0x10 disk/built-in.o
 .text.write_mbr_partition
                0x0000000000000000       0x44 disk/built-in.o
 .text.is_valid_gpt_buf
                0x0000000000000000       0x4e disk/built-in.o
 .text.write_mbr_and_gpt_partitions
                0x0000000000000000      0x2fc disk/built-in.o
 .rodata.part_get_info_by_dev_and_name_or_num.str1.1
                0x0000000000000000       0x54 disk/built-in.o
 .rodata.__func__.9292
                0x0000000000000000       0x14 disk/built-in.o
 .rodata.write_mbr_partition.str1.1
                0x0000000000000000       0x2d disk/built-in.o
 .rodata.__func__.9496
                0x0000000000000000       0x1d disk/built-in.o
 .rodata.write_mbr_and_gpt_partitions.str1.1
                0x0000000000000000       0x7c disk/built-in.o
 .data          0x0000000000000000        0x0 disk/built-in.o
 .bss           0x0000000000000000        0x0 disk/built-in.o
 .text          0x0000000000000000        0x0 drivers/built-in.o
 .text._device_find_global_by_ofnode
                0x0000000000000000       0x2e drivers/built-in.o
 .text.device_bind_ofnode
                0x0000000000000000       0x16 drivers/built-in.o
 .text.device_get_child
                0x0000000000000000       0x30 drivers/built-in.o
 .text.device_find_child_by_seq
                0x0000000000000000       0x3a drivers/built-in.o
 .text.device_get_child_by_seq
                0x0000000000000000       0x32 drivers/built-in.o
 .text.device_find_child_by_of_offset
                0x0000000000000000       0x2e drivers/built-in.o
 .text.device_get_child_by_of_offset
                0x0000000000000000       0x20 drivers/built-in.o
 .text.device_find_global_by_ofnode
                0x0000000000000000       0x1e drivers/built-in.o
 .text.device_get_global_by_ofnode
                0x0000000000000000       0x24 drivers/built-in.o
 .text.device_find_first_inactive_child
                0x0000000000000000       0x3a drivers/built-in.o
 .text.device_find_first_child_by_uclass
                0x0000000000000000       0x32 drivers/built-in.o
 .text.device_find_child_by_name
                0x0000000000000000       0x32 drivers/built-in.o
 .text.dev_get_driver_ops
                0x0000000000000000        0x8 drivers/built-in.o
 .text.dev_get_uclass_name
                0x0000000000000000        0xa drivers/built-in.o
 .text.device_has_children
                0x0000000000000000        0xe drivers/built-in.o
 .text.device_set_name
                0x0000000000000000       0x20 drivers/built-in.o
 .text.dev_disable_by_path
                0x0000000000000000        0xc drivers/built-in.o
 .text.dev_enable_by_path
                0x0000000000000000       0x10 drivers/built-in.o
 .text.devfdt_get_addr_size_index
                0x0000000000000000       0x2c drivers/built-in.o
 .text.devfdt_get_addr_name
                0x0000000000000000       0x28 drivers/built-in.o
 .text.devfdt_get_addr_size_name
                0x0000000000000000       0x2c drivers/built-in.o
 .text.devfdt_get_addr_ptr
                0x0000000000000000        0x6 drivers/built-in.o
 .text.devfdt_remap_addr_index
                0x0000000000000000       0x10 drivers/built-in.o
 .text.devfdt_remap_addr_name
                0x0000000000000000       0x10 drivers/built-in.o
 .text.devfdt_remap_addr
                0x0000000000000000        0x6 drivers/built-in.o
 .text.devfdt_map_physmem
                0x0000000000000000       0x10 drivers/built-in.o
 .text.dm_fixup_for_gd_move
                0x0000000000000000       0x14 drivers/built-in.o
 .text.dm_uninit
                0x0000000000000000       0x1c drivers/built-in.o
 .text.uclass_destroy
                0x0000000000000000       0x52 drivers/built-in.o
 .text.uclass_get_name
                0x0000000000000000       0x1a drivers/built-in.o
 .text.uclass_get_by_name
                0x0000000000000000       0x2a drivers/built-in.o
 .text.uclass_find_device_by_name
                0x0000000000000000       0x46 drivers/built-in.o
 .text.uclass_find_device_by_phandle
                0x0000000000000000       0x60 drivers/built-in.o
 .text.uclass_get_device_by_driver
                0x0000000000000000       0x40 drivers/built-in.o
 .text.uclass_get_device_by_name
                0x0000000000000000       0x1c drivers/built-in.o
 .text.uclass_get_device_by_phandle_id
                0x0000000000000000       0x4c drivers/built-in.o
 .text.uclass_get_device_by_phandle
                0x0000000000000000       0x1c drivers/built-in.o
 .text.uclass_next_device_err
                0x0000000000000000       0x16 drivers/built-in.o
 .text.list_count_items
                0x0000000000000000       0x14 drivers/built-in.o
 .text.simple_bus_translate
                0x0000000000000000       0x20 drivers/built-in.o
 .text.ofnode_read_fmap_entry
                0x0000000000000000       0x9c drivers/built-in.o
 .text.ofnode_decode_region
                0x0000000000000000       0x2c drivers/built-in.o
 .text.ofnode_decode_memory_region
                0x0000000000000000       0xac drivers/built-in.o
 .text.ofnode_read_s32_default
                0x0000000000000000       0x16 drivers/built-in.o
 .text.ofnode_read_u64
                0x0000000000000000       0x34 drivers/built-in.o
 .text.ofnode_read_u64_default
                0x0000000000000000       0x16 drivers/built-in.o
 .text.ofnode_find_subnode
                0x0000000000000000       0x12 drivers/built-in.o
 .text.ofnode_get_parent
                0x0000000000000000       0x10 drivers/built-in.o
 .text.ofnode_get_by_phandle
                0x0000000000000000       0x10 drivers/built-in.o
 .text.ofnode_read_size
                0x0000000000000000       0x20 drivers/built-in.o
 .text.decode_timing_property
                0x0000000000000000       0x40 drivers/built-in.o
 .text.ofnode_stringlist_search
                0x0000000000000000       0x26 drivers/built-in.o
 .text.ofnode_read_string_index
                0x0000000000000000       0x2c drivers/built-in.o
 .text.ofnode_read_string_count
                0x0000000000000000        0xe drivers/built-in.o
 .text.ofnode_count_phandle_with_args
                0x0000000000000000       0x24 drivers/built-in.o
 .text.ofnode_decode_display_timing
                0x0000000000000000      0x1dc drivers/built-in.o
 .text.ofnode_is_available
                0x0000000000000000       0x16 drivers/built-in.o
 .text.ofnode_get_addr_size
                0x0000000000000000       0x14 drivers/built-in.o
 .text.ofnode_read_pci_addr
                0x0000000000000000       0x68 drivers/built-in.o
 .text.ofnode_read_pci_vendev
                0x0000000000000000       0x90 drivers/built-in.o
 .text.ofnode_read_addr_cells
                0x0000000000000000        0xc drivers/built-in.o
 .text.ofnode_read_size_cells
                0x0000000000000000        0xc drivers/built-in.o
 .text.ofnode_get_addr_size_index
                0x0000000000000000       0x44 drivers/built-in.o
 .text.ofnode_get_addr_index
                0x0000000000000000        0xe drivers/built-in.o
 .text.ofnode_get_addr
                0x0000000000000000        0x6 drivers/built-in.o
 .text.ofnode_read_simple_addr_cells
                0x0000000000000000        0x4 drivers/built-in.o
 .text.ofnode_read_simple_size_cells
                0x0000000000000000        0x4 drivers/built-in.o
 .text.ofnode_pre_reloc
                0x0000000000000000       0x40 drivers/built-in.o
 .text.ofnode_read_resource
                0x0000000000000000       0x40 drivers/built-in.o
 .text.ofnode_read_resource_byname
                0x0000000000000000       0x24 drivers/built-in.o
 .text.ofnode_translate_address
                0x0000000000000000        0xe drivers/built-in.o
 .text.ofnode_translate_dma_address
                0x0000000000000000        0xe drivers/built-in.o
 .text.ofnode_by_compatible
                0x0000000000000000       0x12 drivers/built-in.o
 .text.ofnode_by_prop_value
                0x0000000000000000       0x18 drivers/built-in.o
 .text.ofnode_write_prop
                0x0000000000000000        0x6 drivers/built-in.o
 .text.ofnode_write_string
                0x0000000000000000        0x6 drivers/built-in.o
 .text.ofnode_set_enabled
                0x0000000000000000        0x6 drivers/built-in.o
 .text.dfu_get_alt
                0x0000000000000000       0x64 drivers/built-in.o
 .text.dfu_write_from_mem_addr
                0x0000000000000000       0x68 drivers/built-in.o
 .text._input_send_keycodes
                0x0000000000000000      0x2bc drivers/built-in.o
 .text.input_tstc
                0x0000000000000000       0x28 drivers/built-in.o
 .text.input_getc
                0x0000000000000000       0x34 drivers/built-in.o
 .text.input_send_keycodes
                0x0000000000000000        0x6 drivers/built-in.o
 .text.input_add_keycode
                0x0000000000000000       0x54 drivers/built-in.o
 .text.input_add_table
                0x0000000000000000       0x28 drivers/built-in.o
 .text.input_set_delays
                0x0000000000000000        0xa drivers/built-in.o
 .text.input_allow_repeats
                0x0000000000000000        0x6 drivers/built-in.o
 .text.input_leds_changed
                0x0000000000000000        0xe drivers/built-in.o
 .text.input_add_tables
                0x0000000000000000       0x54 drivers/built-in.o
 .text.input_init
                0x0000000000000000       0x14 drivers/built-in.o
 .text.input_stdio_register
                0x0000000000000000       0x34 drivers/built-in.o
 .text.create_keymap
                0x0000000000000000       0x5a drivers/built-in.o
 .text.key_matrix_decode
                0x0000000000000000       0xaa drivers/built-in.o
 .text.key_matrix_decode_fdt
                0x0000000000000000       0x70 drivers/built-in.o
 .text.key_matrix_init
                0x0000000000000000       0x20 drivers/built-in.o
 .text.blk_get_by_device
                0x0000000000000000       0x3a drivers/built-in.o
 .text.blk_unbind_all
                0x0000000000000000       0x5c drivers/built-in.o
 .text.fastboot_get_progress_callback
                0x0000000000000000        0xc drivers/built-in.o
 .text.fastboot_set_progress_callback
                0x0000000000000000        0xc drivers/built-in.o
 .text.misc_read
                0x0000000000000000       0x18 drivers/built-in.o
 .text.misc_write
                0x0000000000000000       0x18 drivers/built-in.o
 .text.misc_ioctl
                0x0000000000000000       0x10 drivers/built-in.o
 .text.misc_call
                0x0000000000000000       0x18 drivers/built-in.o
 .text.misc_set_enabled
                0x0000000000000000       0x10 drivers/built-in.o
 .text.cpu_mmc_init
                0x0000000000000000        0x6 drivers/built-in.o
 .text.board_mmc_init
                0x0000000000000000        0x6 drivers/built-in.o
 .text.mmc_set_preinit
                0x0000000000000000        0x6 drivers/built-in.o
 .text.mmc_get_next_devnum
                0x0000000000000000        0x6 drivers/built-in.o
 .text.mmc_unbind
                0x0000000000000000       0x20 drivers/built-in.o
 .text.mmc_init_stream
                0x0000000000000000       0xac drivers/built-in.o
 .text.rtc_calc_weekday
                0x0000000000000000       0x94 drivers/built-in.o
 .text.rtc_mktime
                0x0000000000000000       0x84 drivers/built-in.o
 .rodata.devfdt_get_addr_name.str1.1
                0x0000000000000000        0xa drivers/built-in.o
 .rodata.ofnode_decode_memory_region.str1.1
                0x0000000000000000       0x2d drivers/built-in.o
 .rodata.ofnode_read_fmap_entry.str1.1
                0x0000000000000000       0x32 drivers/built-in.o
 .rodata.ofnode_decode_display_timing.str1.1
                0x0000000000000000       0xca drivers/built-in.o
 .rodata.ofnode_get_addr_size_index.str1.1
                0x0000000000000000        0x4 drivers/built-in.o
 .rodata.ofnode_pre_reloc.str1.1
                0x0000000000000000       0x45 drivers/built-in.o
 .rodata.ofnode_read_pci_vendev.str1.1
                0x0000000000000000       0x1c drivers/built-in.o
 .rodata.ofnode_read_resource_byname.str1.1
                0x0000000000000000        0xa drivers/built-in.o
 .rodata.dfu_write_from_mem_addr.str1.1
                0x0000000000000000       0x24 drivers/built-in.o
 .rodata.input_stdio_register.str1.1
                0x0000000000000000        0x6 drivers/built-in.o
 .rodata.kbd_plain_xlate
                0x0000000000000000       0x64 drivers/built-in.o
 .rodata.kbd_plain_xlate_german
                0x0000000000000000       0x84 drivers/built-in.o
 .rodata.kbd_to_ansi364
                0x0000000000000000       0x20 drivers/built-in.o
 .rodata.key_matrix_decode_fdt.str1.1
                0x0000000000000000       0x1d drivers/built-in.o
 .rodata.__func__.11461
                0x0000000000000000       0x10 drivers/built-in.o
 .rodata.mmc_init_stream.str1.1
                0x0000000000000000       0x1e drivers/built-in.o
 .rodata.month_offset
                0x0000000000000000       0x30 drivers/built-in.o
 .data          0x0000000000000000        0x0 drivers/built-in.o
 .data.kbd_ctrl_xlate
                0x0000000000000000       0x64 drivers/built-in.o
 .data.kbd_entry
                0x0000000000000000       0x8c drivers/built-in.o
 .data.kbd_right_alt_xlate_german
                0x0000000000000000       0x58 drivers/built-in.o
 .data.kbd_shift_xlate
                0x0000000000000000       0x64 drivers/built-in.o
 .data.kbd_shift_xlate_german
                0x0000000000000000       0x84 drivers/built-in.o
 .bss           0x0000000000000000        0x0 drivers/built-in.o
 .text          0x0000000000000000        0x0 drivers/gpio/built-in.o
 .text.gpio_hog_lookup_name
                0x0000000000000000        0x4 drivers/gpio/built-in.o
 .text.gpio_requestf
                0x0000000000000000       0x2a drivers/gpio/built-in.o
 .text.dm_gpio_get_open_drain
                0x0000000000000000       0x2c drivers/gpio/built-in.o
 .text.dm_gpio_set_open_drain
                0x0000000000000000       0x2c drivers/gpio/built-in.o
 .text.dm_gpio_set_dir
                0x0000000000000000        0x6 drivers/gpio/built-in.o
 .text.gpio_claim_vector
                0x0000000000000000       0x52 drivers/gpio/built-in.o
 .text.gpio_get_values_as_int
                0x0000000000000000       0x2c drivers/gpio/built-in.o
 .text.dm_gpio_get_values_as_int
                0x0000000000000000       0x32 drivers/gpio/built-in.o
 .text.gpio_request_by_name_nodev
                0x0000000000000000       0x18 drivers/gpio/built-in.o
 .text.gpio_get_number
                0x0000000000000000       0x14 drivers/gpio/built-in.o
 .text.gpio_dev_request_index
                0x0000000000000000       0x30 drivers/gpio/built-in.o
 .text.gpio_is_valid
                0x0000000000000000        0xa drivers/gpio/built-in.o
 .rodata.dm_gpio_get_open_drain.str1.1
                0x0000000000000000        0xf drivers/gpio/built-in.o
 .rodata.dm_gpio_set_open_drain.str1.1
                0x0000000000000000        0xf drivers/gpio/built-in.o
 .data          0x0000000000000000        0x0 drivers/gpio/built-in.o
 .bss           0x0000000000000000        0x0 drivers/gpio/built-in.o
 .text          0x0000000000000000        0x0 drivers/i2c/built-in.o
 .text.i2c_dump_msgs
                0x0000000000000000       0x64 drivers/i2c/built-in.o
 .text.dm_i2c_xfer
                0x0000000000000000       0x22 drivers/i2c/built-in.o
 .rodata.i2c_dump_msgs.str1.1
                0x0000000000000000       0x1b drivers/i2c/built-in.o
 .data          0x0000000000000000        0x0 drivers/i2c/built-in.o
 .bss           0x0000000000000000        0x0 drivers/i2c/built-in.o
 .text          0x0000000000000000        0x0 drivers/mtd/built-in.o
 .text.mtd_check_oob_ops
                0x0000000000000000      0x100 drivers/mtd/built-in.o
 .text.mtd_ooblayout_ecc
                0x0000000000000000       0x3c drivers/mtd/built-in.o
 .text.mtd_ooblayout_free
                0x0000000000000000       0x3c drivers/mtd/built-in.o
 .text.mtd_ooblayout_find_region
                0x0000000000000000       0x4c drivers/mtd/built-in.o
 .text.mtd_ooblayout_get_bytes
                0x0000000000000000       0x52 drivers/mtd/built-in.o
 .text.mtd_ooblayout_set_bytes
                0x0000000000000000       0x52 drivers/mtd/built-in.o
 .text.idr_remove
                0x0000000000000000       0x14 drivers/mtd/built-in.o
 .text.idr_find
                0x0000000000000000        0xe drivers/mtd/built-in.o
 .text.idr_get_next
                0x0000000000000000       0x24 drivers/mtd/built-in.o
 .text.idr_alloc
                0x0000000000000000       0x2a drivers/mtd/built-in.o
 .text.__mtd_next_device
                0x0000000000000000       0x18 drivers/mtd/built-in.o
 .text.mtd_dev_list_updated
                0x0000000000000000       0x14 drivers/mtd/built-in.o
 .text.del_mtd_device
                0x0000000000000000       0x44 drivers/mtd/built-in.o
 .text.__get_mtd_device
                0x0000000000000000       0x20 drivers/mtd/built-in.o
 .text.get_mtd_device
                0x0000000000000000       0x58 drivers/mtd/built-in.o
 .text.get_mtd_device_nm
                0x0000000000000000       0x34 drivers/mtd/built-in.o
 .text.__put_mtd_device
                0x0000000000000000       0x44 drivers/mtd/built-in.o
 .text.put_mtd_device
                0x0000000000000000        0x4 drivers/mtd/built-in.o
 .text.mtd_erase
                0x0000000000000000       0x6c drivers/mtd/built-in.o
 .text.mtd_get_unmapped_area
                0x0000000000000000       0x5e drivers/mtd/built-in.o
 .text.mtd_read
                0x0000000000000000       0xb4 drivers/mtd/built-in.o
 .text.mtd_write
                0x0000000000000000       0x9a drivers/mtd/built-in.o
 .text.mtd_panic_write
                0x0000000000000000       0x64 drivers/mtd/built-in.o
 .text.mtd_read_oob
                0x0000000000000000       0x6e drivers/mtd/built-in.o
 .text.mtd_write_oob
                0x0000000000000000       0x62 drivers/mtd/built-in.o
 .text.mtd_ooblayout_find_eccregion
                0x0000000000000000       0x14 drivers/mtd/built-in.o
 .text.mtd_ooblayout_get_eccbytes
                0x0000000000000000       0x18 drivers/mtd/built-in.o
 .text.mtd_ooblayout_set_eccbytes
                0x0000000000000000       0x18 drivers/mtd/built-in.o
 .text.mtd_ooblayout_get_databytes
                0x0000000000000000       0x18 drivers/mtd/built-in.o
 .text.mtd_ooblayout_set_databytes
                0x0000000000000000       0x18 drivers/mtd/built-in.o
 .text.mtd_ooblayout_count_freebytes
                0x0000000000000000       0x28 drivers/mtd/built-in.o
 .text.mtd_ooblayout_count_eccbytes
                0x0000000000000000       0x28 drivers/mtd/built-in.o
 .text.mtd_get_fact_prot_info
                0x0000000000000000       0x1a drivers/mtd/built-in.o
 .text.mtd_read_fact_prot_reg
                0x0000000000000000       0x22 drivers/mtd/built-in.o
 .text.mtd_get_user_prot_info
                0x0000000000000000       0x1a drivers/mtd/built-in.o
 .text.mtd_read_user_prot_reg
                0x0000000000000000       0x24 drivers/mtd/built-in.o
 .text.mtd_write_user_prot_reg
                0x0000000000000000       0x38 drivers/mtd/built-in.o
 .text.mtd_lock_user_prot_reg
                0x0000000000000000       0x1e drivers/mtd/built-in.o
 .text.mtd_lock
                0x0000000000000000       0x5c drivers/mtd/built-in.o
 .text.mtd_unlock
                0x0000000000000000       0x5c drivers/mtd/built-in.o
 .text.add_mtd_device
                0x0000000000000000      0x148 drivers/mtd/built-in.o
 .text.mtd_is_locked
                0x0000000000000000       0x5c drivers/mtd/built-in.o
 .text.mtd_block_isreserved
                0x0000000000000000       0x2c drivers/mtd/built-in.o
 .text.mtd_block_isbad
                0x0000000000000000       0x2c drivers/mtd/built-in.o
 .text.mtd_block_markbad
                0x0000000000000000       0x42 drivers/mtd/built-in.o
 .text.mtd_search_alternate_name
                0x0000000000000000       0x7c drivers/mtd/built-in.o
 .text.mtd_probe_devices
                0x0000000000000000        0x4 drivers/mtd/built-in.o
 .rodata.__func__.11636
                0x0000000000000000        0xf drivers/mtd/built-in.o
 .rodata.__func__.11675
                0x0000000000000000       0x11 drivers/mtd/built-in.o
 .rodata.__put_mtd_device.str1.1
                0x0000000000000000       0x64 drivers/mtd/built-in.o
 .rodata.add_mtd_device.str1.1
                0x0000000000000000       0x28 drivers/mtd/built-in.o
 .rodata.del_mtd_device.str1.1
                0x0000000000000000       0x30 drivers/mtd/built-in.o
 .rodata.mtd_search_alternate_name.str1.1
                0x0000000000000000        0x7 drivers/mtd/built-in.o
 .data          0x0000000000000000        0x0 drivers/mtd/built-in.o
 .bss           0x0000000000000000        0x0 drivers/mtd/built-in.o
 .bss.mtd_idr   0x0000000000000000      0x204 drivers/mtd/built-in.o
 .bss.mtd_table
                0x0000000000000000       0x80 drivers/mtd/built-in.o
 .text          0x0000000000000000        0x0 drivers/mtd/spi/built-in.o
 .text.spl_flash_get_sw_write_prot
                0x0000000000000000       0x10 drivers/mtd/spi/built-in.o
 .text.spi_flash_free
                0x0000000000000000        0xc drivers/mtd/spi/built-in.o
 .text.spi_flash_probe
                0x0000000000000000       0x1a drivers/mtd/spi/built-in.o
 .data          0x0000000000000000        0x0 drivers/mtd/spi/built-in.o
 .bss           0x0000000000000000        0x0 drivers/mtd/spi/built-in.o
 .text          0x0000000000000000        0x0 drivers/net/built-in.o
 .text.cpsw_get_slave_phy_addr
                0x0000000000000000       0x16 drivers/net/built-in.o
 .text.cpsw_mdio_free
                0x0000000000000000       0x2e drivers/net/built-in.o
 .data          0x0000000000000000        0x0 drivers/net/built-in.o
 .bss           0x0000000000000000        0x0 drivers/net/built-in.o
 .text          0x0000000000000000        0x0 drivers/net/phy/built-in.o
 .text.phy_set_supported
                0x0000000000000000       0x3c drivers/net/phy/built-in.o
 .text.miiphy_reset
                0x0000000000000000       0x1a drivers/net/phy/built-in.o
 .text.phy_shutdown
                0x0000000000000000        0xe drivers/net/phy/built-in.o
 .data          0x0000000000000000        0x0 drivers/net/phy/built-in.o
 .bss           0x0000000000000000        0x0 drivers/net/phy/built-in.o
 .text          0x0000000000000000        0x0 drivers/power/pmic/built-in.o
 .text.tps65217_reg_read
                0x0000000000000000       0x14 drivers/power/pmic/built-in.o
 .text.tps65217_reg_write
                0x0000000000000000       0x94 drivers/power/pmic/built-in.o
 .text.tps65217_voltage_update
                0x0000000000000000       0x32 drivers/power/pmic/built-in.o
 .text.power_tps65217_init
                0x0000000000000000       0x24 drivers/power/pmic/built-in.o
 .text.power_tps65910_init
                0x0000000000000000       0x24 drivers/power/pmic/built-in.o
 .text.tps65910_set_i2c_control
                0x0000000000000000       0x28 drivers/power/pmic/built-in.o
 .text.tps65910_voltage_update
                0x0000000000000000       0x60 drivers/power/pmic/built-in.o
 .data          0x0000000000000000        0x8 drivers/power/pmic/built-in.o
 .bss           0x0000000000000000        0x0 drivers/power/pmic/built-in.o
 .comment       0x0000000000000000       0xea drivers/power/pmic/built-in.o
 .note.GNU-stack
                0x0000000000000000        0x0 drivers/power/pmic/built-in.o
 .ARM.attributes
                0x0000000000000000       0x2d drivers/power/pmic/built-in.o
 .debug_aranges
                0x0000000000000000       0x68 drivers/power/pmic/built-in.o
 .debug_info    0x0000000000000000     0x20de drivers/power/pmic/built-in.o
 .debug_abbrev  0x0000000000000000      0x5b9 drivers/power/pmic/built-in.o
 .debug_line    0x0000000000000000      0x87b drivers/power/pmic/built-in.o
 .debug_frame   0x0000000000000000       0xdc drivers/power/pmic/built-in.o
 .debug_str     0x0000000000000000     0x2611 drivers/power/pmic/built-in.o
 .debug_loc     0x0000000000000000      0x40b drivers/power/pmic/built-in.o
 .debug_ranges  0x0000000000000000       0x78 drivers/power/pmic/built-in.o
 .text          0x0000000000000000        0x0 drivers/serial/built-in.o
 .text.serial_getconfig
                0x0000000000000000        0xe drivers/serial/built-in.o
 .text.serial_setconfig
                0x0000000000000000        0xe drivers/serial/built-in.o
 .text.serial_getinfo
                0x0000000000000000       0x1e drivers/serial/built-in.o
 .text.ns16550_calc_divisor
                0x0000000000000000       0x10 drivers/serial/built-in.o
 .text.NS16550_reinit
                0x0000000000000000       0x38 drivers/serial/built-in.o
 .text.NS16550_putc
                0x0000000000000000       0x1e drivers/serial/built-in.o
 .text.NS16550_getc
                0x0000000000000000       0x1c drivers/serial/built-in.o
 .text.NS16550_tstc
                0x0000000000000000       0x10 drivers/serial/built-in.o
 .data          0x0000000000000000        0x0 drivers/serial/built-in.o
 .bss           0x0000000000000000        0x0 drivers/serial/built-in.o
 .text          0x0000000000000000        0x0 drivers/spi/built-in.o
 .text.spi_write_then_read
                0x0000000000000000       0x40 drivers/spi/built-in.o
 .text.spi_chip_select
                0x0000000000000000       0x12 drivers/spi/built-in.o
 .text.spi_cs_info
                0x0000000000000000       0x36 drivers/spi/built-in.o
 .text.spi_cs_is_valid
                0x0000000000000000       0x20 drivers/spi/built-in.o
 .text.spi_setup_slave
                0x0000000000000000       0x22 drivers/spi/built-in.o
 .text.spi_free_slave
                0x0000000000000000       0x12 drivers/spi/built-in.o
 .data          0x0000000000000000        0x0 drivers/spi/built-in.o
 .bss           0x0000000000000000        0x0 drivers/spi/built-in.o
 .text          0x0000000000000000        0x0 drivers/usb/common/built-in.o
 .text.usb_get_maximum_speed
                0x0000000000000000       0x4c drivers/usb/common/built-in.o
 .rodata.speed_names
                0x0000000000000000       0x18 drivers/usb/common/built-in.o
 .rodata.usb_get_maximum_speed.str1.1
                0x0000000000000000       0x2b drivers/usb/common/built-in.o
 .data          0x0000000000000000        0x0 drivers/usb/common/built-in.o
 .bss           0x0000000000000000        0x0 drivers/usb/common/built-in.o
 .text          0x0000000000000000        0x0 drivers/usb/gadget/built-in.o
 .text.usb_function_deactivate
                0x0000000000000000       0x2a drivers/usb/gadget/built-in.o
 .text.usb_function_activate
                0x0000000000000000       0x2a drivers/usb/gadget/built-in.o
 .text.usb_string_ids_tab
                0x0000000000000000       0x28 drivers/usb/gadget/built-in.o
 .text.usb_string_ids_n
                0x0000000000000000       0x1c drivers/usb/gadget/built-in.o
 .text.board_usb_init
                0x0000000000000000        0x4 drivers/usb/gadget/built-in.o
 .text.board_usb_cleanup
                0x0000000000000000        0x4 drivers/usb/gadget/built-in.o
 .data          0x0000000000000000        0x0 drivers/usb/gadget/built-in.o
 .bss           0x0000000000000000        0x0 drivers/usb/gadget/built-in.o
 .text          0x0000000000000000        0x0 drivers/usb/gadget/udc/built-in.o
 .text.usb_gadget_map_request
                0x0000000000000000        0xc drivers/usb/gadget/udc/built-in.o
 .text.usb_gadget_unmap_request
                0x0000000000000000        0x2 drivers/usb/gadget/udc/built-in.o
 .text.usb_gadget_giveback_request
                0x0000000000000000        0x4 drivers/usb/gadget/udc/built-in.o
 .text.usb_gadget_set_state
                0x0000000000000000        0x4 drivers/usb/gadget/udc/built-in.o
 .text.usb_gadget_udc_reset
                0x0000000000000000        0xe drivers/usb/gadget/udc/built-in.o
 .data          0x0000000000000000        0x0 drivers/usb/gadget/udc/built-in.o
 .bss           0x0000000000000000        0x0 drivers/usb/gadget/udc/built-in.o
 .text          0x0000000000000000        0x0 drivers/usb/host/built-in.o
 .text.create_int_queue
                0x0000000000000000       0x2a drivers/usb/host/built-in.o
 .text.poll_int_queue
                0x0000000000000000       0x1e drivers/usb/host/built-in.o
 .text.destroy_int_queue
                0x0000000000000000       0x20 drivers/usb/host/built-in.o
 .text.usb_setup_ehci_gadget
                0x0000000000000000       0x42 drivers/usb/host/built-in.o
 .text.usb_detect_change
                0x0000000000000000       0x68 drivers/usb/host/built-in.o
 .data          0x0000000000000000        0x0 drivers/usb/host/built-in.o
 .bss           0x0000000000000000        0x0 drivers/usb/host/built-in.o
 .text          0x0000000000000000        0x0 drivers/usb/musb-new/built-in.o
 .text.musb_gadget_cleanup
                0x0000000000000000        0x2 drivers/usb/musb-new/built-in.o
 .text.musb_g_resume
                0x0000000000000000        0x2 drivers/usb/musb-new/built-in.o
 .text.musb_g_suspend
                0x0000000000000000        0x2 drivers/usb/musb-new/built-in.o
 .text.musb_g_wakeup
                0x0000000000000000        0x2 drivers/usb/musb-new/built-in.o
 .text.musb_g_disconnect
                0x0000000000000000       0x38 drivers/usb/musb-new/built-in.o
 .text.musb_g_reset
                0x0000000000000000       0x72 drivers/usb/musb-new/built-in.o
 .text.musb_register
                0x0000000000000000        0x6 drivers/usb/musb-new/built-in.o
 .data          0x0000000000000000        0x0 drivers/usb/musb-new/built-in.o
 .bss           0x0000000000000000        0x0 drivers/usb/musb-new/built-in.o
 .text          0x0000000000000000        0x0 env/built-in.o
 .text.env_erase
                0x0000000000000000       0x58 env/built-in.o
 .text.env_flags_parse_varaccess_from_binflags
                0x0000000000000000       0x30 env/built-in.o
 .rodata.env_erase.str1.1
                0x0000000000000000       0x1e env/built-in.o
 .rodata.env_flags_parse_varaccess_from_binflags.str1.1
                0x0000000000000000       0x2c env/built-in.o
 .data          0x0000000000000000        0x0 env/built-in.o
 .bss           0x0000000000000000        0x0 env/built-in.o
 .text          0x0000000000000000        0x0 fs/built-in.o
 .text.fs_get_type_name
                0x0000000000000000       0x14 fs/built-in.o
 .text.fs_uuid  0x0000000000000000       0x1c fs/built-in.o
 .text.do_fs_uuid
                0x0000000000000000       0x58 fs/built-in.o
 .text.print_revoke_blks
                0x0000000000000000       0x38 fs/built-in.o
 .text.fat_register_device
                0x0000000000000000       0x54 fs/built-in.o
 .rodata.print_revoke_blks.str1.1
                0x0000000000000000       0x25 fs/built-in.o
 .rodata.fat_register_device.str1.1
                0x0000000000000000       0x2b fs/built-in.o
 .data          0x0000000000000000        0x0 fs/built-in.o
 .bss           0x0000000000000000        0x0 fs/built-in.o
 .bss.ext4fs_symlinknest
                0x0000000000000000        0x4 fs/built-in.o
 .text          0x0000000000000000        0x0 lib/built-in.o
 .text.efi_serialize_load_option
                0x0000000000000000       0x86 lib/built-in.o
 .text.indent_string
                0x0000000000000000       0x20 lib/built-in.o
 .text.__efi_nesting
                0x0000000000000000        0xc lib/built-in.o
 .text.__efi_nesting_inc
                0x0000000000000000       0x10 lib/built-in.o
 .text.__efi_nesting_dec
                0x0000000000000000       0x10 lib/built-in.o
 .text.efi_dp_from_dev
                0x0000000000000000       0x28 lib/built-in.o
 .text.form_callback
                0x0000000000000000       0x14 lib/built-in.o
 .text.extract_config_access
                0x0000000000000000       0x14 lib/built-in.o
 .text.route_config_access
                0x0000000000000000       0x14 lib/built-in.o
 .text.invalidate_icache_all
                0x0000000000000000        0x2 lib/built-in.o
 .text.efi_add_runtime_mmio
                0x0000000000000000       0x64 lib/built-in.o
 .text.allow_unaligned
                0x0000000000000000        0x2 lib/built-in.o
 .text.fdt_nop_property
                0x0000000000000000       0x2a lib/built-in.o
 .text.fdt_nop_node
                0x0000000000000000       0x30 lib/built-in.o
 .text.fdt_sw_check_header_
                0x0000000000000000       0x14 lib/built-in.o
 .text.fdt_grab_space_
                0x0000000000000000       0x2e lib/built-in.o
 .text.fdt_create
                0x0000000000000000       0x40 lib/built-in.o
 .text.fdt_resize
                0x0000000000000000       0x7e lib/built-in.o
 .text.fdt_add_reservemap_entry
                0x0000000000000000       0x56 lib/built-in.o
 .text.fdt_finish_reservemap
                0x0000000000000000       0x14 lib/built-in.o
 .text.fdt_begin_node
                0x0000000000000000       0x42 lib/built-in.o
 .text.fdt_end_node
                0x0000000000000000       0x26 lib/built-in.o
 .text.fdt_property_placeholder
                0x0000000000000000       0x9c lib/built-in.o
 .text.fdt_property
                0x0000000000000000       0x22 lib/built-in.o
 .text.fdt_finish
                0x0000000000000000       0x94 lib/built-in.o
 .text.fdt_set_name
                0x0000000000000000       0x5a lib/built-in.o
 .text.fdt_appendprop
                0x0000000000000000       0x82 lib/built-in.o
 .text.fdt_create_empty_tree
                0x0000000000000000       0x44 lib/built-in.o
 .text.fdt_generate_phandle
                0x0000000000000000       0x48 lib/built-in.o
 .text.fdt_node_offset_by_prop_value
                0x0000000000000000       0x56 lib/built-in.o
 .text.fdt_stringlist_search
                0x0000000000000000       0x66 lib/built-in.o
 .text.fdt_node_offset_by_compatible
                0x0000000000000000       0x40 lib/built-in.o
 .text.fdt_add_region
                0x0000000000000000       0x58 lib/built-in.o
 .text.fdt_add_alias_regions
                0x0000000000000000      0x11c lib/built-in.o
 .text.fdt_next_region
                0x0000000000000000      0x338 lib/built-in.o
 .text.fdt_first_region
                0x0000000000000000       0x3a lib/built-in.o
 .text.u16_strncmp
                0x0000000000000000       0x22 lib/built-in.o
 .text.u16_strnlen
                0x0000000000000000       0x14 lib/built-in.o
 .text.u16_strcpy
                0x0000000000000000       0x14 lib/built-in.o
 .text.crc7     0x0000000000000000       0x1c lib/built-in.o
 .text.crc8     0x0000000000000000       0x30 lib/built-in.o
 .text.fdtdec_get_uint
                0x0000000000000000       0x1c lib/built-in.o
 .text.ldiv     0x0000000000000000       0x24 lib/built-in.o
 .text.byteReverse
                0x0000000000000000        0x2 lib/built-in.o
 .text.md5      0x0000000000000000       0x44 lib/built-in.o
 .text.rc4_encode
                0x0000000000000000       0x8a lib/built-in.o
 .text.sha1_csum
                0x0000000000000000       0x24 lib/built-in.o
 .text.sha1_hmac
                0x0000000000000000       0xb6 lib/built-in.o
 .text.sha1_self_test
                0x0000000000000000        0x4 lib/built-in.o
 .text.inflateInit_
                0x0000000000000000        0xa lib/built-in.o
 .text.fdtdec_get_compatible
                0x0000000000000000        0xc lib/built-in.o
 .text.fdtdec_get_uint64
                0x0000000000000000       0x24 lib/built-in.o
 .text.get_next_memory_node
                0x0000000000000000       0x38 lib/built-in.o
 .text.fdtdec_lookup
                0x0000000000000000       0x28 lib/built-in.o
 .text.fdtdec_next_compatible
                0x0000000000000000       0x10 lib/built-in.o
 .text.fdtdec_next_compatible_subnode
                0x0000000000000000       0x3c lib/built-in.o
 .text.fdtdec_next_alias
                0x0000000000000000       0x60 lib/built-in.o
 .text.fdtdec_add_aliases_for_id
                0x0000000000000000      0x16c lib/built-in.o
 .text.fdtdec_find_aliases_for_id
                0x0000000000000000       0x2a lib/built-in.o
 .text.fdtdec_check_fdt
                0x0000000000000000        0xa lib/built-in.o
 .text.decode_timing_property
                0x0000000000000000       0x48 lib/built-in.o
 .text.fdtdec_get_int_array_count
                0x0000000000000000       0x38 lib/built-in.o
 .text.fdtdec_locate_array
                0x0000000000000000       0x18 lib/built-in.o
 .text.fdtdec_get_child_count
                0x0000000000000000       0x1e lib/built-in.o
 .text.fdtdec_get_byte_array
                0x0000000000000000       0x22 lib/built-in.o
 .text.fdtdec_get_config_bool
                0x0000000000000000       0x2c lib/built-in.o
 .text.fdt_get_named_resource
                0x0000000000000000       0x2c lib/built-in.o
 .text.fdtdec_decode_display_timing
                0x0000000000000000      0x1e8 lib/built-in.o
 .text.fdtdec_setup_mem_size_base_fdt
                0x0000000000000000       0x44 lib/built-in.o
 .text.fdtdec_setup_mem_size_base
                0x0000000000000000        0x8 lib/built-in.o
 .text.fdtdec_setup_memory_banksize_fdt
                0x0000000000000000       0x98 lib/built-in.o
 .text.fdtdec_setup_memory_banksize
                0x0000000000000000        0x8 lib/built-in.o
 .text.fdtdec_set_ethernet_mac_address
                0x0000000000000000       0x60 lib/built-in.o
 .text.fdtdec_add_reserved_memory
                0x0000000000000000      0x1dc lib/built-in.o
 .text.fdtdec_get_carveout
                0x0000000000000000       0x7c lib/built-in.o
 .text.fdtdec_set_carveout
                0x0000000000000000       0x4a lib/built-in.o
 .text.fdtdec_decode_ram_size
                0x0000000000000000      0x16c lib/built-in.o
 .text.print_freq
                0x0000000000000000      0x124 lib/built-in.o
 .text.div_s64_rem
                0x0000000000000000       0x8c lib/built-in.o
 .text.div64_u64_rem
                0x0000000000000000      0x122 lib/built-in.o
 .text.div64_u64
                0x0000000000000000      0x104 lib/built-in.o
 .text.div64_s64
                0x0000000000000000       0x30 lib/built-in.o
 .text.iter_div_u64_rem
                0x0000000000000000       0x22 lib/built-in.o
 .text.copy_from_user
                0x0000000000000000        0xa lib/built-in.o
 .text.get_mem  0x0000000000000000       0x10 lib/built-in.o
 .text.kmem_cache_alloc
                0x0000000000000000        0xe lib/built-in.o
 .text.lmb_init
                0x0000000000000000        0xc lib/built-in.o
 .text.lmb_is_reserved
                0x0000000000000000       0x28 lib/built-in.o
 .text.arch_lmb_reserve
                0x0000000000000000        0x2 lib/built-in.o
 .text.membuff_purge
                0x0000000000000000        0x8 lib/built-in.o
 .text.membuff_putraw
                0x0000000000000000       0x68 lib/built-in.o
 .text.membuff_putbyte
                0x0000000000000000       0x1c lib/built-in.o
 .text.membuff_getraw
                0x0000000000000000       0x54 lib/built-in.o
 .text.membuff_getbyte
                0x0000000000000000       0x24 lib/built-in.o
 .text.membuff_peekbyte
                0x0000000000000000       0x22 lib/built-in.o
 .text.membuff_get
                0x0000000000000000       0x4c lib/built-in.o
 .text.membuff_put
                0x0000000000000000       0x3e lib/built-in.o
 .text.membuff_isempty
                0x0000000000000000        0xc lib/built-in.o
 .text.membuff_avail
                0x0000000000000000       0x34 lib/built-in.o
 .text.membuff_size
                0x0000000000000000        0x8 lib/built-in.o
 .text.membuff_makecontig
                0x0000000000000000       0x44 lib/built-in.o
 .text.membuff_free
                0x0000000000000000       0x1a lib/built-in.o
 .text.membuff_readline
                0x0000000000000000       0x6c lib/built-in.o
 .text.membuff_extend_by
                0x0000000000000000       0x76 lib/built-in.o
 .text.membuff_init
                0x0000000000000000        0xc lib/built-in.o
 .text.membuff_new
                0x0000000000000000       0x22 lib/built-in.o
 .text.membuff_uninit
                0x0000000000000000        0xc lib/built-in.o
 .text.membuff_dispose
                0x0000000000000000       0x14 lib/built-in.o
 .text.strchrnul
                0x0000000000000000       0x14 lib/built-in.o
 .text.strcspn  0x0000000000000000       0x22 lib/built-in.o
 .text.strndup  0x0000000000000000       0x30 lib/built-in.o
 .text.strswab  0x0000000000000000       0x26 lib/built-in.o
 .text.memscan  0x0000000000000000       0x16 lib/built-in.o
 .text.memchr_inv
                0x0000000000000000       0x92 lib/built-in.o
 .text.table_compute_checksum
                0x0000000000000000       0x1a lib/built-in.o
 .text.print_hex_dump_bytes
                0x0000000000000000       0x14 lib/built-in.o
 .text.__assert_fail
                0x0000000000000000       0x10 lib/built-in.o
 .text.scnprintf
                0x0000000000000000       0x1a lib/built-in.o
 .text.print_grouped_ull
                0x0000000000000000       0x5c lib/built-in.o
 .text.str2long
                0x0000000000000000       0x22 lib/built-in.o
 .text.strmhz   0x0000000000000000       0x48 lib/built-in.o
 .rodata.efi_guid_event_group_ready_to_boot
                0x0000000000000000       0x10 lib/built-in.o
 .rodata.efi_guid_event_group_virtual_address_change
                0x0000000000000000       0x10 lib/built-in.o
 .rodata.indent_string.str1.1
                0x0000000000000000       0x15 lib/built-in.o
 .rodata.efi_guid_hii_config_access_protocol
                0x0000000000000000       0x10 lib/built-in.o
 .rodata.efi_hii_config_access
                0x0000000000000000        0xc lib/built-in.o
 .rodata.fdt_create_empty_tree.str1.1
                0x0000000000000000        0x1 lib/built-in.o
 .rodata.fdt_add_alias_regions.str1.1
                0x0000000000000000        0x8 lib/built-in.o
 .rodata.crc7_syndrome_table
                0x0000000000000000      0x100 lib/built-in.o
 .rodata.z_errmsg
                0x0000000000000000       0x28 lib/built-in.o
 .rodata.compat_names
                0x0000000000000000       0x8c lib/built-in.o
 .rodata.fdtdec_add_reserved_memory.str1.1
                0x0000000000000000       0x51 lib/built-in.o
 .rodata.fdtdec_decode_display_timing.str1.1
                0x0000000000000000       0xca lib/built-in.o
 .rodata.fdtdec_decode_ram_size.str1.1
                0x0000000000000000       0x21 lib/built-in.o
 .rodata.fdtdec_next_alias.str1.1
                0x0000000000000000        0x7 lib/built-in.o
 .rodata.fdtdec_set_ethernet_mac_address.str1.1
                0x0000000000000000       0x1b lib/built-in.o
 .rodata.fdtdec_setup_mem_size_base_fdt.str1.1
                0x0000000000000000        0xc lib/built-in.o
 .rodata.get_next_memory_node.str1.1
                0x0000000000000000       0x13 lib/built-in.o
 .rodata.names.9386
                0x0000000000000000        0x3 lib/built-in.o
 .rodata.hex_asc_upper
                0x0000000000000000       0x11 lib/built-in.o
 .rodata.__assert_fail.str1.1
                0x0000000000000000       0x22 lib/built-in.o
 .rodata.print_grouped_ull.str1.1
                0x0000000000000000        0xb lib/built-in.o
 .rodata.strmhz.str1.1
                0x0000000000000000        0xb lib/built-in.o
 .data          0x0000000000000000        0x0 lib/built-in.o
 .data.cur      0x0000000000000000        0x4 lib/built-in.o
 .data.current  0x0000000000000000        0x4 lib/built-in.o
 .bss           0x0000000000000000        0x0 lib/built-in.o
 .bss.nesting_level
                0x0000000000000000        0x4 lib/built-in.o
 .text          0x0000000000000000        0x0 net/built-in.o
 .text.add_ip_checksums
                0x0000000000000000       0x2c net/built-in.o
 .text.eth_init_state_only
                0x0000000000000000       0x1e net/built-in.o
 .text.net_get_udp_handler
                0x0000000000000000        0xc net/built-in.o
 .text.net_set_arp_handler
                0x0000000000000000       0x18 net/built-in.o
 .text.random_port
                0x0000000000000000       0x12 net/built-in.o
 .text.vlan_to_string
                0x0000000000000000       0x34 net/built-in.o
 .text.env_get_vlan
                0x0000000000000000        0xe net/built-in.o
 .rodata.vlan_to_string.str1.1
                0x0000000000000000        0x8 net/built-in.o
 .data          0x0000000000000000        0x0 net/built-in.o
 .data.tftp_timeout_ms
                0x0000000000000000        0x4 net/built-in.o
 .bss           0x0000000000000000        0x0 net/built-in.o
 .bss.net_busy_flag
                0x0000000000000000        0x4 net/built-in.o
 .text          0x0000000000000000        0x0 arch/arm/lib/eabi_compat.o
 .data          0x0000000000000000        0x0 arch/arm/lib/eabi_compat.o
 .bss           0x0000000000000000        0x0 arch/arm/lib/eabi_compat.o
 .text.raise    0x0000000000000000       0x14 arch/arm/lib/eabi_compat.o
 .text.__aeabi_unwind_cpp_pr0
                0x0000000000000000        0x2 arch/arm/lib/eabi_compat.o
 .text.__aeabi_unwind_cpp_pr1
                0x0000000000000000        0x2 arch/arm/lib/eabi_compat.o
 .text.__aeabi_memcpy
                0x0000000000000000        0x4 arch/arm/lib/eabi_compat.o
 .text.__aeabi_memset
                0x0000000000000000        0xa arch/arm/lib/eabi_compat.o
 .rodata.raise.str1.1
                0x0000000000000000       0x1b arch/arm/lib/eabi_compat.o
 .debug_info    0x0000000000000000      0xbf6 arch/arm/lib/eabi_compat.o
 .debug_abbrev  0x0000000000000000      0x241 arch/arm/lib/eabi_compat.o
 .debug_loc     0x0000000000000000      0x108 arch/arm/lib/eabi_compat.o
 .debug_aranges
                0x0000000000000000       0x38 arch/arm/lib/eabi_compat.o
 .debug_ranges  0x0000000000000000       0x28 arch/arm/lib/eabi_compat.o
 .debug_line    0x0000000000000000      0x379 arch/arm/lib/eabi_compat.o
 .debug_str     0x0000000000000000      0xb91 arch/arm/lib/eabi_compat.o
 .comment       0x0000000000000000       0x75 arch/arm/lib/eabi_compat.o
 .note.GNU-stack
                0x0000000000000000        0x0 arch/arm/lib/eabi_compat.o
 .debug_frame   0x0000000000000000       0x68 arch/arm/lib/eabi_compat.o
 .ARM.attributes
                0x0000000000000000       0x2d arch/arm/lib/eabi_compat.o
 .text          0x0000000000000000        0x0 arch/arm/lib/lib.a(lib1funcs.o)
 .data          0x0000000000000000        0x0 arch/arm/lib/lib.a(lib1funcs.o)
 .bss           0x0000000000000000        0x0 arch/arm/lib/lib.a(lib1funcs.o)
 .text.__umodsi3
                0x0000000000000000       0xa0 arch/arm/lib/lib.a(lib1funcs.o)
 .text.__modsi3
                0x0000000000000000       0xb8 arch/arm/lib/lib.a(lib1funcs.o)
 .text          0x0000000000000000        0x0 arch/arm/lib/lib.a(div0.o)
 .data          0x0000000000000000        0x0 arch/arm/lib/lib.a(div0.o)
 .bss           0x0000000000000000        0x0 arch/arm/lib/lib.a(div0.o)

Memory Configuration

Name             Origin             Length             Attributes
*default*        0x0000000000000000 0xffffffffffffffff

Linker script and memory map

Address of section .text set to 0x80800000
                0x0000000000000000                . = 0x0
                0x0000000000000000                . = ALIGN (0x4)

.text           0x0000000080800000      0x77c
 *(.__image_copy_start)
 .__image_copy_start
                0x0000000080800000        0x0 arch/arm/lib/built-in.o
                0x0000000080800000                __image_copy_start
 *(.vectors)
 .vectors       0x0000000080800000      0x2e8 arch/arm/lib/built-in.o
                0x0000000080800000                _start
                0x0000000080800020                _undefined_instruction
                0x0000000080800024                _software_interrupt
                0x0000000080800028                _prefetch_abort
                0x000000008080002c                _data_abort
                0x0000000080800030                _not_used
                0x0000000080800034                _irq
                0x0000000080800038                _fiq
                0x0000000080800040                IRQ_STACK_START_IN
 arch/arm/cpu/armv7/start.o(.text*)
 .text          0x00000000808002e8       0xc8 arch/arm/cpu/armv7/start.o
                0x00000000808002e8                reset
                0x00000000808002ec                save_boot_params_ret
                0x0000000080800320                c_runtime_cpu_setup
                0x0000000080800334                cpu_init_cp15
 board/ti/am335x/built-in.o(.text*)
 .text.request_and_set_gpio
                0x00000000808003b0       0x58 board/ti/am335x/built-in.o
 .text.board_init
                0x0000000080800408      0x180 board/ti/am335x/built-in.o
                0x0000000080800408                board_init
 .text.board_late_init
                0x0000000080800588      0x1f4 board/ti/am335x/built-in.o
                0x0000000080800588                board_late_init

.glue_7         0x000000008080077c        0x0
 .glue_7        0x000000008080077c        0x0 linker stubs

.glue_7t        0x000000008080077c        0x0
 .glue_7t       0x000000008080077c        0x0 linker stubs

.vfp11_veneer   0x000000008080077c        0x0
 .vfp11_veneer  0x000000008080077c        0x0 linker stubs

.v4_bx          0x000000008080077c        0x0
 .v4_bx         0x000000008080077c        0x0 linker stubs

.iplt           0x000000008080077c        0x0
 .iplt          0x000000008080077c        0x0 arch/arm/cpu/armv7/start.o

.__efi_runtime_start
                0x000000008080077c        0x0
 *(.__efi_runtime_start)
 .__efi_runtime_start
                0x000000008080077c        0x0 arch/arm/lib/built-in.o

.efi_runtime    0x0000000080800780      0x7e0
 *(.text.efi_runtime*)
 .text.efi_runtime
                0x0000000080800780      0x1a4 lib/built-in.o
                0x0000000080800780                efi_reset_system
                0x0000000080800782                efi_get_time
                0x000000008080078c                efi_set_time
                0x00000000808007ac                efi_update_capsule
                0x00000000808007b4                efi_query_capsule_caps
                0x0000000080800858                efi_update_table_header_crc32
                0x0000000080800884                efi_query_variable_info
                0x000000008080088c                crc32_no_comp
                0x0000000080800918                crc32
 .text.efi_runtime_detach
                0x0000000080800924       0x24 lib/built-in.o
                0x0000000080800924                efi_runtime_detach
 .text.efi_runtime_relocate
                0x0000000080800948       0xf8 lib/built-in.o
                0x0000000080800948                efi_runtime_relocate
 *(.rodata.efi_runtime*)
 .rodata.efi_runtime_relocate.str1.1
                0x0000000080800a40       0x4e lib/built-in.o
 *(.data.efi_runtime*)
 *fill*         0x0000000080800a8e        0x2 
 .data.efi_runtime
                0x0000000080800a90      0x4c8 lib/built-in.o
                0x0000000080800a90                efi_events
                0x0000000080800a98                systab
                0x0000000080800b08                efi_runtime_services
 .data.efi_runtime_mmio
                0x0000000080800f58        0x8 lib/built-in.o
                0x0000000080800f58                efi_runtime_mmio

.__efi_runtime_stop
                0x0000000080800f60        0x0
 *(.__efi_runtime_stop)
 .__efi_runtime_stop
                0x0000000080800f60        0x0 arch/arm/lib/built-in.o

.text_rest      0x0000000080800f60    0x4670c
 *(.text*)
 .text          0x0000000080800f60      0x168 arch/arm/cpu/armv7/built-in.o
                0x0000000080800f60                __v7_flush_dcache_all
                0x0000000080800ffc                v7_flush_dcache_all
                0x000000008080100c                __v7_invalidate_dcache_all
                0x00000000808010a8                v7_invalidate_dcache_all
                0x00000000808010b8                allow_unaligned
 .text.invalidate_icache_all
                0x00000000808010c8       0x14 arch/arm/cpu/armv7/built-in.o
                0x00000000808010c8                invalidate_icache_all
 .text.v7_outer_cache_enable
                0x00000000808010dc        0x2 arch/arm/cpu/armv7/built-in.o
                0x00000000808010dc                v7_outer_cache_enable
 .text.v7_outer_cache_disable
                0x00000000808010de        0x2 arch/arm/cpu/armv7/built-in.o
                0x00000000808010de                v7_outer_cache_disable
 .text.v7_outer_cache_flush_all
                0x00000000808010e0        0x2 arch/arm/cpu/armv7/built-in.o
                0x00000000808010e0                v7_outer_cache_flush_all
 .text.flush_dcache_all
                0x00000000808010e2        0xe arch/arm/cpu/armv7/built-in.o
                0x00000000808010e2                flush_dcache_all
 .text.v7_outer_cache_inval_all
                0x00000000808010f0        0x2 arch/arm/cpu/armv7/built-in.o
                0x00000000808010f0                v7_outer_cache_inval_all
 .text.invalidate_dcache_all
                0x00000000808010f2        0xe arch/arm/cpu/armv7/built-in.o
                0x00000000808010f2                invalidate_dcache_all
 .text.arm_init_before_mmu
                0x0000000080801100       0x22 arch/arm/cpu/armv7/built-in.o
                0x0000000080801100                arm_init_before_mmu
 .text.v7_outer_cache_flush_range
                0x0000000080801122        0x2 arch/arm/cpu/armv7/built-in.o
                0x0000000080801122                v7_outer_cache_flush_range
 .text.flush_dcache_range
                0x0000000080801124       0x38 arch/arm/cpu/armv7/built-in.o
                0x0000000080801124                flush_dcache_range
 .text.v7_outer_cache_inval_range
                0x000000008080115c        0x2 arch/arm/cpu/armv7/built-in.o
                0x000000008080115c                v7_outer_cache_inval_range
 .text.invalidate_dcache_range
                0x000000008080115e       0x42 arch/arm/cpu/armv7/built-in.o
                0x000000008080115e                invalidate_dcache_range
 .text.cpu_cache_initialization
                0x00000000808011a0        0x2 arch/arm/cpu/armv7/built-in.o
                0x00000000808011a0                cpu_cache_initialization
 .text.cleanup_before_linux_select
                0x00000000808011a2       0x3e arch/arm/cpu/armv7/built-in.o
                0x00000000808011a2                cleanup_before_linux_select
 .text.cleanup_before_linux
                0x00000000808011e0        0x6 arch/arm/cpu/armv7/built-in.o
                0x00000000808011e0                cleanup_before_linux
 .text.v7_arch_cp15_set_acr
                0x00000000808011e6        0x6 arch/arm/cpu/armv7/built-in.o
                0x00000000808011e6                v7_arch_cp15_set_acr
 *fill*         0x00000000808011ec       0x14 
 .text          0x0000000080801200      0x424 arch/arm/lib/built-in.o
                0x0000000080801200                _main
                0x00000000808012a0                memset
                0x0000000080801340                memcpy
 .text.setjmp   0x0000000080801624       0x10 arch/arm/lib/built-in.o
                0x0000000080801624                setjmp
 .text.longjmp  0x0000000080801634       0x1c arch/arm/lib/built-in.o
                0x0000000080801634                longjmp
 .text.relocate_vectors
                0x0000000080801650       0x70 arch/arm/lib/built-in.o
                0x0000000080801650                relocate_vectors
                0x000000008080165c                relocate_code
 .text.arch_fixup_fdt
                0x00000000808016c0       0x38 arch/arm/lib/built-in.o
                0x00000000808016c0                arch_fixup_fdt
 .text.setup_initrd_tag.isra.1
                0x00000000808016f8       0x2c arch/arm/lib/built-in.o
 .text.arch_lmb_reserve
                0x0000000080801724       0x4e arch/arm/lib/built-in.o
                0x0000000080801724                arch_lmb_reserve
 .text.board_quiesce_devices
                0x0000000080801772        0x2 arch/arm/lib/built-in.o
                0x0000000080801772                board_quiesce_devices
 .text.boot_jump_linux
                0x0000000080801774       0x90 arch/arm/lib/built-in.o
 .text.setup_board_tags
                0x0000000080801804        0x2 arch/arm/lib/built-in.o
                0x0000000080801804                setup_board_tags
 *fill*         0x0000000080801806        0x2 
 .text.boot_prep_linux
                0x0000000080801808       0xfc arch/arm/lib/built-in.o
 .text.do_bootm_linux
                0x0000000080801904       0x3c arch/arm/lib/built-in.o
                0x0000000080801904                do_bootm_linux
 .text.boot_prep_vxworks
                0x0000000080801940       0x34 arch/arm/lib/built-in.o
                0x0000000080801940                boot_prep_vxworks
 .text.boot_jump_vxworks
                0x0000000080801974        0xa arch/arm/lib/built-in.o
                0x0000000080801974                boot_jump_vxworks
 *fill*         0x000000008080197e        0x2 
 .text.bootz_setup
                0x0000000080801980       0x78 arch/arm/lib/built-in.o
                0x0000000080801980                bootz_setup
 .text.arch_reserve_stacks
                0x00000000808019f8       0x16 arch/arm/lib/built-in.o
                0x00000000808019f8                arch_reserve_stacks
 *fill*         0x0000000080801a0e        0x2 
 .text.interrupt_init
                0x0000000080801a10       0x14 arch/arm/lib/built-in.o
                0x0000000080801a10                interrupt_init
 .text.enable_interrupts
                0x0000000080801a24        0x2 arch/arm/lib/built-in.o
                0x0000000080801a24                enable_interrupts
 .text.disable_interrupts
                0x0000000080801a26        0x4 arch/arm/lib/built-in.o
                0x0000000080801a26                disable_interrupts
 *fill*         0x0000000080801a2a        0x2 
 .text.bad_mode
                0x0000000080801a2c        0xc arch/arm/lib/built-in.o
                0x0000000080801a2c                bad_mode
 .text.show_regs
                0x0000000080801a38      0x180 arch/arm/lib/built-in.o
                0x0000000080801a38                show_regs
 .text.do_undefined_instruction
                0x0000000080801bb8       0x28 arch/arm/lib/built-in.o
                0x0000000080801bb8                do_undefined_instruction
 .text.do_software_interrupt
                0x0000000080801be0       0x28 arch/arm/lib/built-in.o
                0x0000000080801be0                do_software_interrupt
 .text.do_prefetch_abort
                0x0000000080801c08       0x28 arch/arm/lib/built-in.o
                0x0000000080801c08                do_prefetch_abort
 .text.do_data_abort
                0x0000000080801c30       0x28 arch/arm/lib/built-in.o
                0x0000000080801c30                do_data_abort
 .text.do_not_used
                0x0000000080801c58       0x28 arch/arm/lib/built-in.o
                0x0000000080801c58                do_not_used
 .text.do_fiq   0x0000000080801c80       0x28 arch/arm/lib/built-in.o
                0x0000000080801c80                do_fiq
 .text.do_irq   0x0000000080801ca8       0x28 arch/arm/lib/built-in.o
                0x0000000080801ca8                do_irq
 .text.reset_misc
                0x0000000080801cd0        0x2 arch/arm/lib/built-in.o
                0x0000000080801cd0                reset_misc
 *fill*         0x0000000080801cd2        0x2 
 .text.do_reset
                0x0000000080801cd4       0x28 arch/arm/lib/built-in.o
                0x0000000080801cd4                do_reset
 .text.flush_cache
                0x0000000080801cfc        0x6 arch/arm/lib/built-in.o
                0x0000000080801cfc                flush_cache
 *fill*         0x0000000080801d02        0x2 
 .text.check_cache_range
                0x0000000080801d04       0x24 arch/arm/lib/built-in.o
                0x0000000080801d04                check_cache_range
 .text.set_section_dcache
                0x0000000080801d28       0x12 arch/arm/lib/built-in.o
                0x0000000080801d28                set_section_dcache
 .text.icache_enable
                0x0000000080801d3a       0x12 arch/arm/lib/built-in.o
                0x0000000080801d3a                icache_enable
 .text.icache_disable
                0x0000000080801d4c       0x16 arch/arm/lib/built-in.o
                0x0000000080801d4c                icache_disable
 .text.icache_status
                0x0000000080801d62        0xa arch/arm/lib/built-in.o
                0x0000000080801d62                icache_status
 .text.dcache_enable
                0x0000000080801d6c       0x80 arch/arm/lib/built-in.o
                0x0000000080801d6c                dcache_enable
 .text.dcache_disable
                0x0000000080801dec       0x20 arch/arm/lib/built-in.o
                0x0000000080801dec                dcache_disable
 .text.dcache_status
                0x0000000080801e0c        0xa arch/arm/lib/built-in.o
                0x0000000080801e0c                dcache_status
 *fill*         0x0000000080801e16        0x2 
 .text          0x0000000080801e18       0x60 arch/arm/mach-omap2/built-in.o
                0x0000000080801e18                save_boot_params
                0x0000000080801e24                omap_smc1
                0x0000000080801e40                omap_smc_sec
 .text.get_cpu_rev
                0x0000000080801e78       0x10 arch/arm/mach-omap2/built-in.o
                0x0000000080801e78                get_cpu_rev
 .text.get_cpu_type
                0x0000000080801e88       0x14 arch/arm/mach-omap2/built-in.o
                0x0000000080801e88                get_cpu_type
 .text.print_cpuinfo
                0x0000000080801e9c       0x90 arch/arm/mach-omap2/built-in.o
                0x0000000080801e9c                print_cpuinfo
 .text.dram_init
                0x0000000080801f2c       0x16 arch/arm/mach-omap2/built-in.o
                0x0000000080801f2c                dram_init
 .text.dram_init_banksize
                0x0000000080801f42       0x18 arch/arm/mach-omap2/built-in.o
                0x0000000080801f42                dram_init_banksize
 *fill*         0x0000000080801f5a        0x2 
 .text.arch_misc_init
                0x0000000080801f5c       0x2c arch/arm/mach-omap2/built-in.o
                0x0000000080801f5c                arch_misc_init
 .text.arch_cpu_init_dm
                0x0000000080801f88        0xa arch/arm/mach-omap2/built-in.o
                0x0000000080801f88                arch_cpu_init_dm
 *fill*         0x0000000080801f92        0x2 
 .text.hw_data_init
                0x0000000080801f94       0x14 arch/arm/mach-omap2/built-in.o
                0x0000000080801f94                hw_data_init
 .text.clk_synthesizer_reg_write
                0x0000000080801fa8       0x30 arch/arm/mach-omap2/built-in.o
 .text.setup_clock_synthesizer
                0x0000000080801fd8       0x94 arch/arm/mach-omap2/built-in.o
                0x0000000080801fd8                setup_clock_synthesizer
 .text.reset_cpu
                0x000000008080206c       0x10 arch/arm/mach-omap2/built-in.o
                0x000000008080206c                reset_cpu
 .text.get_device_type
                0x000000008080207c       0x18 arch/arm/mach-omap2/built-in.o
                0x000000008080207c                get_device_type
 .text.enable_caches
                0x0000000080802094       0x14 arch/arm/mach-omap2/built-in.o
                0x0000000080802094                enable_caches
 .text.dram_bank_mmu_setup
                0x00000000808020a8       0x26 arch/arm/mach-omap2/built-in.o
                0x00000000808020a8                dram_bank_mmu_setup
 .text.arm_init_domains
                0x00000000808020ce       0x16 arch/arm/mach-omap2/built-in.o
                0x00000000808020ce                arm_init_domains
 .text.board_ti_is
                0x00000000808020e4       0x30 board/ti/common/built-in.o
                0x00000000808020e4                board_ti_is
 .text.board_ti_get_rev
                0x0000000080802114        0x8 board/ti/common/built-in.o
                0x0000000080802114                board_ti_get_rev
 .text.set_board_info_env
                0x000000008080211c       0x3c board/ti/common/built-in.o
                0x000000008080211c                set_board_info_env
 .text.do_go_exec
                0x0000000080802158        0x8 cmd/built-in.o
                0x0000000080802158                do_go_exec
 .text.do_go    0x0000000080802160       0x4c cmd/built-in.o
 .text.do_bootm
                0x00000000808021ac       0xa0 cmd/built-in.o
                0x00000000808021ac                do_bootm
 .text.do_bootd
                0x000000008080224c       0x18 cmd/built-in.o
                0x000000008080224c                do_bootd
 .text.image_info
                0x0000000080802264       0x74 cmd/built-in.o
 .text.do_iminfo
                0x00000000808022d8       0x3c cmd/built-in.o
 .text.bootm_maybe_autostart
                0x0000000080802314       0x4c cmd/built-in.o
                0x0000000080802314                bootm_maybe_autostart
 .text.do_help  0x0000000080802360       0x2c cmd/built-in.o
 .text.do_version
                0x000000008080238c       0x30 cmd/built-in.o
 .text.blk_common_cmd
                0x00000000808023bc      0x1f0 cmd/built-in.o
                0x00000000808023bc                blk_common_cmd
 .text.source   0x00000000808025ac       0xd0 cmd/built-in.o
                0x00000000808025ac                source
 .text.do_source
                0x000000008080267c       0x50 cmd/built-in.o
 .text.print_num
                0x00000000808026cc       0x10 cmd/built-in.o
 .text.do_bdinfo
                0x00000000808026dc       0xd4 cmd/built-in.o
 .text.do_blkcache
                0x00000000808027b0       0x3c cmd/built-in.o
 .text.blkc_configure
                0x00000000808027ec       0x40 cmd/built-in.o
 .text.blkc_show
                0x000000008080282c       0x28 cmd/built-in.o
 .text.efi_install_fdt
                0x0000000080802854      0x230 cmd/built-in.o
 .text.do_bootefi_exec
                0x0000000080802a84      0x134 cmd/built-in.o
 .text.do_bootefi
                0x0000000080802bb8      0x130 cmd/built-in.o
 .text.efi_set_bootdev
                0x0000000080802ce8       0x64 cmd/built-in.o
                0x0000000080802ce8                efi_set_bootdev
 .text.do_bootz
                0x0000000080802d4c       0xa4 cmd/built-in.o
                0x0000000080802d4c                do_bootz
 .text.do_coninfo
                0x0000000080802df0       0x84 cmd/built-in.o
 .text.do_dm_dump_devres
                0x0000000080802e74        0x4 cmd/built-in.o
 .text.do_dm    0x0000000080802e78       0x44 cmd/built-in.o
 .text.do_dm_dump_uclass
                0x0000000080802ebc        0xa cmd/built-in.o
 .text.do_dm_dump_all
                0x0000000080802ec6        0xa cmd/built-in.o
 .text.do_echo  0x0000000080802ed0       0x74 cmd/built-in.o
 .text.parse_numeric_param
                0x0000000080802f44       0x1c cmd/built-in.o
 .text.parse_i2c_bus_addr
                0x0000000080802f60       0x42 cmd/built-in.o
 *fill*         0x0000000080802fa2        0x2 
 .text.eeprom_rw
                0x0000000080802fa4       0x98 cmd/built-in.o
 .text.eeprom_write_enable
                0x000000008080303c        0x4 cmd/built-in.o
                0x000000008080303c                eeprom_write_enable
 .text.eeprom_read
                0x0000000080803040        0xe cmd/built-in.o
                0x0000000080803040                eeprom_read
 .text.eeprom_write
                0x000000008080304e       0x34 cmd/built-in.o
                0x000000008080304e                eeprom_write
 *fill*         0x0000000080803082        0x2 
 .text.do_eeprom
                0x0000000080803084       0xd8 cmd/built-in.o
                0x0000000080803084                do_eeprom
 .text.load_elf_image_phdr
                0x000000008080315c       0xca cmd/built-in.o
 *fill*         0x0000000080803226        0x2 
 .text.valid_elf_image
                0x0000000080803228       0x30 cmd/built-in.o
                0x0000000080803228                valid_elf_image
 .text.do_bootelf
                0x0000000080803258      0x1b4 cmd/built-in.o
                0x0000000080803258                do_bootelf
 .text.do_bootvx
                0x000000008080340c      0x234 cmd/built-in.o
                0x000000008080340c                do_bootvx
 .text.do_exit  0x0000000080803640       0x20 cmd/built-in.o
 .text.do_ext4_size
                0x0000000080803660        0xe cmd/built-in.o
                0x0000000080803660                do_ext4_size
 .text.do_ext4_load
                0x000000008080366e        0xe cmd/built-in.o
                0x000000008080366e                do_ext4_load
 .text.do_ext4_ls
                0x000000008080367c        0xe cmd/built-in.o
                0x000000008080367c                do_ext4_ls
 .text.do_ext4_write
                0x000000008080368a        0xe cmd/built-in.o
                0x000000008080368a                do_ext4_write
 .text.do_ext2load
                0x0000000080803698        0xe cmd/built-in.o
                0x0000000080803698                do_ext2load
 .text.do_ext2ls
                0x00000000808036a6        0xe cmd/built-in.o
 .text.do_fat_size
                0x00000000808036b4        0xe cmd/built-in.o
                0x00000000808036b4                do_fat_size
 .text.do_fat_fsload
                0x00000000808036c2        0xe cmd/built-in.o
                0x00000000808036c2                do_fat_fsload
 .text.do_fat_ls
                0x00000000808036d0        0xe cmd/built-in.o
 *fill*         0x00000000808036de        0x2 
 .text.do_fat_fswrite
                0x00000000808036e0       0xd0 cmd/built-in.o
 .text.do_fat_rm
                0x00000000808037b0        0xe cmd/built-in.o
 .text.do_fat_mkdir
                0x00000000808037be        0xe cmd/built-in.o
 .text.do_fat_fsinfo
                0x00000000808037cc       0x54 cmd/built-in.o
 .text.fdt_valid
                0x0000000080803820       0x74 cmd/built-in.o
 .text.is_printable_string
                0x0000000080803894       0x48 cmd/built-in.o
 .text.print_data
                0x00000000808038dc      0x104 cmd/built-in.o
 .text.set_working_fdt_addr
                0x00000000808039e0       0x14 cmd/built-in.o
                0x00000000808039e0                set_working_fdt_addr
 .text.do_fdt   0x00000000808039f4      0xb08 cmd/built-in.o
 .text.do_size_wrapper
                0x00000000808044fc        0xe cmd/built-in.o
 .text.do_load_wrapper
                0x000000008080450a        0xe cmd/built-in.o
 .text.do_save_wrapper
                0x0000000080804518        0xe cmd/built-in.o
 .text.do_ls_wrapper
                0x0000000080804526        0xe cmd/built-in.o
 .text.do_ln_wrapper
                0x0000000080804534        0xe cmd/built-in.o
 .text.do_fstype_wrapper
                0x0000000080804542        0x4 cmd/built-in.o
 *fill*         0x0000000080804546        0x2 
 .text.gpio_get_description
                0x0000000080804548       0x84 cmd/built-in.o
 .text.do_gpio  0x00000000808045cc      0x21c cmd/built-in.o
 .text.do_i2c   0x00000000808047e8       0x3c cmd/built-in.o
 .text.i2c_get_cur_bus
                0x0000000080804824       0x24 cmd/built-in.o
 .text.do_i2c_bus_speed
                0x0000000080804848       0x64 cmd/built-in.o
 .text.do_i2c_reset
                0x00000000808048ac       0x24 cmd/built-in.o
 .text.i2c_get_cur_bus_chip
                0x00000000808048d0       0x1e cmd/built-in.o
 *fill*         0x00000000808048ee        0x2 
 .text.do_i2c_olen
                0x00000000808048f0       0x74 cmd/built-in.o
 .text.do_i2c_flags
                0x0000000080804964       0x78 cmd/built-in.o
 .text.do_i2c_probe
                0x00000000808049dc       0x74 cmd/built-in.o
 .text.do_i2c_bus_num
                0x0000000080804a50       0x70 cmd/built-in.o
 .text.show_bus
                0x0000000080804ac0       0x64 cmd/built-in.o
 .text.do_i2c_show_bus
                0x0000000080804b24       0x6c cmd/built-in.o
 .text.get_alen.constprop.4
                0x0000000080804b90       0x1e cmd/built-in.o
 *fill*         0x0000000080804bae        0x2 
 .text.do_i2c_crc
                0x0000000080804bb0       0xe4 cmd/built-in.o
 .text.mod_i2c_mem.isra.1
                0x0000000080804c94      0x15c cmd/built-in.o
 .text.do_i2c_nm
                0x0000000080804df0        0x6 cmd/built-in.o
 .text.do_i2c_mm
                0x0000000080804df6        0x6 cmd/built-in.o
 .text.do_i2c_md
                0x0000000080804dfc      0x15c cmd/built-in.o
 .text.do_i2c_read
                0x0000000080804f58       0x94 cmd/built-in.o
 .text.do_i2c_mw
                0x0000000080804fec       0xc0 cmd/built-in.o
 .text.do_i2c_write
                0x00000000808050ac      0x108 cmd/built-in.o
 .text.do_i2c_loop
                0x00000000808051b4       0xbc cmd/built-in.o
 .text.evalexp  0x0000000080805270       0x4c cmd/built-in.o
 .text.evalstr  0x00000000808052bc       0x3c cmd/built-in.o
 .text.binary_test
                0x00000000808052f8      0x128 cmd/built-in.o
 .text.do_itest
                0x0000000080805420       0x4c cmd/built-in.o
 .text.bin_data_init
                0x000000008080546c       0x1c cmd/built-in.o
 .text.k_data_save
                0x0000000080805488       0x34 cmd/built-in.o
 .text.k_data_restore
                0x00000000808054bc       0x34 cmd/built-in.o
 .text.getcxmodem
                0x00000000808054f0       0x16 cmd/built-in.o
 *fill*         0x0000000080805506        0x2 
 .text.load_serial_ymodem
                0x0000000080805508       0x90 cmd/built-in.o
 .text.bin_data_char
                0x0000000080805598       0x1c cmd/built-in.o
 .text.chk1.constprop.2
                0x00000000808055b4       0x20 cmd/built-in.o
 .text.s1_sendpacket.constprop.3
                0x00000000808055d4       0x34 cmd/built-in.o
 .text.load_serial
                0x0000000080805608      0x128 cmd/built-in.o
 .text.do_load_serial
                0x0000000080805730       0x90 cmd/built-in.o
 .text.do_load_serial_bin
                0x00000000808057c0      0x524 cmd/built-in.o
 .text.do_mem_mw
                0x0000000080805ce4       0x7c cmd/built-in.o
 .text.do_mem_loop
                0x0000000080805d60       0x82 cmd/built-in.o
 *fill*         0x0000000080805de2        0x2 
 .text.do_mem_md
                0x0000000080805de4       0xa0 cmd/built-in.o
 .text.do_mem_cmp
                0x0000000080805e84       0xec cmd/built-in.o
 .text.do_mem_base
                0x0000000080805f70       0x28 cmd/built-in.o
 .text.do_mem_cp
                0x0000000080805f98       0x70 cmd/built-in.o
 .text.do_mem_crc
                0x0000000080806008       0x2c cmd/built-in.o
 .text.mod_mem.isra.0
                0x0000000080806034       0xf0 cmd/built-in.o
 .text.do_mem_mm
                0x0000000080806124        0x6 cmd/built-in.o
 .text.do_mem_nm
                0x000000008080612a        0x6 cmd/built-in.o
 .text.do_random
                0x0000000080806130       0xa4 cmd/built-in.o
 .text.extract_range
                0x00000000808061d4       0x7a cmd/built-in.o
 *fill*         0x000000008080624e        0x2 
 .text.dump_field
                0x0000000080806250       0x3c cmd/built-in.o
 .text.do_mii   0x000000008080628c      0x5a0 cmd/built-in.o
 .text.do_mdio  0x000000008080682c      0x474 cmd/built-in.o
 .text.do_sleep
                0x0000000080806ca0       0x88 cmd/built-in.o
 .text.do_mmcops
                0x0000000080806d28       0x80 cmd/built-in.o
 .text.init_mmc_device
                0x0000000080806da8       0x48 cmd/built-in.o
 .text.do_mmc_rescan
                0x0000000080806df0       0x18 cmd/built-in.o
 .text.do_mmc_hwpartition
                0x0000000080806e08      0x388 cmd/built-in.o
 .text.do_mmc_list
                0x0000000080807190        0xc cmd/built-in.o
 .text.do_mmc_dev
                0x000000008080719c       0xc8 cmd/built-in.o
 .text.do_mmc_erase
                0x0000000080807264       0x9c cmd/built-in.o
 .text.do_mmc_write
                0x0000000080807300       0xb0 cmd/built-in.o
 .text.do_mmc_read
                0x00000000808073b0       0x94 cmd/built-in.o
 .text.do_mmcinfo
                0x0000000080807444      0x2b8 cmd/built-in.o
 .text.do_mmc_setdsr
                0x00000000808076fc       0x74 cmd/built-in.o
 .text.do_mmc_part
                0x0000000080807770       0x38 cmd/built-in.o
 .text.netboot_common
                0x00000000808077a8      0x1ec cmd/built-in.o
 .text.do_bootp
                0x0000000080807994        0x8 cmd/built-in.o
 .text.do_dhcp  0x000000008080799c        0x8 cmd/built-in.o
 .text.do_nfs   0x00000000808079a4        0x8 cmd/built-in.o
 .text.do_tftpb
                0x00000000808079ac       0x26 cmd/built-in.o
                0x00000000808079ac                do_tftpb
 *fill*         0x00000000808079d2        0x2 
 .text.do_ping  0x00000000808079d4       0x48 cmd/built-in.o
 .text.efi_dump_single_var
                0x0000000080807a1c       0xe0 cmd/built-in.o
 .text.do_env_print_efi
                0x0000000080807afc      0x118 cmd/built-in.o
                0x0000000080807afc                do_env_print_efi
 .text.do_env_set_efi
                0x0000000080807c14      0x2c4 cmd/built-in.o
                0x0000000080807c14                do_env_set_efi
 .text.do_part_list
                0x0000000080807ed8       0xf0 cmd/built-in.o
 .text.do_part_info
                0x0000000080807fc8       0xb0 cmd/built-in.o
 .text.do_part  0x0000000080808078       0xbc cmd/built-in.o
 .text.eol_or_eof
                0x0000000080808134       0x12 cmd/built-in.o
 *fill*         0x0000000080808146        0x2 
 .text.do_pxe   0x0000000080808148       0x48 cmd/built-in.o
 .text.label_print
                0x0000000080808190       0x14 cmd/built-in.o
 .text.do_get_tftp
                0x00000000808081a4       0x2c cmd/built-in.o
 .text.from_env
                0x00000000808081d0       0x1c cmd/built-in.o
 .text.get_string
                0x00000000808081ec       0x80 cmd/built-in.o
 .text.label_destroy
                0x000000008080826c       0x46 cmd/built-in.o
 .text.destroy_pxe_menu
                0x00000000808082b2       0x36 cmd/built-in.o
 .text.get_token
                0x00000000808082e8       0xa0 cmd/built-in.o
 .text.parse_sliteral
                0x0000000080808388       0x34 cmd/built-in.o
 .text.parse_integer
                0x00000000808083bc       0x44 cmd/built-in.o
 .text.do_get_any
                0x0000000080808400       0x2c cmd/built-in.o
 .text.do_get_fat
                0x000000008080842c       0x28 cmd/built-in.o
 .text.do_get_ext2
                0x0000000080808454       0x28 cmd/built-in.o
 .text.format_mac_pxe.constprop.6
                0x000000008080847c       0x54 cmd/built-in.o
 .text.get_relfile
                0x00000000808084d0       0xcc cmd/built-in.o
 .text.get_pxe_file
                0x000000008080859c       0x3c cmd/built-in.o
 .text.handle_include
                0x00000000808085d8       0x68 cmd/built-in.o
 .text.parse_pxefile_top
                0x0000000080808640      0x340 cmd/built-in.o
 .text.parse_pxefile
                0x0000000080808980       0x42 cmd/built-in.o
 *fill*         0x00000000808089c2        0x2 
 .text.get_pxelinux_path
                0x00000000808089c4       0x50 cmd/built-in.o
 .text.do_pxe_get
                0x0000000080808a14       0xec cmd/built-in.o
 .text.get_relfile_envaddr
                0x0000000080808b00       0x34 cmd/built-in.o
 .text.label_boot
                0x0000000080808b34      0x414 cmd/built-in.o
 .text.handle_pxe_menu
                0x0000000080808f48       0xe8 cmd/built-in.o
 .text.do_pxe_boot
                0x0000000080809030       0x94 cmd/built-in.o
 .text.do_sysboot
                0x00000000808090c4      0x13c cmd/built-in.o
 .text.bytes_per_second
                0x0000000080809200       0x34 cmd/built-in.o
 .text.do_spi_flash
                0x0000000080809234      0x5a8 cmd/built-in.o
 .text.do_spi   0x00000000808097dc      0x1b8 cmd/built-in.o
                0x00000000808097dc                do_spi
 .text.do_time  0x0000000080809994       0x98 cmd/built-in.o
 .text.do_false
                0x0000000080809a2c        0x4 cmd/built-in.o
 .text.do_true  0x0000000080809a30        0x4 cmd/built-in.o
 .text.do_test  0x0000000080809a34      0x208 cmd/built-in.o
 .text.usb_get_class_desc
                0x0000000080809c3c       0x74 cmd/built-in.o
 .text.usb_display_class_sub
                0x0000000080809cb0       0xf4 cmd/built-in.o
 .text.usb_display_desc
                0x0000000080809da4       0xf4 cmd/built-in.o
 .text.usb_show_tree_graph
                0x0000000080809e98      0x178 cmd/built-in.o
 .text.usb_show_subtree
                0x000000008080a010       0x1c cmd/built-in.o
 .text.usb_for_each_root_dev
                0x000000008080a02c       0x3c cmd/built-in.o
 .text.usb_display_string
                0x000000008080a068       0x2c cmd/built-in.o
 .text.usb_display_config
                0x000000008080a094      0x1ac cmd/built-in.o
 .text.usb_show_info
                0x000000008080a240       0x4a cmd/built-in.o
 .text.usb_find_device
                0x000000008080a28a       0x64 cmd/built-in.o
 *fill*         0x000000008080a2ee        0x2 
 .text.do_usbboot
                0x000000008080a2f0        0xc cmd/built-in.o
 .text.do_usb_start
                0x000000008080a2fc       0x20 cmd/built-in.o
 .text.usb_show_tree
                0x000000008080a31c        0xc cmd/built-in.o
                0x000000008080a31c                usb_show_tree
 .text.do_usb   0x000000008080a328      0x298 cmd/built-in.o
 .text.common_diskboot
                0x000000008080a5c0      0x184 cmd/built-in.o
                0x000000008080a5c0                common_diskboot
 .text.do_fastboot
                0x000000008080a744      0x128 cmd/built-in.o
 .text.do_imgextract
                0x000000008080a86c      0x1b4 cmd/built-in.o
 .text.do_spl   0x000000008080aa20      0x144 cmd/built-in.o
 .text.do_dfu   0x000000008080ab64       0x54 cmd/built-in.o
 .text.extract_val
                0x000000008080abb8       0x5c cmd/built-in.o
 .text.extract_env
                0x000000008080ac14       0xa0 cmd/built-in.o
 .text.set_gpt_info.isra.0.constprop.1
                0x000000008080acb4      0x34c cmd/built-in.o
 .text.do_gpt   0x000000008080b000      0x214 cmd/built-in.o
 .text.do_env_delete
                0x000000008080b214       0x68 cmd/built-in.o
 .text.do_env_exists
                0x000000008080b27c       0x40 cmd/built-in.o
 .text._do_env_set
                0x000000008080b2bc      0x13c cmd/built-in.o
 .text.do_env_set
                0x000000008080b3f8       0x16 cmd/built-in.o
 *fill*         0x000000008080b40e        0x2 
 .text.do_env_ask
                0x000000008080b410      0x100 cmd/built-in.o
                0x000000008080b410                do_env_ask
 .text.do_env_save
                0x000000008080b510        0xe cmd/built-in.o
 *fill*         0x000000008080b51e        0x2 
 .text.do_env   0x000000008080b520       0x3c cmd/built-in.o
 .text.env_print
                0x000000008080b55c       0x78 cmd/built-in.o
 .text.do_env_print
                0x000000008080b5d4       0x8c cmd/built-in.o
 .text.do_env_import
                0x000000008080b660      0x1d4 cmd/built-in.o
 .text.do_env_default
                0x000000008080b834       0x58 cmd/built-in.o
 .text.env_get_id
                0x000000008080b88c        0xc cmd/built-in.o
                0x000000008080b88c                env_get_id
 .text.env_set  0x000000008080b898       0x44 cmd/built-in.o
                0x000000008080b898                env_set
 .text.env_set_ulong
                0x000000008080b8dc       0x16 cmd/built-in.o
                0x000000008080b8dc                env_set_ulong
 *fill*         0x000000008080b8f2        0x2 
 .text.env_set_hex
                0x000000008080b8f4       0x20 cmd/built-in.o
                0x000000008080b8f4                env_set_hex
 .text.do_env_export
                0x000000008080b914      0x158 cmd/built-in.o
 .text.env_match
                0x000000008080ba6c       0x46 cmd/built-in.o
                0x000000008080ba6c                env_match
 *fill*         0x000000008080bab2        0x2 
 .text.env_get_f
                0x000000008080bab4       0x98 cmd/built-in.o
                0x000000008080bab4                env_get_f
 .text.env_get  0x000000008080bb4c       0x50 cmd/built-in.o
                0x000000008080bb4c                env_get
 .text.env_get_hex
                0x000000008080bb9c       0x22 cmd/built-in.o
                0x000000008080bb9c                env_get_hex
 .text.eth_env_get_enetaddr
                0x000000008080bbbe       0x34 cmd/built-in.o
                0x000000008080bbbe                eth_env_get_enetaddr
 *fill*         0x000000008080bbf2        0x2 
 .text.eth_env_set_enetaddr
                0x000000008080bbf4       0x30 cmd/built-in.o
                0x000000008080bbf4                eth_env_set_enetaddr
 .text.env_get_ulong
                0x000000008080bc24       0x1c cmd/built-in.o
                0x000000008080bc24                env_get_ulong
 .text.do_env_edit.part.2
                0x000000008080bc40       0x70 cmd/built-in.o
 .text.do_env_edit
                0x000000008080bcb0       0x1c cmd/built-in.o
 .text.board_init_f_alloc_reserve
                0x000000008080bccc        0xa common/built-in.o
                0x000000008080bccc                board_init_f_alloc_reserve
 .text.board_init_f_init_reserve
                0x000000008080bcd6       0x14 common/built-in.o
                0x000000008080bcd6                board_init_f_init_reserve
 .text.show_boot_progress
                0x000000008080bcea        0x4 common/built-in.o
                0x000000008080bcea                show_boot_progress
 *fill*         0x000000008080bcee        0x2 
 .text.main_loop
                0x000000008080bcf0       0x48 common/built-in.o
                0x000000008080bcf0                main_loop
 .text.mdelay   0x000000008080bd38        0xa common/built-in.o
 .text.dummy    0x000000008080bd42        0x2 common/built-in.o
 .text.get_version
                0x000000008080bd44        0x4 common/built-in.o
                0x000000008080bd44                get_version
 .text.jumptable_init
                0x000000008080bd48      0x170 common/built-in.o
                0x000000008080bd48                jumptable_init
 .text.hash_finish_crc32
                0x000000008080beb8       0x1c common/built-in.o
 .text.hash_finish_crc16_ccitt
                0x000000008080bed4       0x1c common/built-in.o
 .text.hash_update_crc32
                0x000000008080bef0       0x14 common/built-in.o
 .text.hash_init_crc32
                0x000000008080bf04       0x14 common/built-in.o
 .text.hash_init_crc16_ccitt
                0x000000008080bf18       0x14 common/built-in.o
 .text.hash_update_crc16_ccitt
                0x000000008080bf2c       0x14 common/built-in.o
 .text.hash_finish_sha256
                0x000000008080bf40       0x22 common/built-in.o
 .text.hash_update_sha256
                0x000000008080bf62       0x10 common/built-in.o
 .text.hash_init_sha256
                0x000000008080bf72       0x16 common/built-in.o
 .text.hash_finish_sha1
                0x000000008080bf88       0x22 common/built-in.o
 .text.hash_update_sha1
                0x000000008080bfaa       0x10 common/built-in.o
 .text.hash_init_sha1
                0x000000008080bfba       0x16 common/built-in.o
 .text.hash_lookup_algo
                0x000000008080bfd0       0x38 common/built-in.o
                0x000000008080bfd0                hash_lookup_algo
 .text.hash_progressive_lookup_algo
                0x000000008080c008       0x3c common/built-in.o
                0x000000008080c008                hash_progressive_lookup_algo
 .text.hash_command
                0x000000008080c044      0x12c common/built-in.o
                0x000000008080c044                hash_command
 .text.b_reset  0x000000008080c170        0xe common/built-in.o
 .text.static_get
                0x000000008080c17e       0x12 common/built-in.o
 .text.static_peek
                0x000000008080c190        0x6 common/built-in.o
 *fill*         0x000000008080c196        0x2 
 .text.mapset   0x000000008080c198       0x14 common/built-in.o
 .text.syntax_err
                0x000000008080c1ac        0xc common/built-in.o
 .text.free_pipe_list
                0x000000008080c1b8       0x8e common/built-in.o
 *fill*         0x000000008080c246        0x2 
 .text.xmalloc  0x000000008080c248       0x18 common/built-in.o
 .text.new_pipe
                0x000000008080c260       0x16 common/built-in.o
 *fill*         0x000000008080c276        0x2 
 .text.xrealloc
                0x000000008080c278       0x18 common/built-in.o
 .text.done_command
                0x000000008080c290       0x42 common/built-in.o
 .text.done_pipe
                0x000000008080c2d2       0x2c common/built-in.o
 *fill*         0x000000008080c2fe        0x2 
 .text.done_word
                0x000000008080c300      0x1c0 common/built-in.o
 .text.is_assignment
                0x000000008080c4c0       0x2c common/built-in.o
 .text.file_get
                0x000000008080c4ec      0x140 common/built-in.o
 .text.do_showvar
                0x000000008080c62c       0x9c common/built-in.o
 .text.b_addchr
                0x000000008080c6c8       0x42 common/built-in.o
 *fill*         0x000000008080c70a        0x2 
 .text.b_addqchr
                0x000000008080c70c       0x30 common/built-in.o
 .text.file_peek
                0x000000008080c73c        0x6 common/built-in.o
 *fill*         0x000000008080c742        0x2 
 .text.get_local_var
                0x000000008080c744       0x58 common/built-in.o
                0x000000008080c744                get_local_var
 .text.set_local_var
                0x000000008080c79c      0x10c common/built-in.o
                0x000000008080c79c                set_local_var
 .text.insert_var_value_sub
                0x000000008080c8a8      0x1c4 common/built-in.o
 .text.parse_string_outer
                0x000000008080ca6c       0x90 common/built-in.o
                0x000000008080ca6c                parse_string_outer
 .text.run_list_real
                0x000000008080cafc      0x4e8 common/built-in.o
 .text.parse_stream_outer
                0x000000008080cfe4      0x42c common/built-in.o
 .text.parse_file_outer
                0x000000008080d410       0x2c common/built-in.o
                0x000000008080d410                parse_file_outer
 .text.u_boot_hush_start
                0x000000008080d43c       0x30 common/built-in.o
                0x000000008080d43c                u_boot_hush_start
 .text.bootdelay_process
                0x000000008080d46c       0xfc common/built-in.o
                0x000000008080d46c                bootdelay_process
 .text.autoboot_command
                0x000000008080d568      0x164 common/built-in.o
                0x000000008080d568                autoboot_command
 .text.log_init
                0x000000008080d6cc        0x8 common/built-in.o
 .text.display_text_info
                0x000000008080d6d4        0x4 common/built-in.o
 .text.setup_mon_len
                0x000000008080d6d8       0x18 common/built-in.o
 .text.arch_cpu_init
                0x000000008080d6f0        0x4 common/built-in.o
                0x000000008080d6f0                arch_cpu_init
 .text.reserve_round_4k
                0x000000008080d6f4       0x14 common/built-in.o
 .text.reserve_mmu
                0x000000008080d708       0x2e common/built-in.o
                0x000000008080d708                reserve_mmu
 .text.reserve_uboot
                0x000000008080d736       0x30 common/built-in.o
 .text.reserve_malloc
                0x000000008080d766       0x14 common/built-in.o
 .text.setup_machine
                0x000000008080d77a        0xe common/built-in.o
 .text.reserve_global_data
                0x000000008080d788       0x16 common/built-in.o
 .text.reserve_fdt
                0x000000008080d79e       0x3a common/built-in.o
 .text.setup_reloc
                0x000000008080d7d8       0x26 common/built-in.o
 .text.reloc_fdt
                0x000000008080d7fe       0x2c common/built-in.o
 .text.reserve_board
                0x000000008080d82a       0x28 common/built-in.o
 *fill*         0x000000008080d852        0x2 
 .text.announce_dram_init
                0x000000008080d854       0x10 common/built-in.o
 .text.init_baud_rate
                0x000000008080d864       0x1c common/built-in.o
 .text.initf_dm
                0x000000008080d880        0x6 common/built-in.o
 .text.initf_bootstage
                0x000000008080d886        0xc common/built-in.o
 .text.setup_spl_handoff
                0x000000008080d892        0x4 common/built-in.o
 .text.mach_cpu_init
                0x000000008080d896        0x4 common/built-in.o
                0x000000008080d896                mach_cpu_init
 .text.reserve_video
                0x000000008080d89a        0x4 common/built-in.o
 .text.reserve_trace
                0x000000008080d89e        0x4 common/built-in.o
 .text.reserve_bootstage
                0x000000008080d8a2        0x4 common/built-in.o
 .text.reserve_bloblist
                0x000000008080d8a6        0x4 common/built-in.o
 .text.display_new_sp
                0x000000008080d8aa        0x4 common/built-in.o
 .text.reloc_bootstage
                0x000000008080d8ae        0x4 common/built-in.o
 .text.reloc_bloblist
                0x000000008080d8b2        0x4 common/built-in.o
 .text.initf_console_record
                0x000000008080d8b6        0x4 common/built-in.o
 .text.reserve_arch
                0x000000008080d8ba        0x4 common/built-in.o
                0x000000008080d8ba                reserve_arch
 .text.coloured_LED_init
                0x000000008080d8be        0x2 common/built-in.o
                0x000000008080d8be                coloured_LED_init
 .text.red_led_on
                0x000000008080d8c0        0x2 common/built-in.o
                0x000000008080d8c0                red_led_on
 .text.board_add_ram_info
                0x000000008080d8c2        0x2 common/built-in.o
                0x000000008080d8c2                board_add_ram_info
 .text.show_dram_config
                0x000000008080d8c4       0x38 common/built-in.o
 .text.board_get_usable_ram_top
                0x000000008080d8fc       0x10 common/built-in.o
                0x000000008080d8fc                board_get_usable_ram_top
 .text.setup_dest_addr
                0x000000008080d90c       0x30 common/built-in.o
 .text.reserve_stacks
                0x000000008080d93c       0x1a common/built-in.o
 *fill*         0x000000008080d956        0x2 
 .text.board_init_f
                0x000000008080d958       0x48 common/built-in.o
                0x000000008080d958                board_init_f
 .text.initr_trace
                0x000000008080d9a0        0x4 common/built-in.o
 .text.initr_reloc
                0x000000008080d9a4       0x14 common/built-in.o
 .text.run_main_loop
                0x000000008080d9b8        0x8 common/built-in.o
 .text.initr_net
                0x000000008080d9c0       0x14 common/built-in.o
 .text.initr_ethaddr
                0x000000008080d9d4       0x18 common/built-in.o
 .text.initr_enable_interrupts
                0x000000008080d9ec        0xa common/built-in.o
 .text.initr_jumptable
                0x000000008080d9f6        0xa common/built-in.o
 .text.initr_env
                0x000000008080da00       0x48 common/built-in.o
 .text.initr_mmc
                0x000000008080da48       0x18 common/built-in.o
 .text.initr_serial
                0x000000008080da60        0xa common/built-in.o
 .text.initr_dm
                0x000000008080da6a       0x16 common/built-in.o
 .text.initr_bootstage
                0x000000008080da80        0xc common/built-in.o
 .text.initr_malloc
                0x000000008080da8c       0x1c common/built-in.o
 .text.initr_reloc_global_data
                0x000000008080daa8       0x38 common/built-in.o
 .text.initr_caches
                0x000000008080dae0        0xa common/built-in.o
 .text.bootstage_relocate
                0x000000008080daea        0x4 common/built-in.o
 .text.initr_barrier
                0x000000008080daee        0x4 common/built-in.o
 .text.initr_console_record
                0x000000008080daf2        0x4 common/built-in.o
 .text.power_init_board
                0x000000008080daf6        0x4 common/built-in.o
                0x000000008080daf6                power_init_board
 .text.initr_announce
                0x000000008080dafa        0x4 common/built-in.o
 .text.cpu_secondary_init_r
                0x000000008080dafe        0x2 common/built-in.o
                0x000000008080dafe                cpu_secondary_init_r
 .text.initr_secondary_cpu
                0x000000008080db00        0xa common/built-in.o
 *fill*         0x000000008080db0a        0x2 
 .text.board_init_r
                0x000000008080db0c       0x48 common/built-in.o
                0x000000008080db0c                board_init_r
 .text.checkboard
                0x000000008080db54        0x4 common/built-in.o
                0x000000008080db54                checkboard
 .text.show_board_info
                0x000000008080db58       0x2c common/built-in.o
                0x000000008080db58                show_board_info
 .text.bootm_find_images
                0x000000008080db84       0x88 common/built-in.o
                0x000000008080db84                bootm_find_images
 .text.bootm_disable_interrupts
                0x000000008080dc0c       0x10 common/built-in.o
                0x000000008080dc0c                bootm_disable_interrupts
 .text.do_bootm_states
                0x000000008080dc1c      0x568 common/built-in.o
                0x000000008080dc1c                do_bootm_states
 .text.switch_to_non_secure_mode
                0x000000008080e184        0x2 common/built-in.o
                0x000000008080e184                switch_to_non_secure_mode
 .text.copy_args
                0x000000008080e186       0x38 common/built-in.o
 *fill*         0x000000008080e1be        0x2 
 .text.do_bootm_rtems
                0x000000008080e1c0       0x4c common/built-in.o
 .text.do_bootm_vxworks
                0x000000008080e20c       0xf8 common/built-in.o
                0x000000008080e20c                do_bootm_vxworks
 .text.do_bootm_plan9
                0x000000008080e304       0x88 common/built-in.o
 .text.do_bootm_standalone
                0x000000008080e38c       0x40 common/built-in.o
 .text.do_bootm_qnxelf
                0x000000008080e3cc       0x70 common/built-in.o
 .text.do_bootm_netbsd
                0x000000008080e43c       0xc4 common/built-in.o
 .text.arch_preboot_os
                0x000000008080e500        0x2 common/built-in.o
                0x000000008080e500                arch_preboot_os
 .text.board_preboot_os
                0x000000008080e502        0x2 common/built-in.o
                0x000000008080e502                board_preboot_os
 .text.boot_selected_os
                0x000000008080e504       0x3e common/built-in.o
                0x000000008080e504                boot_selected_os
 *fill*         0x000000008080e542        0x2 
 .text.bootm_os_get_boot_func
                0x000000008080e544        0xc common/built-in.o
                0x000000008080e544                bootm_os_get_boot_func
 .text.of_bus_default_map
                0x000000008080e550       0x80 common/built-in.o
 .text.of_bus_default_translate
                0x000000008080e5d0       0x68 common/built-in.o
 .text.fdt_support_default_count_cells
                0x000000008080e638       0x34 common/built-in.o
                0x000000008080e638                fdt_support_default_count_cells
 .text.__of_translate_address
                0x000000008080e66c      0x170 common/built-in.o
 .text.fdt_find_and_setprop
                0x000000008080e7dc       0x46 common/built-in.o
                0x000000008080e7dc                fdt_find_and_setprop
 *fill*         0x000000008080e822        0x2 
 .text.fdt_find_or_add_subnode
                0x000000008080e824       0x40 common/built-in.o
                0x000000008080e824                fdt_find_or_add_subnode
 .text.fdt_root
                0x000000008080e864       0x60 common/built-in.o
                0x000000008080e864                fdt_root
 .text.fdt_initrd
                0x000000008080e8c4      0x134 common/built-in.o
                0x000000008080e8c4                fdt_initrd
 .text.fdt_chosen
                0x000000008080e9f8       0x6c common/built-in.o
                0x000000008080e9f8                fdt_chosen
 .text.do_fixup_by_path
                0x000000008080ea64       0x34 common/built-in.o
                0x000000008080ea64                do_fixup_by_path
 .text.fdt_fixup_memory_banks
                0x000000008080ea98      0x164 common/built-in.o
                0x000000008080ea98                fdt_fixup_memory_banks
 .text.fdt_fixup_memory
                0x000000008080ebfc       0x16 common/built-in.o
                0x000000008080ebfc                fdt_fixup_memory
 *fill*         0x000000008080ec12        0x2 
 .text.fdt_fixup_ethernet
                0x000000008080ec14      0x10c common/built-in.o
                0x000000008080ec14                fdt_fixup_ethernet
 .text.fdt_shrink_to_minimum
                0x000000008080ed20       0x8e common/built-in.o
                0x000000008080ed20                fdt_shrink_to_minimum
 *fill*         0x000000008080edae        0x2 
 .text.fdt_translate_address
                0x000000008080edb0        0xc common/built-in.o
                0x000000008080edb0                fdt_translate_address
 .text.fdt_overlay_apply_verbose
                0x000000008080edbc       0x4c common/built-in.o
                0x000000008080edbc                fdt_overlay_apply_verbose
 .text.miiphy_get_dev_by_name
                0x000000008080ee08       0x34 common/built-in.o
                0x000000008080ee08                miiphy_get_dev_by_name
 .text.miiphy_init
                0x000000008080ee3c       0x18 common/built-in.o
                0x000000008080ee3c                miiphy_init
 .text.mdio_alloc
                0x000000008080ee54       0x1c common/built-in.o
                0x000000008080ee54                mdio_alloc
 .text.mdio_free
                0x000000008080ee70        0x4 common/built-in.o
                0x000000008080ee70                mdio_free
 .text.mdio_register
                0x000000008080ee74       0x4c common/built-in.o
                0x000000008080ee74                mdio_register
 .text.mdio_list_devices
                0x000000008080eec0       0x78 common/built-in.o
                0x000000008080eec0                mdio_list_devices
 .text.miiphy_set_current_dev
                0x000000008080ef38       0x28 common/built-in.o
                0x000000008080ef38                miiphy_set_current_dev
 .text.miiphy_get_active_dev
                0x000000008080ef60       0x30 common/built-in.o
 .text.mdio_get_current_dev
                0x000000008080ef90        0xc common/built-in.o
                0x000000008080ef90                mdio_get_current_dev
 .text.mdio_phydev_for_ethname
                0x000000008080ef9c       0x50 common/built-in.o
                0x000000008080ef9c                mdio_phydev_for_ethname
 .text.miiphy_get_current_dev
                0x000000008080efec       0x10 common/built-in.o
                0x000000008080efec                miiphy_get_current_dev
 .text.miiphy_read
                0x000000008080effc       0x28 common/built-in.o
                0x000000008080effc                miiphy_read
 .text.miiphy_write
                0x000000008080f024       0x24 common/built-in.o
                0x000000008080f024                miiphy_write
 .text.miiphy_listdev
                0x000000008080f048       0x54 common/built-in.o
                0x000000008080f048                miiphy_listdev
 .text.miiphy_info
                0x000000008080f09c       0x5c common/built-in.o
                0x000000008080f09c                miiphy_info
 .text.miiphy_is_1000base_x
                0x000000008080f0f8       0x30 common/built-in.o
                0x000000008080f0f8                miiphy_is_1000base_x
 .text.miiphy_speed
                0x000000008080f128       0xb8 common/built-in.o
                0x000000008080f128                miiphy_speed
 .text.miiphy_duplex
                0x000000008080f1e0       0xd0 common/built-in.o
                0x000000008080f1e0                miiphy_duplex
 .text.usb_set_maxpacket_ep
                0x000000008080f2b0       0x56 common/built-in.o
 .text.usb_int_msg
                0x000000008080f306        0xe common/built-in.o
                0x000000008080f306                usb_int_msg
 .text.usb_control_msg
                0x000000008080f314       0x6c common/built-in.o
                0x000000008080f314                usb_control_msg
 .text.usb_get_descriptor
                0x000000008080f380       0x36 common/built-in.o
 *fill*         0x000000008080f3b6        0x2 
 .text.get_descriptor_len
                0x000000008080f3b8       0x60 common/built-in.o
 .text.usb_setup_descriptor
                0x000000008080f418       0x84 common/built-in.o
 .text.usb_get_string
                0x000000008080f49c       0x50 common/built-in.o
 .text.usb_string_sub
                0x000000008080f4ec       0x90 common/built-in.o
 .text.usb_bulk_msg
                0x000000008080f57c       0x4a common/built-in.o
                0x000000008080f57c                usb_bulk_msg
 .text.usb_maxpacket
                0x000000008080f5c6       0x14 common/built-in.o
                0x000000008080f5c6                usb_maxpacket
 .text.usb_clear_halt
                0x000000008080f5da       0x5c common/built-in.o
                0x000000008080f5da                usb_clear_halt
 *fill*         0x000000008080f636        0x2 
 .text.usb_get_configuration_len
                0x000000008080f638       0x50 common/built-in.o
                0x000000008080f638                usb_get_configuration_len
 .text.usb_get_configuration_no
                0x000000008080f688       0x1c common/built-in.o
                0x000000008080f688                usb_get_configuration_no
 .text.usb_set_interface
                0x000000008080f6a4       0x78 common/built-in.o
                0x000000008080f6a4                usb_set_interface
 .text.usb_string
                0x000000008080f71c       0x9c common/built-in.o
                0x000000008080f71c                usb_string
 .text.usb_select_config
                0x000000008080f7b8      0x310 common/built-in.o
                0x000000008080f7b8                usb_select_config
 .text.usb_setup_device
                0x000000008080fac8       0xa4 common/built-in.o
                0x000000008080fac8                usb_setup_device
 .text.usb_device_has_child_on_port
                0x000000008080fb6c        0x4 common/built-in.o
                0x000000008080fb6c                usb_device_has_child_on_port
 .text.usb_find_usb2_hub_address_port
                0x000000008080fb70       0x4c common/built-in.o
                0x000000008080fb70                usb_find_usb2_hub_address_port
 .text.usb_set_port_feature
                0x000000008080fbbc       0x2e common/built-in.o
 .text.usb_clear_port_feature
                0x000000008080fbea       0x2e common/built-in.o
 .text.usb_get_hub_descriptor
                0x000000008080fc18       0x42 common/built-in.o
 .text.usb_hub_reset_devices
                0x000000008080fc5a        0x2 common/built-in.o
                0x000000008080fc5a                usb_hub_reset_devices
 .text.usb_hub_is_root_hub
                0x000000008080fc5c       0x10 common/built-in.o
                0x000000008080fc5c                usb_hub_is_root_hub
 .text.usb_get_port_status
                0x000000008080fc6c       0x70 common/built-in.o
                0x000000008080fc6c                usb_get_port_status
 .text.usb_hub_port_connect_change
                0x000000008080fcdc       0xf4 common/built-in.o
                0x000000008080fcdc                usb_hub_port_connect_change
 .text.usb_hub_configure
                0x000000008080fdd0      0x3f0 common/built-in.o
 .text.usb_hub_scan
                0x00000000808101c0        0xe common/built-in.o
                0x00000000808101c0                usb_hub_scan
 .text.usb_hub_post_probe
                0x00000000808101ce        0x4 common/built-in.o
 .text.usb_stor_irq
                0x00000000808101d2       0x10 common/built-in.o
 *fill*         0x00000000808101e2        0x2 
 .text.usb_stor_BBB_reset
                0x00000000808101e4       0x94 common/built-in.o
 .text.usb_stor_CB_reset
                0x0000000080810278       0x88 common/built-in.o
 .text.usb_stor_BBB_clear_endpt_stall.isra.0
                0x0000000080810300       0x2c common/built-in.o
 .text.usb_stor_BBB_transport
                0x000000008081032c      0x1b0 common/built-in.o
 .text.usb_stor_CB_comdat
                0x00000000808104dc      0x154 common/built-in.o
 .text.usb_stor_CBI_get_status.isra.2
                0x0000000080810630       0x84 common/built-in.o
 .text.usb_stor_CB_transport
                0x00000000808106b4      0x154 common/built-in.o
 .text.usb_request_sense.constprop.11
                0x0000000080810808       0x4c common/built-in.o
 .text.usb_stor_read
                0x0000000080810854       0xec common/built-in.o
 .text.usb_stor_write
                0x0000000080810940       0xec common/built-in.o
 .text.usb_stor_info
                0x0000000080810a2c       0x48 common/built-in.o
                0x0000000080810a2c                usb_stor_info
 .text.usb_stor_reset
                0x0000000080810a74        0xc common/built-in.o
                0x0000000080810a74                usb_stor_reset
 .text.usb_stor_scan
                0x0000000080810a80       0x30 common/built-in.o
                0x0000000080810a80                usb_stor_scan
 .text.usb_storage_probe
                0x0000000080810ab0      0x180 common/built-in.o
                0x0000000080810ab0                usb_storage_probe
 .text.usb_stor_get_info
                0x0000000080810c30      0x224 common/built-in.o
                0x0000000080810c30                usb_stor_get_info
 .text.usb_mass_storage_probe
                0x0000000080810e54       0xfc common/built-in.o
 .text.menu_display_statusline
                0x0000000080810f50        0x2 common/built-in.o
                0x0000000080810f50                menu_display_statusline
 .text.menu_default_set
                0x0000000080810f52       0x4a common/built-in.o
                0x0000000080810f52                menu_default_set
 .text.menu_get_choice
                0x0000000080810f9c      0x128 common/built-in.o
                0x0000000080810f9c                menu_get_choice
 .text.menu_item_add
                0x00000000808110c4       0x84 common/built-in.o
                0x00000000808110c4                menu_item_add
 .text.menu_create
                0x0000000080811148       0x54 common/built-in.o
                0x0000000080811148                menu_create
 .text.menu_destroy
                0x000000008081119c       0x44 common/built-in.o
                0x000000008081119c                menu_destroy
 .text.delete_char.part.0
                0x00000000808111e0       0x88 common/built-in.o
 .text.cread_add_char
                0x0000000080811268       0x80 common/built-in.o
 .text.cli_readline_into_buffer
                0x00000000808112e8      0x658 common/built-in.o
                0x00000000808112e8                cli_readline_into_buffer
 .text.cli_readline
                0x0000000080811940       0x10 common/built-in.o
                0x0000000080811940                cli_readline
 .text.cli_simple_process_macros
                0x0000000080811950      0x124 common/built-in.o
                0x0000000080811950                cli_simple_process_macros
 .text.console_setfile
                0x0000000080811a74       0x74 common/built-in.o
 .text.fgetc.part.0
                0x0000000080811ae8       0x24 common/built-in.o
 .text.getc     0x0000000080811b0c       0x1a common/built-in.o
                0x0000000080811b0c                getc
 *fill*         0x0000000080811b26        0x2 
 .text.ftstc    0x0000000080811b28       0x18 common/built-in.o
                0x0000000080811b28                ftstc
 .text.tstc     0x0000000080811b40       0x1a common/built-in.o
                0x0000000080811b40                tstc
 *fill*         0x0000000080811b5a        0x2 
 .text.fputc    0x0000000080811b5c       0x14 common/built-in.o
                0x0000000080811b5c                fputc
 .text.putc     0x0000000080811b70       0x22 common/built-in.o
                0x0000000080811b70                putc
 *fill*         0x0000000080811b92        0x2 
 .text.fputs    0x0000000080811b94       0x14 common/built-in.o
                0x0000000080811b94                fputs
 .text.puts     0x0000000080811ba8       0x22 common/built-in.o
                0x0000000080811ba8                puts
 *fill*         0x0000000080811bca        0x2 
 .text.ctrlc    0x0000000080811bcc       0x38 common/built-in.o
                0x0000000080811bcc                ctrlc
 .text.disable_ctrlc
                0x0000000080811c04       0x10 common/built-in.o
                0x0000000080811c04                disable_ctrlc
 .text.had_ctrlc
                0x0000000080811c14        0xc common/built-in.o
                0x0000000080811c14                had_ctrlc
 .text.clear_ctrlc
                0x0000000080811c20        0xc common/built-in.o
                0x0000000080811c20                clear_ctrlc
 .text.search_device
                0x0000000080811c2c       0x16 common/built-in.o
                0x0000000080811c2c                search_device
 .text.console_assign
                0x0000000080811c42       0x2a common/built-in.o
                0x0000000080811c42                console_assign
 .text.on_console
                0x0000000080811c6c       0x6c common/built-in.o
 .text.console_init_f
                0x0000000080811cd8        0xa common/built-in.o
                0x0000000080811cd8                console_init_f
 *fill*         0x0000000080811ce2        0x2 
 .text.console_init_r
                0x0000000080811ce4       0x8c common/built-in.o
                0x0000000080811ce4                console_init_r
 .text.sbrk     0x0000000080811d70       0x40 common/built-in.o
                0x0000000080811d70                sbrk
 .text.mem_malloc_init
                0x0000000080811db0       0x28 common/built-in.o
                0x0000000080811db0                mem_malloc_init
 .text.malloc_trim
                0x0000000080811dd8       0x84 common/built-in.o
                0x0000000080811dd8                malloc_trim
 .text.free     0x0000000080811e5c      0x164 common/built-in.o
                0x0000000080811e5c                free
 .text.malloc   0x0000000080811fc0      0x420 common/built-in.o
                0x0000000080811fc0                malloc
 .text.calloc   0x00000000808123e0       0xb4 common/built-in.o
                0x00000000808123e0                calloc
 .text.realloc  0x0000000080812494      0x2d0 common/built-in.o
                0x0000000080812494                realloc
 .text.memalign
                0x0000000080812764      0x116 common/built-in.o
                0x0000000080812764                memalign
 .text.initf_malloc
                0x000000008081287a       0x14 common/built-in.o
                0x000000008081287a                initf_malloc
 .text.alloc_simple
                0x000000008081288e       0x36 common/built-in.o
 .text.malloc_simple
                0x00000000808128c4        0x6 common/built-in.o
                0x00000000808128c4                malloc_simple
 .text.memalign_simple
                0x00000000808128ca        0xa common/built-in.o
                0x00000000808128ca                memalign_simple
 .text.on_loadaddr
                0x00000000808128d4       0x20 common/built-in.o
 .text.image_multi_count
                0x00000000808128f4       0x12 common/built-in.o
                0x00000000808128f4                image_multi_count
 .text.image_multi_getimg
                0x0000000080812906       0x4a common/built-in.o
                0x0000000080812906                image_multi_getimg
 .text.env_get_bootm_low
                0x0000000080812950       0x20 common/built-in.o
                0x0000000080812950                env_get_bootm_low
 .text.env_get_bootm_size
                0x0000000080812970       0x44 common/built-in.o
                0x0000000080812970                env_get_bootm_size
 .text.env_get_bootm_mapsize
                0x00000000808129b4       0x20 common/built-in.o
                0x00000000808129b4                env_get_bootm_mapsize
 .text.memmove_wd
                0x00000000808129d4        0xa common/built-in.o
                0x00000000808129d4                memmove_wd
 *fill*         0x00000000808129de        0x2 
 .text.genimg_print_size
                0x00000000808129e0       0x24 common/built-in.o
                0x00000000808129e0                genimg_print_size
 .text.genimg_print_time
                0x0000000080812a04       0x30 common/built-in.o
                0x0000000080812a04                genimg_print_time
 .text.get_table_entry
                0x0000000080812a34       0x12 common/built-in.o
                0x0000000080812a34                get_table_entry
 .text.get_table_entry_name
                0x0000000080812a46       0x12 common/built-in.o
                0x0000000080812a46                get_table_entry_name
 .text.genimg_get_os_name
                0x0000000080812a58       0x14 common/built-in.o
                0x0000000080812a58                genimg_get_os_name
 .text.genimg_get_arch_name
                0x0000000080812a6c       0x14 common/built-in.o
                0x0000000080812a6c                genimg_get_arch_name
 .text.genimg_get_type_name
                0x0000000080812a80       0x14 common/built-in.o
                0x0000000080812a80                genimg_get_type_name
 .text.image_decomp
                0x0000000080812a94       0xb0 common/built-in.o
                0x0000000080812a94                image_decomp
 .text.genimg_get_comp_name
                0x0000000080812b44       0x14 common/built-in.o
                0x0000000080812b44                genimg_get_comp_name
 .text.get_table_entry_id
                0x0000000080812b58       0x26 common/built-in.o
                0x0000000080812b58                get_table_entry_id
 *fill*         0x0000000080812b7e        0x2 
 .text.genimg_get_os_id
                0x0000000080812b80       0x14 common/built-in.o
                0x0000000080812b80                genimg_get_os_id
 .text.genimg_get_arch_id
                0x0000000080812b94       0x14 common/built-in.o
                0x0000000080812b94                genimg_get_arch_id
 .text.genimg_get_type_id
                0x0000000080812ba8       0x14 common/built-in.o
                0x0000000080812ba8                genimg_get_type_id
 .text.genimg_get_comp_id
                0x0000000080812bbc       0x14 common/built-in.o
                0x0000000080812bbc                genimg_get_comp_id
 .text.genimg_get_kernel_addr_fit
                0x0000000080812bd0       0x3c common/built-in.o
                0x0000000080812bd0                genimg_get_kernel_addr_fit
 .text.genimg_get_kernel_addr
                0x0000000080812c0c       0x18 common/built-in.o
                0x0000000080812c0c                genimg_get_kernel_addr
 .text.genimg_get_format
                0x0000000080812c24       0x1e common/built-in.o
                0x0000000080812c24                genimg_get_format
 .text.genimg_has_config
                0x0000000080812c42        0xa common/built-in.o
                0x0000000080812c42                genimg_has_config
 .text.boot_get_ramdisk
                0x0000000080812c4c      0x1a4 common/built-in.o
                0x0000000080812c4c                boot_get_ramdisk
 .text.boot_ramdisk_high
                0x0000000080812df0       0xc4 common/built-in.o
                0x0000000080812df0                boot_ramdisk_high
 .text.boot_get_setup
                0x0000000080812eb4        0x4 common/built-in.o
                0x0000000080812eb4                boot_get_setup
 .text.boot_get_loadable
                0x0000000080812eb8       0xe8 common/built-in.o
                0x0000000080812eb8                boot_get_loadable
 .text.image_setup_linux
                0x0000000080812fa0       0x3e common/built-in.o
                0x0000000080812fa0                image_setup_linux
 *fill*         0x0000000080812fde        0x2 
 .text.android_image_get_kernel
                0x0000000080812fe0      0x190 common/built-in.o
                0x0000000080812fe0                android_image_get_kernel
 .text.android_image_check_header
                0x0000000080813170       0x10 common/built-in.o
                0x0000000080813170                android_image_check_header
 .text.android_image_get_end
                0x0000000080813180       0x78 common/built-in.o
                0x0000000080813180                android_image_get_end
 .text.android_image_get_kload
                0x00000000808131f8       0x40 common/built-in.o
                0x00000000808131f8                android_image_get_kload
 .text.android_image_get_kcomp
                0x0000000080813238       0x40 common/built-in.o
                0x0000000080813238                android_image_get_kcomp
 .text.android_image_get_ramdisk
                0x0000000080813278       0xc4 common/built-in.o
                0x0000000080813278                android_image_get_ramdisk
 .text.android_image_get_second
                0x000000008081333c       0xe8 common/built-in.o
                0x000000008081333c                android_image_get_second
 .text.android_print_contents
                0x0000000080813424      0x1a4 common/built-in.o
                0x0000000080813424                android_print_contents
 .text.fdt_error
                0x00000000808135c8       0x24 common/built-in.o
 .text.boot_fdt_add_mem_rsv_regions
                0x00000000808135ec       0xf4 common/built-in.o
                0x00000000808135ec                boot_fdt_add_mem_rsv_regions
 .text.boot_relocate_fdt
                0x00000000808136e0      0x114 common/built-in.o
                0x00000000808136e0                boot_relocate_fdt
 .text.boot_get_fdt
                0x00000000808137f4      0x1d4 common/built-in.o
                0x00000000808137f4                boot_get_fdt
 .text.ft_verify_fdt
                0x00000000808139c8        0x4 common/built-in.o
                0x00000000808139c8                ft_verify_fdt
 .text.image_setup_libfdt
                0x00000000808139cc       0xb0 common/built-in.o
                0x00000000808139cc                image_setup_libfdt
 .text.fit_image_get_address
                0x0000000080813a7c       0x3c common/built-in.o
 .text.fit_parse_conf
                0x0000000080813ab8       0x3a common/built-in.o
                0x0000000080813ab8                fit_parse_conf
 .text.fit_parse_subimage
                0x0000000080813af2       0x3a common/built-in.o
                0x0000000080813af2                fit_parse_subimage
 .text.fit_get_desc
                0x0000000080813b2c       0x20 common/built-in.o
                0x0000000080813b2c                fit_get_desc
 .text.fit_get_timestamp
                0x0000000080813b4c       0x30 common/built-in.o
                0x0000000080813b4c                fit_get_timestamp
 .text.fit_image_get_node
                0x0000000080813b7c       0x24 common/built-in.o
                0x0000000080813b7c                fit_image_get_node
 .text.fit_image_get_os
                0x0000000080813ba0       0x28 common/built-in.o
                0x0000000080813ba0                fit_image_get_os
 .text.fit_image_get_arch
                0x0000000080813bc8       0x28 common/built-in.o
                0x0000000080813bc8                fit_image_get_arch
 .text.fit_image_get_type
                0x0000000080813bf0       0x28 common/built-in.o
                0x0000000080813bf0                fit_image_get_type
 .text.fit_image_get_comp
                0x0000000080813c18       0x28 common/built-in.o
                0x0000000080813c18                fit_image_get_comp
 .text.fit_image_get_load
                0x0000000080813c40        0xc common/built-in.o
                0x0000000080813c40                fit_image_get_load
 .text.fit_image_get_entry
                0x0000000080813c4c        0xc common/built-in.o
                0x0000000080813c4c                fit_image_get_entry
 .text.fit_image_get_data
                0x0000000080813c58       0x28 common/built-in.o
                0x0000000080813c58                fit_image_get_data
 .text.fit_image_get_data_offset
                0x0000000080813c80       0x24 common/built-in.o
                0x0000000080813c80                fit_image_get_data_offset
 .text.fit_image_get_data_position
                0x0000000080813ca4       0x24 common/built-in.o
                0x0000000080813ca4                fit_image_get_data_position
 .text.fit_image_get_data_size
                0x0000000080813cc8       0x24 common/built-in.o
                0x0000000080813cc8                fit_image_get_data_size
 .text.fit_image_get_data_and_size
                0x0000000080813cec       0x54 common/built-in.o
                0x0000000080813cec                fit_image_get_data_and_size
 .text.fit_image_hash_get_algo
                0x0000000080813d40       0x20 common/built-in.o
                0x0000000080813d40                fit_image_hash_get_algo
 .text.fit_image_hash_get_value
                0x0000000080813d60       0x28 common/built-in.o
                0x0000000080813d60                fit_image_hash_get_value
 .text.fit_image_print_data
                0x0000000080813d88      0x128 common/built-in.o
 .text.fit_image_print_verification_data
                0x0000000080813eb0       0x60 common/built-in.o
 .text.fit_image_print
                0x0000000080813f10      0x228 common/built-in.o
                0x0000000080813f10                fit_image_print
 .text.fit_print_contents
                0x0000000080814138      0x2f0 common/built-in.o
                0x0000000080814138                fit_print_contents
 .text.fit_get_end
                0x0000000080814428        0x8 common/built-in.o
                0x0000000080814428                fit_get_end
 .text.calculate_hash
                0x0000000080814430       0xa8 common/built-in.o
                0x0000000080814430                calculate_hash
 .text.fit_image_verify_with_data
                0x00000000808144d8      0x1ac common/built-in.o
                0x00000000808144d8                fit_image_verify_with_data
 .text.fit_image_verify
                0x0000000080814684       0x50 common/built-in.o
                0x0000000080814684                fit_image_verify
 .text.fit_all_image_verify
                0x00000000808146d4       0xa8 common/built-in.o
                0x00000000808146d4                fit_all_image_verify
 .text.fit_image_check_os
                0x000000008081477c       0x20 common/built-in.o
                0x000000008081477c                fit_image_check_os
 .text.fit_image_check_arch
                0x000000008081479c       0x2c common/built-in.o
                0x000000008081479c                fit_image_check_arch
 .text.fit_image_check_type
                0x00000000808147c8       0x20 common/built-in.o
                0x00000000808147c8                fit_image_check_type
 .text.fit_image_check_comp
                0x00000000808147e8       0x20 common/built-in.o
                0x00000000808147e8                fit_image_check_comp
 .text.fit_check_format
                0x0000000080814808       0x40 common/built-in.o
                0x0000000080814808                fit_check_format
 .text.fit_conf_get_node
                0x0000000080814848       0x7c common/built-in.o
                0x0000000080814848                fit_conf_get_node
 .text.fit_conf_get_prop_node_index
                0x00000000808148c4       0x20 common/built-in.o
                0x00000000808148c4                fit_conf_get_prop_node_index
 .text.fit_conf_get_prop_node
                0x00000000808148e4        0x6 common/built-in.o
                0x00000000808148e4                fit_conf_get_prop_node
 .text.fit_get_node_from_config
                0x00000000808148ea       0x2a common/built-in.o
                0x00000000808148ea                fit_get_node_from_config
 .text.fit_image_load
                0x0000000080814914      0x474 common/built-in.o
                0x0000000080814914                fit_image_load
 .text.boot_get_setup_fit
                0x0000000080814d88       0x40 common/built-in.o
                0x0000000080814d88                boot_get_setup_fit
 .text.boot_get_fdt_fit
                0x0000000080814dc8      0x1e4 common/built-in.o
                0x0000000080814dc8                boot_get_fdt_fit
 .text.rsa_sign
                0x0000000080814fac        0x6 common/built-in.o
 .text.rsa_add_verify_data
                0x0000000080814fb2        0x6 common/built-in.o
 .text.image_get_checksum_algo
                0x0000000080814fb8       0x4c common/built-in.o
                0x0000000080814fb8                image_get_checksum_algo
 .text.image_get_crypto_algo
                0x0000000080815004       0x38 common/built-in.o
                0x0000000080815004                image_get_crypto_algo
 .text.image_get_padding_algo
                0x000000008081503c       0x20 common/built-in.o
                0x000000008081503c                image_get_padding_algo
 .text.fit_image_setup_verify
                0x000000008081505c       0xd4 common/built-in.o
 .text.fit_region_make_list
                0x0000000080815130       0x36 common/built-in.o
                0x0000000080815130                fit_region_make_list
 *fill*         0x0000000080815166        0x2 
 .text.fit_image_check_sig
                0x0000000080815168       0x68 common/built-in.o
                0x0000000080815168                fit_image_check_sig
 .text.fit_image_verify_required_sigs
                0x00000000808151d0      0x144 common/built-in.o
                0x00000000808151d0                fit_image_verify_required_sigs
 .text.fit_config_check_sig
                0x0000000080815314      0x1ac common/built-in.o
                0x0000000080815314                fit_config_check_sig
 .text.fit_config_verify_required_sigs
                0x00000000808154c0      0x120 common/built-in.o
                0x00000000808154c0                fit_config_verify_required_sigs
 .text.fit_config_verify
                0x00000000808155e0        0x8 common/built-in.o
                0x00000000808155e0                fit_config_verify
 .text.get_ram_size
                0x00000000808155e8       0x94 common/built-in.o
                0x00000000808155e8                get_ram_size
 .text.get_effective_memsize
                0x000000008081567c        0x6 common/built-in.o
                0x000000008081567c                get_effective_memsize
 .text.stdio_serial_tstc
                0x0000000080815682        0x4 common/built-in.o
 .text.stdio_serial_getc
                0x0000000080815686        0x4 common/built-in.o
 .text.stdio_serial_puts
                0x000000008081568a        0x6 common/built-in.o
 .text.stdio_serial_putc
                0x0000000080815690        0x6 common/built-in.o
 *fill*         0x0000000080815696        0x2 
 .text.stdio_get_list
                0x0000000080815698        0x8 common/built-in.o
                0x0000000080815698                stdio_get_list
 .text.stdio_get_by_name
                0x00000000808156a0       0x30 common/built-in.o
                0x00000000808156a0                stdio_get_by_name
 .text.stdio_clone
                0x00000000808156d0       0x22 common/built-in.o
                0x00000000808156d0                stdio_clone
 *fill*         0x00000000808156f2        0x2 
 .text.stdio_register_dev
                0x00000000808156f4       0x34 common/built-in.o
                0x00000000808156f4                stdio_register_dev
 .text.stdio_register
                0x0000000080815728        0x6 common/built-in.o
                0x0000000080815728                stdio_register
 *fill*         0x000000008081572e        0x2 
 .text.stdio_init_tables
                0x0000000080815730       0x14 common/built-in.o
                0x0000000080815730                stdio_init_tables
 .text.stdio_add_devices
                0x0000000080815744       0x50 common/built-in.o
                0x0000000080815744                stdio_add_devices
 .text.run_command
                0x0000000080815794        0xe common/built-in.o
                0x0000000080815794                run_command
 .text.run_command_list
                0x00000000808157a2       0x46 common/built-in.o
                0x00000000808157a2                run_command_list
 .text.do_run   0x00000000808157e8       0x4c common/built-in.o
                0x00000000808157e8                do_run
 .text.cli_process_fdt
                0x0000000080815834       0x30 common/built-in.o
                0x0000000080815834                cli_process_fdt
 .text.cli_secure_boot_cmd
                0x0000000080815864       0x4c common/built-in.o
                0x0000000080815864                cli_secure_boot_cmd
 .text.cli_loop
                0x00000000808158b0        0xe common/built-in.o
                0x00000000808158b0                cli_loop
 .text.cli_init
                0x00000000808158be        0x4 common/built-in.o
                0x00000000808158be                cli_init
 *fill*         0x00000000808158c2        0x2 
 .text.run_usb_dnl_gadget
                0x00000000808158c4       0xbc common/built-in.o
                0x00000000808158c4                run_usb_dnl_gadget
 .text.find_cmd_tbl
                0x0000000080815980       0x60 common/built-in.o
                0x0000000080815980                find_cmd_tbl
 .text.find_cmd
                0x00000000808159e0       0x1c common/built-in.o
                0x00000000808159e0                find_cmd
 .text.cmd_usage
                0x00000000808159fc       0x3c common/built-in.o
                0x00000000808159fc                cmd_usage
 .text._do_help
                0x0000000080815a38      0x108 common/built-in.o
                0x0000000080815a38                _do_help
 .text.var_complete
                0x0000000080815b40       0x50 common/built-in.o
                0x0000000080815b40                var_complete
 .text.complete_subcmdv
                0x0000000080815b90      0x104 common/built-in.o
                0x0000000080815b90                complete_subcmdv
 .text.cmd_auto_complete
                0x0000000080815c94      0x28c common/built-in.o
                0x0000000080815c94                cmd_auto_complete
 .text.cmd_get_data_size
                0x0000000080815f20       0x34 common/built-in.o
                0x0000000080815f20                cmd_get_data_size
 .text.cmd_always_repeatable
                0x0000000080815f54       0x10 common/built-in.o
                0x0000000080815f54                cmd_always_repeatable
 .text.cmd_never_repeatable
                0x0000000080815f64       0x10 common/built-in.o
                0x0000000080815f64                cmd_never_repeatable
 .text.cmd_process
                0x0000000080815f74       0xd8 common/built-in.o
                0x0000000080815f74                cmd_process
 .text.cmd_process_error
                0x000000008081604c       0x1c common/built-in.o
                0x000000008081604c                cmd_process_error
 .text.hex1_bin
                0x0000000080816068       0x2a common/built-in.o
 .text.hex2_bin
                0x0000000080816092       0x24 common/built-in.o
 .text.srec_decode
                0x00000000808160b6      0x17a common/built-in.o
                0x00000000808160b6                srec_decode
 .text.CYGACC_COMM_IF_GETC_TIMEOUT.isra.0
                0x0000000080816230       0x2e common/built-in.o
 .text.xyzModem_flush
                0x000000008081625e       0x14 common/built-in.o
 *fill*         0x0000000080816272        0x2 
 .text.xyzModem_get_hdr
                0x0000000080816274      0x16c common/built-in.o
 .text.xyzModem_stream_open
                0x00000000808163e0      0x170 common/built-in.o
                0x00000000808163e0                xyzModem_stream_open
 .text.xyzModem_stream_read
                0x0000000080816550      0x1bc common/built-in.o
                0x0000000080816550                xyzModem_stream_read
 .text.xyzModem_stream_close
                0x000000008081670c       0x40 common/built-in.o
                0x000000008081670c                xyzModem_stream_close
 .text.xyzModem_stream_terminate
                0x000000008081674c       0x68 common/built-in.o
                0x000000008081674c                xyzModem_stream_terminate
 .text.xyzModem_error
                0x00000000808167b4       0x18 common/built-in.o
                0x00000000808167b4                xyzModem_error
 .text.part_driver_lookup_type
                0x00000000808167cc       0x44 disk/built-in.o
 .text.blk_get_dev
                0x0000000080816810       0x1c disk/built-in.o
                0x0000000080816810                blk_get_dev
 .text.dev_print
                0x000000008081682c      0x184 disk/built-in.o
                0x000000008081682c                dev_print
 .text.part_init
                0x00000000808169b0       0x38 disk/built-in.o
                0x00000000808169b0                part_init
 .text.part_print
                0x00000000808169e8       0xb8 disk/built-in.o
                0x00000000808169e8                part_print
 .text.part_get_info
                0x0000000080816aa0       0x36 disk/built-in.o
                0x0000000080816aa0                part_get_info
 *fill*         0x0000000080816ad6        0x2 
 .text.part_get_info_whole_disk
                0x0000000080816ad8       0x38 disk/built-in.o
                0x0000000080816ad8                part_get_info_whole_disk
 .text.blk_get_device_by_str
                0x0000000080816b10       0xb4 disk/built-in.o
                0x0000000080816b10                blk_get_device_by_str
 .text.blk_get_device_part_str
                0x0000000080816bc4      0x248 disk/built-in.o
                0x0000000080816bc4                blk_get_device_part_str
 .text.part_get_info_by_name_type
                0x0000000080816e0c       0x48 disk/built-in.o
                0x0000000080816e0c                part_get_info_by_name_type
 .text.part_get_info_by_name
                0x0000000080816e54        0x8 disk/built-in.o
                0x0000000080816e54                part_get_info_by_name
 .text.part_set_generic_name
                0x0000000080816e5c       0x34 disk/built-in.o
                0x0000000080816e5c                part_set_generic_name
 .text.test_block_type
                0x0000000080816e90       0x4c disk/built-in.o
 .text.print_partition_extended
                0x0000000080816edc      0x1ac disk/built-in.o
 .text.part_print_dos
                0x0000000080817088       0x20 disk/built-in.o
                0x0000000080817088                part_print_dos
 .text.part_test_dos
                0x00000000808170a8       0x58 disk/built-in.o
 .text.part_get_info_extended
                0x0000000080817100      0x1f8 disk/built-in.o
 .text.part_get_info_dos
                0x00000000808172f8       0x16 disk/built-in.o
                0x00000000808172f8                part_get_info_dos
 .text.iso_dread
                0x000000008081730e       0x22 disk/built-in.o
                0x000000008081730e                iso_dread
 .text.part_get_info_iso_verb
                0x0000000080817330      0x25c disk/built-in.o
                0x0000000080817330                part_get_info_iso_verb
 .text.part_test_iso
                0x000000008081758c       0x14 disk/built-in.o
 .text.part_print_iso
                0x00000000808175a0       0x60 disk/built-in.o
 .text.part_get_info_iso
                0x0000000080817600        0x6 disk/built-in.o
 *fill*         0x0000000080817606        0x2 
 .text.print_efiname
                0x0000000080817608       0x38 disk/built-in.o
 .text.part_test_efi
                0x0000000080817640       0x76 disk/built-in.o
 *fill*         0x00000000808176b6        0x2 
 .text.validate_gpt_entries
                0x00000000808176b8       0x80 disk/built-in.o
 .text.validate_gpt_header
                0x0000000080817738      0x1a0 disk/built-in.o
 .text.is_gpt_valid
                0x00000000808178d8      0x210 disk/built-in.o
 .text.is_pte_valid
                0x0000000080817ae8       0x38 disk/built-in.o
 .text.find_valid_gpt
                0x0000000080817b20       0x70 disk/built-in.o
 .text.part_print_efi
                0x0000000080817b90      0x1b0 disk/built-in.o
                0x0000000080817b90                part_print_efi
 .text.part_get_info_efi
                0x0000000080817d40      0x130 disk/built-in.o
                0x0000000080817d40                part_get_info_efi
 .text.get_disk_guid
                0x0000000080817e70       0x66 disk/built-in.o
                0x0000000080817e70                get_disk_guid
 *fill*         0x0000000080817ed6        0x2 
 .text.write_gpt_table
                0x0000000080817ed8      0x380 disk/built-in.o
                0x0000000080817ed8                write_gpt_table
 .text.gpt_fill_pte
                0x0000000080818258      0x284 disk/built-in.o
                0x0000000080818258                gpt_fill_pte
 .text.gpt_fill_header
                0x00000000808184dc      0x1a8 disk/built-in.o
                0x00000000808184dc                gpt_fill_header
 .text.gpt_restore
                0x0000000080818684       0xc8 disk/built-in.o
                0x0000000080818684                gpt_restore
 .text.gpt_verify_headers
                0x000000008081874c       0x58 disk/built-in.o
                0x000000008081874c                gpt_verify_headers
 .text.gpt_verify_partitions
                0x00000000808187a4      0x188 disk/built-in.o
                0x00000000808187a4                gpt_verify_partitions
 .text.device_bind_common.isra.0
                0x000000008081892c      0x200 drivers/built-in.o
 .text.alloc_priv
                0x0000000080818b2c       0x38 drivers/built-in.o
 .text.device_bind_with_driver_data
                0x0000000080818b64       0x16 drivers/built-in.o
                0x0000000080818b64                device_bind_with_driver_data
 .text.device_bind
                0x0000000080818b7a       0x16 drivers/built-in.o
                0x0000000080818b7a                device_bind
 .text.device_bind_by_name
                0x0000000080818b90       0x44 drivers/built-in.o
                0x0000000080818b90                device_bind_by_name
 .text.device_probe
                0x0000000080818bd4      0x140 drivers/built-in.o
                0x0000000080818bd4                device_probe
 .text.dev_get_platdata
                0x0000000080818d14       0x20 drivers/built-in.o
                0x0000000080818d14                dev_get_platdata
 .text.dev_get_parent_platdata
                0x0000000080818d34       0x20 drivers/built-in.o
                0x0000000080818d34                dev_get_parent_platdata
 .text.dev_get_uclass_platdata
                0x0000000080818d54       0x20 drivers/built-in.o
                0x0000000080818d54                dev_get_uclass_platdata
 .text.dev_get_priv
                0x0000000080818d74       0x20 drivers/built-in.o
                0x0000000080818d74                dev_get_priv
 .text.dev_get_uclass_priv
                0x0000000080818d94       0x20 drivers/built-in.o
                0x0000000080818d94                dev_get_uclass_priv
 .text.dev_get_parent_priv
                0x0000000080818db4       0x20 drivers/built-in.o
                0x0000000080818db4                dev_get_parent_priv
 .text.device_find_first_child
                0x0000000080818dd4       0x12 drivers/built-in.o
                0x0000000080818dd4                device_find_first_child
 .text.device_find_next_child
                0x0000000080818de6       0x16 drivers/built-in.o
                0x0000000080818de6                device_find_next_child
 .text.dev_get_parent
                0x0000000080818dfc        0x4 drivers/built-in.o
                0x0000000080818dfc                dev_get_parent
 .text.dev_get_driver_data
                0x0000000080818e00        0x4 drivers/built-in.o
                0x0000000080818e00                dev_get_driver_data
 .text.device_get_uclass_id
                0x0000000080818e04        0x8 drivers/built-in.o
                0x0000000080818e04                device_get_uclass_id
 .text.device_has_active_children
                0x0000000080818e0c       0x24 drivers/built-in.o
                0x0000000080818e0c                device_has_active_children
 .text.device_is_last_sibling
                0x0000000080818e30       0x14 drivers/built-in.o
                0x0000000080818e30                device_is_last_sibling
 .text.device_set_name_alloced
                0x0000000080818e44        0xa drivers/built-in.o
                0x0000000080818e44                device_set_name_alloced
 .text.device_is_compatible
                0x0000000080818e4e       0x10 drivers/built-in.o
                0x0000000080818e4e                device_is_compatible
 .text.of_machine_is_compatible
                0x0000000080818e5e       0x18 drivers/built-in.o
                0x0000000080818e5e                of_machine_is_compatible
 *fill*         0x0000000080818e76        0x2 
 .text.devfdt_get_addr_index
                0x0000000080818e78       0x74 drivers/built-in.o
                0x0000000080818e78                devfdt_get_addr_index
 .text.devfdt_get_addr
                0x0000000080818eec        0x6 drivers/built-in.o
                0x0000000080818eec                devfdt_get_addr
 *fill*         0x0000000080818ef2        0x2 
 .text.lists_driver_lookup_name
                0x0000000080818ef4       0x2c drivers/built-in.o
                0x0000000080818ef4                lists_driver_lookup_name
 .text.lists_uclass_lookup
                0x0000000080818f20       0x20 drivers/built-in.o
                0x0000000080818f20                lists_uclass_lookup
 .text.lists_bind_drivers
                0x0000000080818f40       0x58 drivers/built-in.o
                0x0000000080818f40                lists_bind_drivers
 .text.device_bind_driver_to_node
                0x0000000080818f98       0x2c drivers/built-in.o
                0x0000000080818f98                device_bind_driver_to_node
 .text.device_bind_driver
                0x0000000080818fc4       0x12 drivers/built-in.o
                0x0000000080818fc4                device_bind_driver
 *fill*         0x0000000080818fd6        0x2 
 .text.lists_bind_fdt
                0x0000000080818fd8       0xf8 drivers/built-in.o
                0x0000000080818fd8                lists_bind_fdt
 .text.dm_scan_fdt_node
                0x00000000808190d0       0x94 drivers/built-in.o
 .text.dm_scan_fdt_ofnode_path
                0x0000000080819164       0x24 drivers/built-in.o
 .text.dm_root  0x0000000080819188       0x1c drivers/built-in.o
                0x0000000080819188                dm_root
 .text.dm_init  0x00000000808191a4       0x4c drivers/built-in.o
                0x00000000808191a4                dm_init
 .text.dm_remove_devices_flags
                0x00000000808191f0       0x12 drivers/built-in.o
                0x00000000808191f0                dm_remove_devices_flags
 *fill*         0x0000000080819202        0x2 
 .text.dm_scan_platdata
                0x0000000080819204       0x20 drivers/built-in.o
                0x0000000080819204                dm_scan_platdata
 .text.dm_scan_fdt_dev
                0x0000000080819224       0x1c drivers/built-in.o
                0x0000000080819224                dm_scan_fdt_dev
 .text.dm_scan_fdt
                0x0000000080819240       0x14 drivers/built-in.o
                0x0000000080819240                dm_scan_fdt
 .text.dm_extended_scan_fdt
                0x0000000080819254       0x2c drivers/built-in.o
                0x0000000080819254                dm_extended_scan_fdt
 .text.dm_scan_other
                0x0000000080819280        0x4 drivers/built-in.o
                0x0000000080819280                dm_scan_other
 .text.dm_init_and_scan
                0x0000000080819284       0x2c drivers/built-in.o
                0x0000000080819284                dm_init_and_scan
 .text.uclass_find
                0x00000000808192b0       0x2e drivers/built-in.o
                0x00000000808192b0                uclass_find
 .text.uclass_get
                0x00000000808192de       0xaa drivers/built-in.o
                0x00000000808192de                uclass_get
 .text.dev_get_uclass_index
                0x0000000080819388       0x36 drivers/built-in.o
                0x0000000080819388                dev_get_uclass_index
 .text.uclass_find_device
                0x00000000808193be       0x42 drivers/built-in.o
                0x00000000808193be                uclass_find_device
 .text.uclass_find_first_device
                0x0000000080819400       0x26 drivers/built-in.o
                0x0000000080819400                uclass_find_first_device
 .text.uclass_find_next_device
                0x0000000080819426       0x18 drivers/built-in.o
                0x0000000080819426                uclass_find_next_device
 .text.uclass_find_device_by_seq
                0x000000008081943e       0x54 drivers/built-in.o
                0x000000008081943e                uclass_find_device_by_seq
 .text.uclass_find_device_by_of_offset
                0x0000000080819492       0x40 drivers/built-in.o
                0x0000000080819492                uclass_find_device_by_of_offset
 .text.uclass_find_device_by_ofnode
                0x00000000808194d2       0x42 drivers/built-in.o
                0x00000000808194d2                uclass_find_device_by_ofnode
 .text.uclass_get_device_tail
                0x0000000080819514       0x16 drivers/built-in.o
                0x0000000080819514                uclass_get_device_tail
 .text.uclass_get_device
                0x000000008081952a       0x1c drivers/built-in.o
                0x000000008081952a                uclass_get_device
 .text.uclass_get_device_by_seq
                0x0000000080819546       0x32 drivers/built-in.o
                0x0000000080819546                uclass_get_device_by_seq
 .text.uclass_get_device_by_of_offset
                0x0000000080819578       0x1c drivers/built-in.o
                0x0000000080819578                uclass_get_device_by_of_offset
 .text.uclass_get_device_by_ofnode
                0x0000000080819594       0x1c drivers/built-in.o
                0x0000000080819594                uclass_get_device_by_ofnode
 .text.uclass_first_device
                0x00000000808195b0       0x1e drivers/built-in.o
                0x00000000808195b0                uclass_first_device
 .text.uclass_first_device_err
                0x00000000808195ce       0x16 drivers/built-in.o
                0x00000000808195ce                uclass_first_device_err
 .text.uclass_next_device
                0x00000000808195e4       0x24 drivers/built-in.o
                0x00000000808195e4                uclass_next_device
 .text.uclass_first_device_check
                0x0000000080819608       0x1e drivers/built-in.o
                0x0000000080819608                uclass_first_device_check
 .text.uclass_next_device_check
                0x0000000080819626       0x1a drivers/built-in.o
                0x0000000080819626                uclass_next_device_check
 .text.uclass_bind_device
                0x0000000080819640       0x3a drivers/built-in.o
                0x0000000080819640                uclass_bind_device
 .text.uclass_unbind_device
                0x000000008081967a       0x24 drivers/built-in.o
                0x000000008081967a                uclass_unbind_device
 *fill*         0x000000008081969e        0x2 
 .text.uclass_resolve_seq
                0x00000000808196a0       0x68 drivers/built-in.o
                0x00000000808196a0                uclass_resolve_seq
 .text.uclass_pre_probe_device
                0x0000000080819708       0x2e drivers/built-in.o
                0x0000000080819708                uclass_pre_probe_device
 .text.uclass_post_probe_device
                0x0000000080819736       0x2e drivers/built-in.o
                0x0000000080819736                uclass_post_probe_device
 .text.uclass_pre_remove_device
                0x0000000080819764        0xe drivers/built-in.o
                0x0000000080819764                uclass_pre_remove_device
 .text.dm_warn  0x0000000080819772       0x1a drivers/built-in.o
                0x0000000080819772                dm_warn
 .text.dm_ofnode_pre_reloc
                0x000000008081978c       0x40 drivers/built-in.o
                0x000000008081978c                dm_ofnode_pre_reloc
 .text.device_unbind
                0x00000000808197cc       0x96 drivers/built-in.o
                0x00000000808197cc                device_unbind
 .text.device_chld_unbind
                0x0000000080819862       0x3e drivers/built-in.o
                0x0000000080819862                device_chld_unbind
 .text.device_free
                0x00000000808198a0       0x44 drivers/built-in.o
                0x00000000808198a0                device_free
 .text.device_remove
                0x00000000808198e4       0xd4 drivers/built-in.o
                0x00000000808198e4                device_remove
 .text.device_chld_remove
                0x00000000808199b8       0x3e drivers/built-in.o
                0x00000000808199b8                device_chld_remove
 *fill*         0x00000000808199f6        0x2 
 .text.simple_bus_post_bind
                0x00000000808199f8       0x34 drivers/built-in.o
 .text.show_devices
                0x0000000080819a2c       0xb8 drivers/built-in.o
 .text.dm_dump_all
                0x0000000080819ae4       0x30 drivers/built-in.o
                0x0000000080819ae4                dm_dump_all
 .text.dm_dump_uclass
                0x0000000080819b14       0xa4 drivers/built-in.o
                0x0000000080819b14                dm_dump_uclass
 .text.ofnode_read_u32
                0x0000000080819bb8       0x2e drivers/built-in.o
                0x0000000080819bb8                ofnode_read_u32
 .text.ofnode_read_u32_default
                0x0000000080819be6       0x16 drivers/built-in.o
                0x0000000080819be6                ofnode_read_u32_default
 .text.ofnode_read_string
                0x0000000080819bfc       0x34 drivers/built-in.o
                0x0000000080819bfc                ofnode_read_string
 .text.ofnode_read_u32_array
                0x0000000080819c30       0x18 drivers/built-in.o
                0x0000000080819c30                ofnode_read_u32_array
 .text.ofnode_first_subnode
                0x0000000080819c48       0x10 drivers/built-in.o
                0x0000000080819c48                ofnode_first_subnode
 .text.ofnode_next_subnode
                0x0000000080819c58       0x10 drivers/built-in.o
                0x0000000080819c58                ofnode_next_subnode
 .text.ofnode_get_name
                0x0000000080819c68       0x14 drivers/built-in.o
                0x0000000080819c68                ofnode_get_name
 .text.ofnode_parse_phandle_with_args
                0x0000000080819c7c       0x3e drivers/built-in.o
                0x0000000080819c7c                ofnode_parse_phandle_with_args
 .text.ofnode_path
                0x0000000080819cba       0x10 drivers/built-in.o
                0x0000000080819cba                ofnode_path
 *fill*         0x0000000080819cca        0x2 
 .text.ofnode_get_chosen_prop
                0x0000000080819ccc       0x18 drivers/built-in.o
                0x0000000080819ccc                ofnode_get_chosen_prop
 .text.ofnode_get_chosen_node
                0x0000000080819ce4       0x16 drivers/built-in.o
                0x0000000080819ce4                ofnode_get_chosen_node
 .text.ofnode_get_property
                0x0000000080819cfa       0x14 drivers/built-in.o
                0x0000000080819cfa                ofnode_get_property
 .text.ofnode_read_bool
                0x0000000080819d0e       0x10 drivers/built-in.o
                0x0000000080819d0e                ofnode_read_bool
 .text.ofnode_read_u8_array_ptr
                0x0000000080819d1e       0x14 drivers/built-in.o
                0x0000000080819d1e                ofnode_read_u8_array_ptr
 .text.ofnode_device_is_compatible
                0x0000000080819d32       0x18 drivers/built-in.o
                0x0000000080819d32                ofnode_device_is_compatible
 *fill*         0x0000000080819d4a        0x2 
 .text.dfu_write_buffer_drain
                0x0000000080819d4c       0x70 drivers/built-in.o
 .text.dfu_usb_get_reset
                0x0000000080819dbc        0x4 drivers/built-in.o
                0x0000000080819dbc                dfu_usb_get_reset
 .text.dfu_free_buf
                0x0000000080819dc0       0x14 drivers/built-in.o
                0x0000000080819dc0                dfu_free_buf
 .text.dfu_get_buf_size
                0x0000000080819dd4        0xc drivers/built-in.o
                0x0000000080819dd4                dfu_get_buf_size
 .text.dfu_get_buf
                0x0000000080819de0       0x68 drivers/built-in.o
                0x0000000080819de0                dfu_get_buf
 .text.dfu_transaction_cleanup
                0x0000000080819e48       0x36 drivers/built-in.o
                0x0000000080819e48                dfu_transaction_cleanup
 *fill*         0x0000000080819e7e        0x2 
 .text.dfu_transaction_initiate
                0x0000000080819e80       0x50 drivers/built-in.o
                0x0000000080819e80                dfu_transaction_initiate
 .text.dfu_flush
                0x0000000080819ed0       0x38 drivers/built-in.o
                0x0000000080819ed0                dfu_flush
 .text.dfu_write
                0x0000000080819f08       0xb0 drivers/built-in.o
                0x0000000080819f08                dfu_write
 .text.dfu_read
                0x0000000080819fb8      0x14c drivers/built-in.o
                0x0000000080819fb8                dfu_read
 .text.dfu_free_entities
                0x000000008081a104       0x58 drivers/built-in.o
                0x000000008081a104                dfu_free_entities
 .text.dfu_config_entities
                0x000000008081a15c      0x16c drivers/built-in.o
                0x000000008081a15c                dfu_config_entities
 .text.dfu_init_env_entities
                0x000000008081a2c8       0x54 drivers/built-in.o
                0x000000008081a2c8                dfu_init_env_entities
 .text.dfu_get_dev_type
                0x000000008081a31c       0x28 drivers/built-in.o
                0x000000008081a31c                dfu_get_dev_type
 .text.dfu_get_layout
                0x000000008081a344       0x28 drivers/built-in.o
                0x000000008081a344                dfu_get_layout
 .text.dfu_show_entities
                0x000000008081a36c       0x4c drivers/built-in.o
                0x000000008081a36c                dfu_show_entities
 .text.dfu_get_alt_number
                0x000000008081a3b8        0xc drivers/built-in.o
                0x000000008081a3b8                dfu_get_alt_number
 .text.dfu_get_entity
                0x000000008081a3c4       0x28 drivers/built-in.o
                0x000000008081a3c4                dfu_get_entity
 .text.mmc_block_op
                0x000000008081a3ec      0x110 drivers/built-in.o
 .text.mmc_file_op
                0x000000008081a4fc       0xe8 drivers/built-in.o
 .text.dfu_free_entity_mmc
                0x000000008081a5e4       0x18 drivers/built-in.o
                0x000000008081a5e4                dfu_free_entity_mmc
 .text.dfu_write_medium_mmc
                0x000000008081a5fc       0xa0 drivers/built-in.o
                0x000000008081a5fc                dfu_write_medium_mmc
 .text.dfu_flush_medium_mmc
                0x000000008081a69c       0x30 drivers/built-in.o
                0x000000008081a69c                dfu_flush_medium_mmc
 .text.dfu_get_medium_size_mmc
                0x000000008081a6cc       0x74 drivers/built-in.o
                0x000000008081a6cc                dfu_get_medium_size_mmc
 .text.dfu_read_medium_mmc
                0x000000008081a740       0x9c drivers/built-in.o
                0x000000008081a740                dfu_read_medium_mmc
 .text.dfu_fill_entity_mmc
                0x000000008081a7dc      0x1c4 drivers/built-in.o
                0x000000008081a7dc                dfu_fill_entity_mmc
 .text.dfu_get_medium_size_ram
                0x000000008081a9a0        0xa drivers/built-in.o
                0x000000008081a9a0                dfu_get_medium_size_ram
 *fill*         0x000000008081a9aa        0x2 
 .text.dfu_write_medium_ram
                0x000000008081a9ac       0x50 drivers/built-in.o
 .text.dfu_read_medium_ram
                0x000000008081a9fc       0x50 drivers/built-in.o
 .text.dfu_fill_entity_ram
                0x000000008081aa4c       0xa4 drivers/built-in.o
                0x000000008081aa4c                dfu_fill_entity_ram
 .text.timer_post_probe
                0x000000008081aaf0       0x14 drivers/built-in.o
 .text.timer_pre_probe
                0x000000008081ab04       0x24 drivers/built-in.o
 .text.timer_get_count
                0x000000008081ab28       0x10 drivers/built-in.o
                0x000000008081ab28                timer_get_count
 .text.timer_get_rate
                0x000000008081ab38        0x6 drivers/built-in.o
                0x000000008081ab38                timer_get_rate
 .text.timer_conv_64
                0x000000008081ab3e       0x20 drivers/built-in.o
                0x000000008081ab3e                timer_conv_64
 *fill*         0x000000008081ab5e        0x2 
 .text.dm_timer_init
                0x000000008081ab60       0x78 drivers/built-in.o
                0x000000008081ab60                dm_timer_init
 .text.omap_timer_get_count
                0x000000008081abd8       0x1c drivers/built-in.o
 .text.omap_timer_ofdata_to_platdata
                0x000000008081abf4       0x16 drivers/built-in.o
 *fill*         0x000000008081ac0a        0x2 
 .text.omap_timer_probe
                0x000000008081ac0c       0x3c drivers/built-in.o
 .text.get_desc
                0x000000008081ac48       0x6a drivers/built-in.o
 .text.blk_post_probe
                0x000000008081acb2        0xe drivers/built-in.o
 .text.blk_get_if_type_name
                0x000000008081acc0        0xc drivers/built-in.o
                0x000000008081acc0                blk_get_if_type_name
 .text.blk_get_devnum_by_typename
                0x000000008081accc       0x84 drivers/built-in.o
                0x000000008081accc                blk_get_devnum_by_typename
 .text.blk_list_part
                0x000000008081ad50       0x3e drivers/built-in.o
                0x000000008081ad50                blk_list_part
 .text.blk_print_part_devnum
                0x000000008081ad8e       0x24 drivers/built-in.o
                0x000000008081ad8e                blk_print_part_devnum
 *fill*         0x000000008081adb2        0x2 
 .text.blk_list_devices
                0x000000008081adb4       0x3c drivers/built-in.o
                0x000000008081adb4                blk_list_devices
 .text.blk_print_device_num
                0x000000008081adf0       0x28 drivers/built-in.o
                0x000000008081adf0                blk_print_device_num
 .text.blk_show_device
                0x000000008081ae18       0x54 drivers/built-in.o
                0x000000008081ae18                blk_show_device
 .text.blk_select_hwpart
                0x000000008081ae6c       0x16 drivers/built-in.o
                0x000000008081ae6c                blk_select_hwpart
 .text.blk_dselect_hwpart
                0x000000008081ae82        0x6 drivers/built-in.o
                0x000000008081ae82                blk_dselect_hwpart
 .text.blk_first_device
                0x000000008081ae88       0x36 drivers/built-in.o
                0x000000008081ae88                blk_first_device
 .text.blk_next_device
                0x000000008081aebe       0x2e drivers/built-in.o
                0x000000008081aebe                blk_next_device
 .text.blk_find_device
                0x000000008081aeec       0x50 drivers/built-in.o
                0x000000008081aeec                blk_find_device
 .text.blk_get_device
                0x000000008081af3c       0x16 drivers/built-in.o
                0x000000008081af3c                blk_get_device
 .text.blk_get_devnum_by_type
                0x000000008081af52       0x1a drivers/built-in.o
                0x000000008081af52                blk_get_devnum_by_type
 .text.blk_select_hwpart_devnum
                0x000000008081af6c       0x18 drivers/built-in.o
                0x000000008081af6c                blk_select_hwpart_devnum
 .text.blk_dread
                0x000000008081af84       0x6a drivers/built-in.o
                0x000000008081af84                blk_dread
 .text.blk_read_devnum
                0x000000008081afee       0x1e drivers/built-in.o
                0x000000008081afee                blk_read_devnum
 .text.blk_dwrite
                0x000000008081b00c       0x36 drivers/built-in.o
                0x000000008081b00c                blk_dwrite
 .text.blk_write_devnum
                0x000000008081b042       0x1e drivers/built-in.o
                0x000000008081b042                blk_write_devnum
 .text.blk_derase
                0x000000008081b060       0x30 drivers/built-in.o
                0x000000008081b060                blk_derase
 .text.blk_get_from_parent
                0x000000008081b090       0x32 drivers/built-in.o
                0x000000008081b090                blk_get_from_parent
 .text.blk_find_max_devnum
                0x000000008081b0c2       0x46 drivers/built-in.o
                0x000000008081b0c2                blk_find_max_devnum
 .text.blk_next_free_devnum
                0x000000008081b108       0x18 drivers/built-in.o
                0x000000008081b108                blk_next_free_devnum
 .text.blk_create_device
                0x000000008081b120       0xa6 drivers/built-in.o
                0x000000008081b120                blk_create_device
 *fill*         0x000000008081b1c6        0x2 
 .text.blk_create_devicef
                0x000000008081b1c8       0x64 drivers/built-in.o
                0x000000008081b1c8                blk_create_devicef
 .text.blkcache_read
                0x000000008081b22c       0x94 drivers/built-in.o
                0x000000008081b22c                blkcache_read
 .text.blkcache_fill
                0x000000008081b2c0       0xbc drivers/built-in.o
                0x000000008081b2c0                blkcache_fill
 .text.blkcache_invalidate
                0x000000008081b37c       0x58 drivers/built-in.o
                0x000000008081b37c                blkcache_invalidate
 .text.blkcache_configure
                0x000000008081b3d4       0x5c drivers/built-in.o
                0x000000008081b3d4                blkcache_configure
 .text.blkcache_stats
                0x000000008081b430       0x18 drivers/built-in.o
                0x000000008081b430                blkcache_stats
 .text.bootcount_store
                0x000000008081b448       0x3c drivers/built-in.o
                0x000000008081b448                bootcount_store
 .text.bootcount_load
                0x000000008081b484       0x20 drivers/built-in.o
                0x000000008081b484                bootcount_load
 .text.rsa_mod_exp
                0x000000008081b4a4       0x18 drivers/built-in.o
                0x000000008081b4a4                rsa_mod_exp
 .text.mod_exp_sw
                0x000000008081b4bc        0xc drivers/built-in.o
                0x000000008081b4bc                mod_exp_sw
 .text.fastboot_response
                0x000000008081b4c8       0x3e drivers/built-in.o
                0x000000008081b4c8                fastboot_response
 *fill*         0x000000008081b506        0x2 
 .text.fastboot_fail
                0x000000008081b508       0x14 drivers/built-in.o
                0x000000008081b508                fastboot_fail
 .text.fastboot_okay
                0x000000008081b51c       0x1c drivers/built-in.o
                0x000000008081b51c                fastboot_okay
 .text.fastboot_set_reboot_flag
                0x000000008081b538        0x6 drivers/built-in.o
                0x000000008081b538                fastboot_set_reboot_flag
 *fill*         0x000000008081b53e        0x2 
 .text.fastboot_boot
                0x000000008081b540       0x60 drivers/built-in.o
                0x000000008081b540                fastboot_boot
 .text.fastboot_init
                0x000000008081b5a0       0x2c drivers/built-in.o
                0x000000008081b5a0                fastboot_init
 .text.getvar_downloadsize
                0x000000008081b5cc       0x18 drivers/built-in.o
 .text.getvar_is_userspace
                0x000000008081b5e4        0xc drivers/built-in.o
 .text.getvar_current_slot
                0x000000008081b5f0        0xc drivers/built-in.o
 .text.getvar_platform
                0x000000008081b5fc       0x28 drivers/built-in.o
 .text.getvar_product
                0x000000008081b624       0x28 drivers/built-in.o
 .text.getvar_version_baseband
                0x000000008081b64c        0xc drivers/built-in.o
 .text.getvar_serialno
                0x000000008081b658       0x28 drivers/built-in.o
 .text.getvar_version_bootloader
                0x000000008081b680        0xc drivers/built-in.o
 .text.getvar_version
                0x000000008081b68c        0xc drivers/built-in.o
 .text.fastboot_getvar
                0x000000008081b698       0x8c drivers/built-in.o
                0x000000008081b698                fastboot_getvar
 .text.reboot_bootloader
                0x000000008081b724       0x24 drivers/built-in.o
 .text.okay     0x000000008081b748        0x6 drivers/built-in.o
 *fill*         0x000000008081b74e        0x2 
 .text.download
                0x000000008081b750       0x70 drivers/built-in.o
 .text.getvar   0x000000008081b7c0        0x4 drivers/built-in.o
 .text.fastboot_handle_command
                0x000000008081b7c4       0x68 drivers/built-in.o
                0x000000008081b7c4                fastboot_handle_command
 .text.fastboot_data_remaining
                0x000000008081b82c       0x14 drivers/built-in.o
                0x000000008081b82c                fastboot_data_remaining
 .text.fastboot_data_download
                0x000000008081b840       0x6c drivers/built-in.o
                0x000000008081b840                fastboot_data_download
 .text.fastboot_data_complete
                0x000000008081b8ac       0x38 drivers/built-in.o
                0x000000008081b8ac                fastboot_data_complete
 .text.mmc_send_ext_csd
                0x000000008081b8e4       0x2e drivers/built-in.o
 *fill*         0x000000008081b912        0x2 
 .text.mmc_send_op_cond_iter
                0x000000008081b914       0x44 drivers/built-in.o
 .text.mmc_go_idle
                0x000000008081b958       0x32 drivers/built-in.o
 .text.mmc_set_capacity
                0x000000008081b98a       0x6c drivers/built-in.o
 *fill*         0x000000008081b9f6        0x2 
 .text.mmc_read_and_compare_ext_csd
                0x000000008081b9f8       0x78 drivers/built-in.o
 .text.mmc_mode_name
                0x000000008081ba70       0x18 drivers/built-in.o
                0x000000008081ba70                mmc_mode_name
 .text.mmc_send_status
                0x000000008081ba88       0x3c drivers/built-in.o
                0x000000008081ba88                mmc_send_status
 .text.__mmc_switch.constprop.11
                0x000000008081bac4       0xb6 drivers/built-in.o
 *fill*         0x000000008081bb7a        0x2 
 .text.mmc_set_card_speed.constprop.10
                0x000000008081bb7c       0x68 drivers/built-in.o
 .text.mmc_poll_for_busy
                0x000000008081bbe4       0x74 drivers/built-in.o
                0x000000008081bbe4                mmc_poll_for_busy
 .text.mmc_set_blocklen
                0x000000008081bc58       0x42 drivers/built-in.o
                0x000000008081bc58                mmc_set_blocklen
 *fill*         0x000000008081bc9a        0x2 
 .text.mmc_bread
                0x000000008081bc9c       0xe8 drivers/built-in.o
                0x000000008081bc9c                mmc_bread
 .text.mmc_switch
                0x000000008081bd84        0x4 drivers/built-in.o
                0x000000008081bd84                mmc_switch
 .text.mmc_startup_v4
                0x000000008081bd88      0x2a4 drivers/built-in.o
 .text.mmc_switch_part
                0x000000008081c02c       0x56 drivers/built-in.o
                0x000000008081c02c                mmc_switch_part
 *fill*         0x000000008081c082        0x2 
 .text.mmc_hwpart_config
                0x000000008081c084      0x2d0 drivers/built-in.o
                0x000000008081c084                mmc_hwpart_config
 .text.mmc_set_clock
                0x000000008081c354       0x20 drivers/built-in.o
                0x000000008081c354                mmc_set_clock
 .text.mmc_startup
                0x000000008081c374      0x8a0 drivers/built-in.o
 .text.mmc_dump_capabilities
                0x000000008081cc14        0x2 drivers/built-in.o
                0x000000008081cc14                mmc_dump_capabilities
 *fill*         0x000000008081cc16        0x2 
 .text.mmc_get_op_cond
                0x000000008081cc18      0x170 drivers/built-in.o
                0x000000008081cc18                mmc_get_op_cond
 .text.mmc_start_init
                0x000000008081cd88       0x3c drivers/built-in.o
                0x000000008081cd88                mmc_start_init
 .text.mmc_init
                0x000000008081cdc4       0xa6 drivers/built-in.o
                0x000000008081cdc4                mmc_init
 .text.mmc_set_dsr
                0x000000008081ce6a        0x6 drivers/built-in.o
                0x000000008081ce6a                mmc_set_dsr
 .text.mmc_initialize
                0x000000008081ce70       0x7c drivers/built-in.o
                0x000000008081ce70                mmc_initialize
 .text.mmc_blk_probe
                0x000000008081ceec       0x14 drivers/built-in.o
 .text.dm_mmc_set_ios
                0x000000008081cf00       0x10 drivers/built-in.o
                0x000000008081cf00                dm_mmc_set_ios
 .text.mmc_set_ios
                0x000000008081cf10        0x8 drivers/built-in.o
                0x000000008081cf10                mmc_set_ios
 .text.dm_mmc_wait_dat0
                0x000000008081cf18       0x10 drivers/built-in.o
                0x000000008081cf18                dm_mmc_wait_dat0
 .text.mmc_wait_dat0
                0x000000008081cf28        0x8 drivers/built-in.o
                0x000000008081cf28                mmc_wait_dat0
 .text.dm_mmc_get_wp
                0x000000008081cf30       0x10 drivers/built-in.o
                0x000000008081cf30                dm_mmc_get_wp
 .text.mmc_getwp
                0x000000008081cf40        0x8 drivers/built-in.o
                0x000000008081cf40                mmc_getwp
 .text.dm_mmc_get_cd
                0x000000008081cf48       0x10 drivers/built-in.o
                0x000000008081cf48                dm_mmc_get_cd
 .text.mmc_getcd
                0x000000008081cf58        0x8 drivers/built-in.o
                0x000000008081cf58                mmc_getcd
 .text.mmc_of_parse
                0x000000008081cf60      0x1fc drivers/built-in.o
                0x000000008081cf60                mmc_of_parse
 .text.mmc_get_mmc_dev
                0x000000008081d15c       0x16 drivers/built-in.o
                0x000000008081d15c                mmc_get_mmc_dev
 .text.dm_mmc_send_cmd
                0x000000008081d172       0x26 drivers/built-in.o
                0x000000008081d172                dm_mmc_send_cmd
 .text.mmc_send_cmd
                0x000000008081d198        0x8 drivers/built-in.o
                0x000000008081d198                mmc_send_cmd
 .text.mmc_select_hwpart
                0x000000008081d1a0       0x48 drivers/built-in.o
 .text.find_mmc_device
                0x000000008081d1e8       0x30 drivers/built-in.o
                0x000000008081d1e8                find_mmc_device
 .text.get_mmc_num
                0x000000008081d218       0x10 drivers/built-in.o
                0x000000008081d218                get_mmc_num
 .text.mmc_get_blk_desc
                0x000000008081d228       0x1a drivers/built-in.o
                0x000000008081d228                mmc_get_blk_desc
 .text.mmc_do_preinit
                0x000000008081d242       0x38 drivers/built-in.o
                0x000000008081d242                mmc_do_preinit
 *fill*         0x000000008081d27a        0x2 
 .text.print_mmc_devices
                0x000000008081d27c       0x98 drivers/built-in.o
                0x000000008081d27c                print_mmc_devices
 .text.mmc_bind
                0x000000008081d314       0x80 drivers/built-in.o
                0x000000008081d314                mmc_bind
 .text.mmc_berase
                0x000000008081d394      0x114 drivers/built-in.o
                0x000000008081d394                mmc_berase
 .text.mmc_bwrite
                0x000000008081d4a8      0x104 drivers/built-in.o
                0x000000008081d4a8                mmc_bwrite
 .text.mmc_reset_controller_fsm
                0x000000008081d5ac       0x7c drivers/built-in.o
 .text.omap_hsmmc_wait_dat0
                0x000000008081d628       0x68 drivers/built-in.o
 .text.omap_hsmmc_getwp
                0x000000008081d690       0x12 drivers/built-in.o
 .text.omap_hsmmc_getcd
                0x000000008081d6a2       0x16 drivers/built-in.o
 .text.omap_hsmmc_ofdata_to_platdata
                0x000000008081d6b8       0xa0 drivers/built-in.o
 .text.omap_hsmmc_bind
                0x000000008081d758       0x24 drivers/built-in.o
 .text.omap_hsmmc_send_cmd
                0x000000008081d77c      0x388 drivers/built-in.o
 .text.omap_hsmmc_set_ios
                0x000000008081db04      0x24c drivers/built-in.o
 .text.omap_hsmmc_probe
                0x000000008081dd50      0x25c drivers/built-in.o
 .text.rtc_month_days
                0x000000008081dfac       0x38 drivers/built-in.o
                0x000000008081dfac                rtc_month_days
 .text.rtc_to_tm
                0x000000008081dfe4      0x14c drivers/built-in.o
                0x000000008081dfe4                rtc_to_tm
 .text.gpio_post_bind
                0x000000008081e130        0x4 drivers/gpio/built-in.o
 .text.get_function
                0x000000008081e134       0x5e drivers/gpio/built-in.o
 .text.gpio_to_device
                0x000000008081e192       0x4a drivers/gpio/built-in.o
 .text.check_reserved
                0x000000008081e1dc       0x4c drivers/gpio/built-in.o
 .text.gpio_renumber
                0x000000008081e228       0x46 drivers/gpio/built-in.o
 .text.gpio_pre_remove
                0x000000008081e26e       0x30 drivers/gpio/built-in.o
 .text.gpio_post_probe
                0x000000008081e29e       0x24 drivers/gpio/built-in.o
 *fill*         0x000000008081e2c2        0x2 
 .text.dm_gpio_lookup_name
                0x000000008081e2c4       0xa0 drivers/gpio/built-in.o
                0x000000008081e2c4                dm_gpio_lookup_name
 .text.gpio_lookup_name
                0x000000008081e364       0x3c drivers/gpio/built-in.o
                0x000000008081e364                gpio_lookup_name
 .text.gpio_xlate_offs_flags
                0x000000008081e3a0       0x26 drivers/gpio/built-in.o
                0x000000008081e3a0                gpio_xlate_offs_flags
 .text.dm_gpio_request
                0x000000008081e3c6       0x5e drivers/gpio/built-in.o
                0x000000008081e3c6                dm_gpio_request
 .text.dm_gpio_requestf
                0x000000008081e424       0x2a drivers/gpio/built-in.o
 .text.gpio_request
                0x000000008081e44e       0x18 drivers/gpio/built-in.o
                0x000000008081e44e                gpio_request
 .text._dm_gpio_free
                0x000000008081e466       0x42 drivers/gpio/built-in.o
                0x000000008081e466                _dm_gpio_free
 .text.gpio_free
                0x000000008081e4a8       0x18 drivers/gpio/built-in.o
                0x000000008081e4a8                gpio_free
 .text.gpio_direction_input
                0x000000008081e4c0       0x2c drivers/gpio/built-in.o
                0x000000008081e4c0                gpio_direction_input
 .text.gpio_direction_output
                0x000000008081e4ec       0x2c drivers/gpio/built-in.o
                0x000000008081e4ec                gpio_direction_output
 .text.dm_gpio_get_value
                0x000000008081e518       0x2c drivers/gpio/built-in.o
                0x000000008081e518                dm_gpio_get_value
 .text.dm_gpio_set_value
                0x000000008081e544       0x34 drivers/gpio/built-in.o
                0x000000008081e544                dm_gpio_set_value
 .text.dm_gpio_set_dir_flags
                0x000000008081e578       0x58 drivers/gpio/built-in.o
                0x000000008081e578                dm_gpio_set_dir_flags
 .text.gpio_request_tail
                0x000000008081e5d0       0x8c drivers/gpio/built-in.o
 .text._gpio_request_by_name_nodev
                0x000000008081e65c       0x4c drivers/gpio/built-in.o
 .text.gpio_get_value
                0x000000008081e6a8       0x16 drivers/gpio/built-in.o
                0x000000008081e6a8                gpio_get_value
 .text.gpio_set_value
                0x000000008081e6be       0x18 drivers/gpio/built-in.o
                0x000000008081e6be                gpio_set_value
 .text.gpio_get_bank_info
                0x000000008081e6d6       0x10 drivers/gpio/built-in.o
                0x000000008081e6d6                gpio_get_bank_info
 .text.gpio_get_function
                0x000000008081e6e6        0x8 drivers/gpio/built-in.o
                0x000000008081e6e6                gpio_get_function
 .text.gpio_get_raw_function
                0x000000008081e6ee        0x8 drivers/gpio/built-in.o
                0x000000008081e6ee                gpio_get_raw_function
 *fill*         0x000000008081e6f6        0x2 
 .text.gpio_get_status
                0x000000008081e6f8       0xb8 drivers/gpio/built-in.o
                0x000000008081e6f8                gpio_get_status
 .text.gpio_request_by_name
                0x000000008081e7b0       0x54 drivers/gpio/built-in.o
                0x000000008081e7b0                gpio_request_by_name
 .text.gpio_get_list_count
                0x000000008081e804       0x28 drivers/gpio/built-in.o
                0x000000008081e804                gpio_get_list_count
 .text.dm_gpio_free
                0x000000008081e82c        0xa drivers/gpio/built-in.o
                0x000000008081e82c                dm_gpio_free
 .text.gpio_free_list
                0x000000008081e836       0x28 drivers/gpio/built-in.o
                0x000000008081e836                gpio_free_list
 .text.gpio_free_list_nodev
                0x000000008081e85e        0xa drivers/gpio/built-in.o
                0x000000008081e85e                gpio_free_list_nodev
 .text.gpio_request_list_by_name_nodev
                0x000000008081e868       0x52 drivers/gpio/built-in.o
                0x000000008081e868                gpio_request_list_by_name_nodev
 .text.gpio_request_list_by_name
                0x000000008081e8ba        0x6 drivers/gpio/built-in.o
                0x000000008081e8ba                gpio_request_list_by_name
 .text.omap_gpio_get_value
                0x000000008081e8c0       0x2c drivers/gpio/built-in.o
 .text.omap_gpio_direction_output
                0x000000008081e8ec       0x32 drivers/gpio/built-in.o
 .text.omap_gpio_ofdata_to_platdata
                0x000000008081e91e       0x1e drivers/gpio/built-in.o
 .text.omap_gpio_probe
                0x000000008081e93c       0x48 drivers/gpio/built-in.o
 .text.omap_gpio_direction_input
                0x000000008081e984       0x1e drivers/gpio/built-in.o
 .text.omap_gpio_get_function
                0x000000008081e9a2       0x1e drivers/gpio/built-in.o
 .text.omap_gpio_set_value
                0x000000008081e9c0       0x22 drivers/gpio/built-in.o
 .text.i2c_setup_offset
                0x000000008081e9e2       0x3a drivers/i2c/built-in.o
 .text.i2c_probe_chip
                0x000000008081ea1c       0x44 drivers/i2c/built-in.o
 .text.i2c_uclass_init
                0x000000008081ea60       0x20 drivers/i2c/built-in.o
                0x000000008081ea60                i2c_uclass_init
 .text.i2c_pre_probe
                0x000000008081ea80       0x4c drivers/i2c/built-in.o
 .text.i2c_post_bind
                0x000000008081eacc       0x1e drivers/i2c/built-in.o
 .text.dm_i2c_read
                0x000000008081eaea       0xe2 drivers/i2c/built-in.o
                0x000000008081eaea                dm_i2c_read
 .text.dm_i2c_write
                0x000000008081ebcc      0x13c drivers/i2c/built-in.o
                0x000000008081ebcc                dm_i2c_write
 .text.dm_i2c_reg_read
                0x000000008081ed08       0x1a drivers/i2c/built-in.o
                0x000000008081ed08                dm_i2c_reg_read
 .text.dm_i2c_reg_write
                0x000000008081ed22       0x14 drivers/i2c/built-in.o
                0x000000008081ed22                dm_i2c_reg_write
 *fill*         0x000000008081ed36        0x2 
 .text.i2c_get_chip
                0x000000008081ed38       0x9c drivers/i2c/built-in.o
                0x000000008081ed38                i2c_get_chip
 .text.i2c_get_chip_for_busnum
                0x000000008081edd4       0x30 drivers/i2c/built-in.o
                0x000000008081edd4                i2c_get_chip_for_busnum
 .text.dm_i2c_probe
                0x000000008081ee04       0x24 drivers/i2c/built-in.o
                0x000000008081ee04                dm_i2c_probe
 .text.dm_i2c_set_bus_speed
                0x000000008081ee28       0x26 drivers/i2c/built-in.o
                0x000000008081ee28                dm_i2c_set_bus_speed
 *fill*         0x000000008081ee4e        0x2 
 .text.i2c_post_probe
                0x000000008081ee50       0x2c drivers/i2c/built-in.o
 .text.dm_i2c_get_bus_speed
                0x000000008081ee7c       0x1c drivers/i2c/built-in.o
                0x000000008081ee7c                dm_i2c_get_bus_speed
 .text.i2c_set_chip_flags
                0x000000008081ee98       0x28 drivers/i2c/built-in.o
                0x000000008081ee98                i2c_set_chip_flags
 .text.i2c_get_chip_flags
                0x000000008081eec0       0x10 drivers/i2c/built-in.o
                0x000000008081eec0                i2c_get_chip_flags
 .text.i2c_set_chip_offset_len
                0x000000008081eed0       0x16 drivers/i2c/built-in.o
                0x000000008081eed0                i2c_set_chip_offset_len
 .text.i2c_get_chip_offset_len
                0x000000008081eee6        0xa drivers/i2c/built-in.o
                0x000000008081eee6                i2c_get_chip_offset_len
 .text.i2c_deblock
                0x000000008081eef0       0x50 drivers/i2c/built-in.o
                0x000000008081eef0                i2c_deblock
 .text.i2c_chip_ofdata_to_platdata
                0x000000008081ef40       0x38 drivers/i2c/built-in.o
                0x000000008081ef40                i2c_chip_ofdata_to_platdata
 .text.i2c_child_post_bind
                0x000000008081ef78       0x1e drivers/i2c/built-in.o
 *fill*         0x000000008081ef96        0x2 
 .text.__omap24_i2c_setspeed
                0x000000008081ef98      0x120 drivers/i2c/built-in.o
 .text.omap_i2c_set_bus_speed
                0x000000008081f0b8       0x1c drivers/i2c/built-in.o
 .text.wait_for_bb
                0x000000008081f0d4       0xac drivers/i2c/built-in.o
 .text.wait_for_event
                0x000000008081f180       0x8c drivers/i2c/built-in.o
 .text.flush_fifo
                0x000000008081f20c       0x4c drivers/i2c/built-in.o
 .text.omap_i2c_probe_chip
                0x000000008081f258       0xec drivers/i2c/built-in.o
 .text.omap_i2c_ofdata_to_platdata
                0x000000008081f344       0x34 drivers/i2c/built-in.o
 .text.omap_i2c_xfer
                0x000000008081f378      0x264 drivers/i2c/built-in.o
 .text.omap_i2c_probe
                0x000000008081f5dc      0x234 drivers/i2c/built-in.o
 .text.mtd_arg_off
                0x000000008081f810       0x50 drivers/mtd/built-in.o
                0x000000008081f810                mtd_arg_off
 .text.mtd_arg_off_size
                0x000000008081f860       0xc0 drivers/mtd/built-in.o
                0x000000008081f860                mtd_arg_off_size
 .text.spi_flash_post_bind
                0x000000008081f920        0x4 drivers/mtd/spi/built-in.o
 .text.spi_flash_read_dm
                0x000000008081f924        0xe drivers/mtd/spi/built-in.o
                0x000000008081f924                spi_flash_read_dm
 .text.spi_flash_write_dm
                0x000000008081f932        0xe drivers/mtd/spi/built-in.o
                0x000000008081f932                spi_flash_write_dm
 .text.spi_flash_erase_dm
                0x000000008081f940        0x8 drivers/mtd/spi/built-in.o
                0x000000008081f940                spi_flash_erase_dm
 .text.spi_flash_probe_bus_cs
                0x000000008081f948       0x50 drivers/mtd/spi/built-in.o
                0x000000008081f948                spi_flash_probe_bus_cs
 .text.spi_flash_std_remove
                0x000000008081f998        0x4 drivers/mtd/spi/built-in.o
 .text.spi_flash_std_write
                0x000000008081f99c       0x22 drivers/mtd/spi/built-in.o
 .text.spi_flash_std_read
                0x000000008081f9be       0x22 drivers/mtd/spi/built-in.o
 .text.spi_flash_std_get_sw_write_prot
                0x000000008081f9e0        0xe drivers/mtd/spi/built-in.o
 *fill*         0x000000008081f9ee        0x2 
 .text.spi_flash_std_erase
                0x000000008081f9f0       0x54 drivers/mtd/spi/built-in.o
 .text.spi_flash_std_probe
                0x000000008081fa44       0x4c drivers/mtd/spi/built-in.o
 .text.read_sr  0x000000008081fa90       0x1c drivers/mtd/spi/built-in.o
 .text.read_cr  0x000000008081faac       0x1c drivers/mtd/spi/built-in.o
 .text.write_enable
                0x000000008081fac8       0x12 drivers/mtd/spi/built-in.o
 .text.write_disable
                0x000000008081fada       0x12 drivers/mtd/spi/built-in.o
 .text.spi_nor_read
                0x000000008081faec       0x50 drivers/mtd/spi/built-in.o
 .text.spi_nor_write_data
                0x000000008081fb3c       0x86 drivers/mtd/spi/built-in.o
 .text.spi_nor_read_data
                0x000000008081fbc2       0x90 drivers/mtd/spi/built-in.o
 *fill*         0x000000008081fc52        0x2 
 .text.spi_nor_wait_till_ready_with_timeout.constprop.5
                0x000000008081fc54       0xa4 drivers/mtd/spi/built-in.o
 .text.spi_nor_read_reg
                0x000000008081fcf8       0x38 drivers/mtd/spi/built-in.o
 .text.spi_nor_write_reg
                0x000000008081fd30       0x3a drivers/mtd/spi/built-in.o
 .text.spansion_read_cr_quad_enable
                0x000000008081fd6a       0x64 drivers/mtd/spi/built-in.o
 .text.spi_nor_write
                0x000000008081fdce       0xe8 drivers/mtd/spi/built-in.o
 .text.spi_nor_erase
                0x000000008081feb6       0xba drivers/mtd/spi/built-in.o
 .text.spi_nor_scan
                0x000000008081ff70      0x598 drivers/mtd/spi/built-in.o
                0x000000008081ff70                spi_nor_scan
 .text.spi_flash_cmd_get_sw_write_prot
                0x0000000080820508       0x10 drivers/mtd/spi/built-in.o
                0x0000000080820508                spi_flash_cmd_get_sw_write_prot
 .text.cpsw_eth_ofdata_to_platdata
                0x0000000080820518      0x300 drivers/net/built-in.o
 .text.cpsw_ale_read.isra.0
                0x0000000080820818       0x1c drivers/net/built-in.o
 .text.cpsw_ale_match_free
                0x0000000080820834       0x32 drivers/net/built-in.o
 .text.cpsw_ale_find_ageable
                0x0000000080820866       0x38 drivers/net/built-in.o
 .text.cpsw_ale_match_addr
                0x000000008082089e       0x70 drivers/net/built-in.o
 .text.cpsw_ale_write.isra.1
                0x000000008082090e       0x20 drivers/net/built-in.o
 .text.cpdma_submit
                0x000000008082092e       0x4e drivers/net/built-in.o
 .text.cpsw_eth_free_pkt
                0x000000008082097c       0x1a drivers/net/built-in.o
 .text.cpsw_eth_recv
                0x0000000080820996       0x50 drivers/net/built-in.o
 *fill*         0x00000000808209e6        0x2 
 .text.cpsw_gmii_sel_am3352.isra.4
                0x00000000808209e8       0x84 drivers/net/built-in.o
 .text.cpsw_ale_add_mcast.constprop.9
                0x0000000080820a6c       0xc4 drivers/net/built-in.o
 .text.cpsw_eth_start
                0x0000000080820b30      0x39c drivers/net/built-in.o
 .text.cpsw_reap_completed_packets
                0x0000000080820ecc       0x36 drivers/net/built-in.o
 .text.cpsw_eth_stop
                0x0000000080820f02       0x38 drivers/net/built-in.o
 *fill*         0x0000000080820f3a        0x2 
 .text.cpsw_eth_send
                0x0000000080820f3c       0x48 drivers/net/built-in.o
 .text._cpsw_register
                0x0000000080820f84      0x168 drivers/net/built-in.o
                0x0000000080820f84                _cpsw_register
 .text.cpsw_eth_probe
                0x00000000808210ec       0xcc drivers/net/built-in.o
 .text.ti_cm_get_macid
                0x00000000808211b8       0x6c drivers/net/built-in.o
                0x00000000808211b8                ti_cm_get_macid
 .text.ti_cm_get_macid_addr
                0x0000000080821224       0xe4 drivers/net/built-in.o
                0x0000000080821224                ti_cm_get_macid_addr
 .text.cpsw_mdio_wait_for_user_access.isra.0
                0x0000000080821308       0x34 drivers/net/built-in.o
 .text.cpsw_mdio_read
                0x000000008082133c       0x52 drivers/net/built-in.o
 .text.cpsw_mdio_write
                0x000000008082138e       0x42 drivers/net/built-in.o
 .text.cpsw_mdio_get_alive
                0x00000000808213d0        0xe drivers/net/built-in.o
                0x00000000808213d0                cpsw_mdio_get_alive
 *fill*         0x00000000808213de        0x2 
 .text.cpsw_mdio_init
                0x00000000808213e0       0xe4 drivers/net/built-in.o
                0x00000000808213e0                cpsw_mdio_init
 .text.genphy_shutdown
                0x00000000808214c4        0x4 drivers/net/phy/built-in.o
                0x00000000808214c4                genphy_shutdown
 .text.genphy_restart_aneg
                0x00000000808214c8       0x36 drivers/net/phy/built-in.o
                0x00000000808214c8                genphy_restart_aneg
 .text.genphy_config_aneg
                0x00000000808214fe      0x152 drivers/net/phy/built-in.o
                0x00000000808214fe                genphy_config_aneg
 .text.genphy_config
                0x0000000080821650       0x90 drivers/net/phy/built-in.o
                0x0000000080821650                genphy_config
 .text.genphy_update_link
                0x00000000808216e0       0xd8 drivers/net/phy/built-in.o
                0x00000000808216e0                genphy_update_link
 .text.genphy_parse_link
                0x00000000808217b8      0x104 drivers/net/phy/built-in.o
                0x00000000808217b8                genphy_parse_link
 .text.genphy_startup
                0x00000000808218bc       0x16 drivers/net/phy/built-in.o
                0x00000000808218bc                genphy_startup
 .text.phy_init
                0x00000000808218d2        0xe drivers/net/phy/built-in.o
                0x00000000808218d2                phy_init
 .text.phy_register
                0x00000000808218e0       0x18 drivers/net/phy/built-in.o
                0x00000000808218e0                phy_register
 .text.get_phy_id
                0x00000000808218f8       0x3e drivers/net/phy/built-in.o
                0x00000000808218f8                get_phy_id
 *fill*         0x0000000080821936        0x2 
 .text.get_phy_device_by_mask
                0x0000000080821938      0x208 drivers/net/phy/built-in.o
 .text.phy_reset
                0x0000000080821b40       0x74 drivers/net/phy/built-in.o
                0x0000000080821b40                phy_reset
 .text.phy_find_by_mask
                0x0000000080821bb4       0x24 drivers/net/phy/built-in.o
                0x0000000080821bb4                phy_find_by_mask
 .text.phy_connect_dev
                0x0000000080821bd8       0x30 drivers/net/phy/built-in.o
                0x0000000080821bd8                phy_connect_dev
 .text.phy_connect
                0x0000000080821c08       0x3c drivers/net/phy/built-in.o
                0x0000000080821c08                phy_connect
 .text.phy_startup
                0x0000000080821c44        0xc drivers/net/phy/built-in.o
                0x0000000080821c44                phy_startup
 .text.board_phy_config
                0x0000000080821c50        0xc drivers/net/phy/built-in.o
                0x0000000080821c50                board_phy_config
 .text.phy_config
                0x0000000080821c5c        0x4 drivers/net/phy/built-in.o
                0x0000000080821c5c                phy_config
 .text.phy_get_interface_by_name
                0x0000000080821c60       0x28 drivers/net/phy/built-in.o
                0x0000000080821c60                phy_get_interface_by_name
 .text.ar8021_config
                0x0000000080821c88       0x4a drivers/net/phy/built-in.o
 .text.ar8035_config
                0x0000000080821cd2      0x110 drivers/net/phy/built-in.o
 .text.ar8031_config
                0x0000000080821de2       0x7a drivers/net/phy/built-in.o
 .text.phy_atheros_init
                0x0000000080821e5c       0x24 drivers/net/phy/built-in.o
                0x0000000080821e5c                phy_atheros_init
 .text.smsc_startup
                0x0000000080821e80       0x38 drivers/net/phy/built-in.o
 .text.phy_smsc_init
                0x0000000080821eb8       0x44 drivers/net/phy/built-in.o
                0x0000000080821eb8                phy_smsc_init
 .text._serial_putc
                0x0000000080821efc       0x22 drivers/serial/built-in.o
 .text.__serial_getc
                0x0000000080821f1e       0x1a drivers/serial/built-in.o
 .text.__serial_tstc
                0x0000000080821f38       0x10 drivers/serial/built-in.o
 .text.serial_stub_putc
                0x0000000080821f48        0x6 drivers/serial/built-in.o
 .text.serial_stub_getc
                0x0000000080821f4e        0x6 drivers/serial/built-in.o
 .text.serial_stub_tstc
                0x0000000080821f54        0x6 drivers/serial/built-in.o
 .text.serial_pre_remove
                0x0000000080821f5a        0x4 drivers/serial/built-in.o
 *fill*         0x0000000080821f5e        0x2 
 .text.serial_post_probe
                0x0000000080821f60       0x74 drivers/serial/built-in.o
 .text.serial_stub_puts
                0x0000000080821fd4       0x16 drivers/serial/built-in.o
 *fill*         0x0000000080821fea        0x2 
 .text.serial_init
                0x0000000080821fec       0xdc drivers/serial/built-in.o
                0x0000000080821fec                serial_init
 .text.serial_initialize
                0x00000000808220c8        0x4 drivers/serial/built-in.o
                0x00000000808220c8                serial_initialize
 .text.serial_putc
                0x00000000808220cc       0x12 drivers/serial/built-in.o
                0x00000000808220cc                serial_putc
 .text.serial_puts
                0x00000000808220de       0x1e drivers/serial/built-in.o
                0x00000000808220de                serial_puts
 .text.serial_getc
                0x00000000808220fc       0x10 drivers/serial/built-in.o
                0x00000000808220fc                serial_getc
 .text.serial_tstc
                0x000000008082210c       0x10 drivers/serial/built-in.o
                0x000000008082210c                serial_tstc
 .text.serial_setbrg
                0x000000008082211c       0x1e drivers/serial/built-in.o
                0x000000008082211c                serial_setbrg
 *fill*         0x000000008082213a        0x2 
 .text.on_baudrate
                0x000000008082213c       0x9c drivers/serial/built-in.o
 .text.serial_stdio_init
                0x00000000808221d8        0x2 drivers/serial/built-in.o
                0x00000000808221d8                serial_stdio_init
 .text.ns16550_serial_getinfo
                0x00000000808221da       0x22 drivers/serial/built-in.o
 .text.ns16550_serial_ofdata_to_platdata
                0x00000000808221fc       0x7c drivers/serial/built-in.o
                0x00000000808221fc                ns16550_serial_ofdata_to_platdata
 .text.ns16550_writeb.isra.0
                0x0000000080822278       0x14 drivers/serial/built-in.o
 .text.ns16550_serial_setconfig
                0x000000008082228c       0x40 drivers/serial/built-in.o
 .text.ns16550_readb.isra.1
                0x00000000808222cc       0x14 drivers/serial/built-in.o
 .text.NS16550_setbrg
                0x00000000808222e0       0x42 drivers/serial/built-in.o
 .text.ns16550_serial_setbrg
                0x0000000080822322       0x24 drivers/serial/built-in.o
 .text.ns16550_serial_pending
                0x0000000080822346       0x28 drivers/serial/built-in.o
 .text.ns16550_serial_putc
                0x000000008082236e       0x2a drivers/serial/built-in.o
 .text.ns16550_serial_getc
                0x0000000080822398       0x26 drivers/serial/built-in.o
 .text.NS16550_init
                0x00000000808223be       0x5e drivers/serial/built-in.o
                0x00000000808223be                NS16550_init
 .text.ns16550_serial_probe
                0x000000008082241c       0x20 drivers/serial/built-in.o
                0x000000008082241c                ns16550_serial_probe
 .text.omap_serial_ofdata_to_platdata
                0x000000008082243c       0x50 drivers/serial/built-in.o
 .text.spi_set_speed_mode
                0x000000008082248c       0x48 drivers/spi/built-in.o
 .text.spi_child_pre_probe
                0x00000000808224d4       0x22 drivers/spi/built-in.o
 *fill*         0x00000000808224f6        0x2 
 .text.spi_post_probe
                0x00000000808224f8       0x20 drivers/spi/built-in.o
 .text.dm_spi_claim_bus
                0x0000000080822518       0x64 drivers/spi/built-in.o
                0x0000000080822518                dm_spi_claim_bus
 .text.dm_spi_release_bus
                0x000000008082257c        0xe drivers/spi/built-in.o
                0x000000008082257c                dm_spi_release_bus
 .text.dm_spi_xfer
                0x000000008082258a       0x22 drivers/spi/built-in.o
                0x000000008082258a                dm_spi_xfer
 .text.spi_claim_bus
                0x00000000808225ac        0x6 drivers/spi/built-in.o
                0x00000000808225ac                spi_claim_bus
 .text.spi_release_bus
                0x00000000808225b2        0x6 drivers/spi/built-in.o
                0x00000000808225b2                spi_release_bus
 .text.spi_xfer
                0x00000000808225b8        0x6 drivers/spi/built-in.o
                0x00000000808225b8                spi_xfer
 .text.spi_find_chip_select
                0x00000000808225be       0x32 drivers/spi/built-in.o
                0x00000000808225be                spi_find_chip_select
 .text.spi_find_bus_and_cs
                0x00000000808225f0       0x2e drivers/spi/built-in.o
                0x00000000808225f0                spi_find_bus_and_cs
 *fill*         0x000000008082261e        0x2 
 .text.spi_get_bus_and_cs
                0x0000000080822620       0xfc drivers/spi/built-in.o
                0x0000000080822620                spi_get_bus_and_cs
 .text.spi_slave_ofdata_to_platdata
                0x000000008082271c       0xf8 drivers/spi/built-in.o
                0x000000008082271c                spi_slave_ofdata_to_platdata
 .text.spi_child_post_bind
                0x0000000080822814       0x1e drivers/spi/built-in.o
 *fill*         0x0000000080822832        0x2 
 .text.spi_check_buswidth_req.isra.0
                0x0000000080822834       0x38 drivers/spi/built-in.o
 .text.spi_mem_default_supports_op
                0x000000008082286c       0x56 drivers/spi/built-in.o
                0x000000008082286c                spi_mem_default_supports_op
 .text.spi_mem_supports_op
                0x00000000808228c2       0x24 drivers/spi/built-in.o
                0x00000000808228c2                spi_mem_supports_op
 *fill*         0x00000000808228e6        0x2 
 .text.spi_mem_exec_op
                0x00000000808228e8      0x11c drivers/spi/built-in.o
                0x00000000808228e8                spi_mem_exec_op
 .text.spi_mem_adjust_op_size
                0x0000000080822a04       0x5c drivers/spi/built-in.o
                0x0000000080822a04                spi_mem_adjust_op_size
 .text.omap3_spi_write_chconf
                0x0000000080822a60       0x22 drivers/spi/built-in.o
 .text.omap3_spi_set_enable
                0x0000000080822a82       0x22 drivers/spi/built-in.o
 .text.omap3_spi_set_mode
                0x0000000080822aa4       0x60 drivers/spi/built-in.o
 .text.omap3_spi_set_speed
                0x0000000080822b04       0x4c drivers/spi/built-in.o
 .text.omap3_spi_release_bus
                0x0000000080822b50       0x16 drivers/spi/built-in.o
 *fill*         0x0000000080822b66        0x2 
 .text.omap3_spi_xfer
                0x0000000080822b68      0x31c drivers/spi/built-in.o
 .text.omap3_spi_set_wordlen
                0x0000000080822e84       0x3e drivers/spi/built-in.o
 *fill*         0x0000000080822ec2        0x2 
 .text.omap3_spi_probe
                0x0000000080822ec4       0x74 drivers/spi/built-in.o
 .text.omap3_spi_claim_bus
                0x0000000080822f38       0x36 drivers/spi/built-in.o
 *fill*         0x0000000080822f6e        0x2 
 .text.usb_get_dr_mode
                0x0000000080822f70       0x4c drivers/usb/common/built-in.o
                0x0000000080822f70                usb_get_dr_mode
 .text.usb_ep_autoconfig
                0x0000000080822fbc      0x11c drivers/usb/gadget/built-in.o
                0x0000000080822fbc                usb_ep_autoconfig
 .text.usb_ep_autoconfig_reset
                0x00000000808230d8       0x28 drivers/usb/gadget/built-in.o
                0x00000000808230d8                usb_ep_autoconfig_reset
 .text.usb_descriptor_fillbuf
                0x0000000080823100       0x36 drivers/usb/gadget/built-in.o
                0x0000000080823100                usb_descriptor_fillbuf
 .text.usb_gadget_config_buf
                0x0000000080823136       0x54 drivers/usb/gadget/built-in.o
                0x0000000080823136                usb_gadget_config_buf
 .text.usb_gadget_get_string
                0x000000008082318a       0xe2 drivers/usb/gadget/built-in.o
                0x000000008082318a                usb_gadget_get_string
 .text.count_configs
                0x000000008082326c       0x48 drivers/usb/gadget/built-in.o
 .text.collect_langs
                0x00000000808232b4       0x2a drivers/usb/gadget/built-in.o
 .text.composite_setup_complete
                0x00000000808232de        0x2 drivers/usb/gadget/built-in.o
 .text.composite_suspend
                0x00000000808232e0       0x40 drivers/usb/gadget/built-in.o
 .text.composite_resume
                0x0000000080823320       0x40 drivers/usb/gadget/built-in.o
 .text.g_dnl_unbind
                0x0000000080823360       0x12 drivers/usb/gadget/built-in.o
 .text.lookup_string
                0x0000000080823372       0x2a drivers/usb/gadget/built-in.o
 .text.composite_unbind
                0x000000008082339c       0xb4 drivers/usb/gadget/built-in.o
 .text.composite_bind
                0x0000000080823450       0xac drivers/usb/gadget/built-in.o
 .text.g_dnl_do_config
                0x00000000808234fc       0x30 drivers/usb/gadget/built-in.o
 .text.reset_config.isra.0
                0x000000008082352c       0x2c drivers/usb/gadget/built-in.o
 .text.composite_disconnect
                0x0000000080823558       0x28 drivers/usb/gadget/built-in.o
 .text.composite_setup
                0x0000000080823580      0x544 drivers/usb/gadget/built-in.o
 .text.usb_add_function
                0x0000000080823ac4       0x74 drivers/usb/gadget/built-in.o
                0x0000000080823ac4                usb_add_function
 .text.usb_interface_id
                0x0000000080823b38       0x20 drivers/usb/gadget/built-in.o
                0x0000000080823b38                usb_interface_id
 .text.usb_add_config
                0x0000000080823b58       0x7c drivers/usb/gadget/built-in.o
                0x0000000080823b58                usb_add_config
 .text.usb_string_id
                0x0000000080823bd4       0x1a drivers/usb/gadget/built-in.o
                0x0000000080823bd4                usb_string_id
 *fill*         0x0000000080823bee        0x2 
 .text.usb_composite_register
                0x0000000080823bf0       0x3c drivers/usb/gadget/built-in.o
                0x0000000080823bf0                usb_composite_register
 .text.usb_composite_unregister
                0x0000000080823c2c       0x20 drivers/usb/gadget/built-in.o
                0x0000000080823c2c                usb_composite_unregister
 .text.g_dnl_set_serialnumber
                0x0000000080823c4c       0x24 drivers/usb/gadget/built-in.o
                0x0000000080823c4c                g_dnl_set_serialnumber
 .text.on_serialno
                0x0000000080823c70        0xc drivers/usb/gadget/built-in.o
 .text.g_dnl_bind_fixup
                0x0000000080823c7c        0x4 drivers/usb/gadget/built-in.o
                0x0000000080823c7c                g_dnl_bind_fixup
 .text.g_dnl_get_board_bcd_device_number
                0x0000000080823c80        0x2 drivers/usb/gadget/built-in.o
                0x0000000080823c80                g_dnl_get_board_bcd_device_number
 *fill*         0x0000000080823c82        0x2 
 .text.g_dnl_bind
                0x0000000080823c84       0xf0 drivers/usb/gadget/built-in.o
 .text.g_dnl_board_usb_cable_connected
                0x0000000080823d74        0x6 drivers/usb/gadget/built-in.o
                0x0000000080823d74                g_dnl_board_usb_cable_connected
 *fill*         0x0000000080823d7a        0x2 
 .text.g_dnl_detach
                0x0000000080823d7c        0xc drivers/usb/gadget/built-in.o
                0x0000000080823d7c                g_dnl_detach
 .text.g_dnl_trigger_detach
                0x0000000080823d88        0xc drivers/usb/gadget/built-in.o
                0x0000000080823d88                g_dnl_trigger_detach
 .text.g_dnl_clear_detach
                0x0000000080823d94        0xc drivers/usb/gadget/built-in.o
                0x0000000080823d94                g_dnl_clear_detach
 .text.g_dnl_register
                0x0000000080823da0       0x2c drivers/usb/gadget/built-in.o
                0x0000000080823da0                g_dnl_register
 .text.g_dnl_unregister
                0x0000000080823dcc        0xc drivers/usb/gadget/built-in.o
                0x0000000080823dcc                g_dnl_unregister
 .text.dfu_set_alt
                0x0000000080823dd8       0x10 drivers/usb/gadget/built-in.o
 .text.__dfu_get_alt
                0x0000000080823de8        0x6 drivers/usb/gadget/built-in.o
 .text.dfu_disable
                0x0000000080823dee        0xe drivers/usb/gadget/built-in.o
 .text.dfu_add  0x0000000080823dfc       0x98 drivers/usb/gadget/built-in.o
                0x0000000080823dfc                dfu_add
 .text.dfu_handle
                0x0000000080823e94       0x80 drivers/usb/gadget/built-in.o
 .text.dnload_request_flush
                0x0000000080823f14       0x18 drivers/usb/gadget/built-in.o
 .text.dnload_request_complete
                0x0000000080823f2c       0x24 drivers/usb/gadget/built-in.o
 .text.dfu_unbind
                0x0000000080823f50       0x52 drivers/usb/gadget/built-in.o
 *fill*         0x0000000080823fa2        0x2 
 .text.dfu_bind
                0x0000000080823fa4      0x15c drivers/usb/gadget/built-in.o
 .text.handle_upload.isra.9
                0x0000000080824100       0x1c drivers/usb/gadget/built-in.o
 .text.handle_getstatus
                0x000000008082411c       0x9c drivers/usb/gadget/built-in.o
 .text.state_dfu_error
                0x00000000808241b8       0x36 drivers/usb/gadget/built-in.o
 *fill*         0x00000000808241ee        0x2 
 .text.state_dfu_manifest_sync
                0x00000000808241f0       0x40 drivers/usb/gadget/built-in.o
 .text.state_dfu_dnload_idle
                0x0000000080824230       0x6c drivers/usb/gadget/built-in.o
 .text.state_dfu_dnbusy
                0x000000008082429c       0x16 drivers/usb/gadget/built-in.o
 .text.state_dfu_dnload_sync
                0x00000000808242b2       0x26 drivers/usb/gadget/built-in.o
 .text.state_app_detach
                0x00000000808242d8       0x26 drivers/usb/gadget/built-in.o
 *fill*         0x00000000808242fe        0x2 
 .text.state_app_idle
                0x0000000080824300       0x3c drivers/usb/gadget/built-in.o
 .text.state_dfu_upload_idle
                0x000000008082433c       0x5e drivers/usb/gadget/built-in.o
 *fill*         0x000000008082439a        0x2 
 .text.state_dfu_manifest
                0x000000008082439c       0x44 drivers/usb/gadget/built-in.o
 .text.state_dfu_idle
                0x00000000808243e0       0x88 drivers/usb/gadget/built-in.o
 .text.fastboot_start_ep
                0x0000000080824468       0x3c drivers/usb/gadget/built-in.o
 .text.fastboot_unbind
                0x00000000808244a4       0x10 drivers/usb/gadget/built-in.o
 .text.fastboot_add
                0x00000000808244b4       0x74 drivers/usb/gadget/built-in.o
 .text.fastboot_disable
                0x0000000080824528       0x46 drivers/usb/gadget/built-in.o
 *fill*         0x000000008082456e        0x2 
 .text.fastboot_set_alt
                0x0000000080824570       0xbc drivers/usb/gadget/built-in.o
 .text.fastboot_complete
                0x000000008082462c       0x18 drivers/usb/gadget/built-in.o
 .text.compl_do_reset
                0x0000000080824644        0xc drivers/usb/gadget/built-in.o
 .text.do_exit_on_complete
                0x0000000080824650        0x4 drivers/usb/gadget/built-in.o
 .text.do_bootm_on_complete
                0x0000000080824654        0xe drivers/usb/gadget/built-in.o
 .text.rx_bytes_expected
                0x0000000080824662       0x2e drivers/usb/gadget/built-in.o
 .text.fastboot_tx_write_str
                0x0000000080824690       0x4c drivers/usb/gadget/built-in.o
 .text.rx_handler_command
                0x00000000808246dc       0xd4 drivers/usb/gadget/built-in.o
 .text.rx_handler_dl_image
                0x00000000808247b0       0x7c drivers/usb/gadget/built-in.o
 .text.fastboot_bind
                0x000000008082482c       0xa8 drivers/usb/gadget/built-in.o
 .text.eth_setup_complete
                0x00000000808248d4        0x2 drivers/usb/gadget/built-in.o
 *fill*         0x00000000808248d6        0x2 
 .text.tx_complete
                0x00000000808248d8       0x34 drivers/usb/gadget/built-in.o
 .text.eth_suspend
                0x000000008082490c        0x2 drivers/usb/gadget/built-in.o
 *fill*         0x000000008082490e        0x2 
 .text.usb_eth_recv
                0x0000000080824910       0x44 drivers/usb/gadget/built-in.o
 .text.rx_complete
                0x0000000080824954       0x88 drivers/usb/gadget/built-in.o
 .text.usb_eth_send
                0x00000000808249dc       0xe0 drivers/usb/gadget/built-in.o
 .text.rndis_command_complete
                0x0000000080824abc       0x28 drivers/usb/gadget/built-in.o
 .text.eth_unbind
                0x0000000080824ae4       0x5a drivers/usb/gadget/built-in.o
 *fill*         0x0000000080824b3e        0x2 
 .text.rndis_control_ack_complete
                0x0000000080824b40       0x4c drivers/usb/gadget/built-in.o
 .text.rndis_control_ack
                0x0000000080824b8c       0x68 drivers/usb/gadget/built-in.o
 .text.nibble   0x0000000080824bf4       0x2c drivers/usb/gadget/built-in.o
 .text._usb_eth_halt
                0x0000000080824c20       0x72 drivers/usb/gadget/built-in.o
 .text.usb_eth_stop
                0x0000000080824c92        0xe drivers/usb/gadget/built-in.o
 .text.eth_reset_config
                0x0000000080824ca0       0x6c drivers/usb/gadget/built-in.o
 .text.eth_disconnect
                0x0000000080824d0c        0x6 drivers/usb/gadget/built-in.o
 *fill*         0x0000000080824d12        0x2 
 .text.set_ether_config.isra.6
                0x0000000080824d14      0x138 drivers/usb/gadget/built-in.o
 .text.get_ether_addr.part.8
                0x0000000080824e4c       0x68 drivers/usb/gadget/built-in.o
 .text.is_eth_addr_valid.part.9
                0x0000000080824eb4       0x6c drivers/usb/gadget/built-in.o
 .text.rx_submit.constprop.10
                0x0000000080824f20       0x64 drivers/usb/gadget/built-in.o
 .text.usb_eth_free_pkt
                0x0000000080824f84       0x1c drivers/usb/gadget/built-in.o
 .text.eth_setup
                0x0000000080824fa0      0x2f8 drivers/usb/gadget/built-in.o
 .text.rndis_response_complete
                0x0000000080825298        0x2 drivers/usb/gadget/built-in.o
 .text.eth_resume
                0x000000008082529a        0x2 drivers/usb/gadget/built-in.o
 .text.usb_eth_probe
                0x000000008082529c       0x3c drivers/usb/gadget/built-in.o
 .text.eth_bind
                0x00000000808252d8      0x334 drivers/usb/gadget/built-in.o
 .text.usb_eth_start
                0x000000008082560c      0x194 drivers/usb/gadget/built-in.o
 .text.usb_ether_init
                0x00000000808257a0       0x44 drivers/usb/gadget/built-in.o
                0x00000000808257a0                usb_ether_init
 .text.rndis_add_response
                0x00000000808257e4       0x38 drivers/usb/gadget/built-in.o
 .text.rndis_signal_connect
                0x000000008082581c       0x54 drivers/usb/gadget/built-in.o
                0x000000008082581c                rndis_signal_connect
 .text.rndis_signal_disconnect
                0x0000000080825870       0x14 drivers/usb/gadget/built-in.o
                0x0000000080825870                rndis_signal_disconnect
 .text.rndis_set_host_mac
                0x0000000080825884       0x10 drivers/usb/gadget/built-in.o
                0x0000000080825884                rndis_set_host_mac
 .text.rndis_get_state
                0x0000000080825894       0x14 drivers/usb/gadget/built-in.o
                0x0000000080825894                rndis_get_state
 .text.rndis_msg_parser
                0x00000000808258a8      0x468 drivers/usb/gadget/built-in.o
                0x00000000808258a8                rndis_msg_parser
 .text.rndis_register
                0x0000000080825d10       0x1c drivers/usb/gadget/built-in.o
                0x0000000080825d10                rndis_register
 .text.rndis_deregister
                0x0000000080825d2c       0x18 drivers/usb/gadget/built-in.o
                0x0000000080825d2c                rndis_deregister
 .text.rndis_set_param_dev
                0x0000000080825d44       0x20 drivers/usb/gadget/built-in.o
                0x0000000080825d44                rndis_set_param_dev
 .text.rndis_set_param_vendor
                0x0000000080825d64       0x18 drivers/usb/gadget/built-in.o
                0x0000000080825d64                rndis_set_param_vendor
 .text.rndis_set_param_medium
                0x0000000080825d7c       0x14 drivers/usb/gadget/built-in.o
                0x0000000080825d7c                rndis_set_param_medium
 .text.rndis_add_hdr
                0x0000000080825d90       0x4e drivers/usb/gadget/built-in.o
                0x0000000080825d90                rndis_add_hdr
 *fill*         0x0000000080825dde        0x2 
 .text.rndis_free_response
                0x0000000080825de0       0x40 drivers/usb/gadget/built-in.o
                0x0000000080825de0                rndis_free_response
 .text.rndis_get_next_response
                0x0000000080825e20       0x3c drivers/usb/gadget/built-in.o
                0x0000000080825e20                rndis_get_next_response
 .text.rndis_uninit
                0x0000000080825e5c       0x30 drivers/usb/gadget/built-in.o
                0x0000000080825e5c                rndis_uninit
 .text.rndis_rm_hdr
                0x0000000080825e8c       0x5e drivers/usb/gadget/built-in.o
                0x0000000080825e8c                rndis_rm_hdr
 *fill*         0x0000000080825eea        0x2 
 .text.rndis_init
                0x0000000080825eec       0x1c drivers/usb/gadget/built-in.o
                0x0000000080825eec                rndis_init
 .text.rndis_exit
                0x0000000080825f08        0x2 drivers/usb/gadget/built-in.o
                0x0000000080825f08                rndis_exit
 .text.usb_gadget_remove_driver
                0x0000000080825f0a       0x2e drivers/usb/gadget/udc/built-in.o
 .text.usb_udc_release
                0x0000000080825f38        0x6 drivers/usb/gadget/udc/built-in.o
 *fill*         0x0000000080825f3e        0x2 
 .text.usb_add_gadget_udc_release
                0x0000000080825f40       0x44 drivers/usb/gadget/udc/built-in.o
                0x0000000080825f40                usb_add_gadget_udc_release
 .text.usb_add_gadget_udc
                0x0000000080825f84        0x6 drivers/usb/gadget/udc/built-in.o
                0x0000000080825f84                usb_add_gadget_udc
 *fill*         0x0000000080825f8a        0x2 
 .text.usb_del_gadget_udc
                0x0000000080825f8c       0x4c drivers/usb/gadget/udc/built-in.o
                0x0000000080825f8c                usb_del_gadget_udc
 .text.usb_gadget_probe_driver
                0x0000000080825fd8       0x98 drivers/usb/gadget/udc/built-in.o
                0x0000000080825fd8                usb_gadget_probe_driver
 .text.usb_gadget_register_driver
                0x0000000080826070        0x4 drivers/usb/gadget/udc/built-in.o
                0x0000000080826070                usb_gadget_register_driver
 .text.usb_gadget_unregister_driver
                0x0000000080826074       0x44 drivers/usb/gadget/udc/built-in.o
                0x0000000080826074                usb_gadget_unregister_driver
 .text.usb_gadget_initialize
                0x00000000808260b8       0x5c drivers/usb/gadget/udc/built-in.o
                0x00000000808260b8                usb_gadget_initialize
 .text.usb_gadget_release
                0x0000000080826114       0x28 drivers/usb/gadget/udc/built-in.o
                0x0000000080826114                usb_gadget_release
 .text.usb_gadget_handle_interrupts
                0x000000008082613c       0x18 drivers/usb/gadget/udc/built-in.o
                0x000000008082613c                usb_gadget_handle_interrupts
 .text.usb_match_device
                0x0000000080826154       0x7c drivers/usb/host/built-in.o
 .text.usb_child_post_bind
                0x00000000808261d0       0x50 drivers/usb/host/built-in.o
 .text.usb_match_one_id_intf.isra.0
                0x0000000080826220       0x50 drivers/usb/host/built-in.o
 .text.remove_inactive_children.isra.2
                0x0000000080826270       0x48 drivers/usb/host/built-in.o
 .text.usb_disable_asynch
                0x00000000808262b8       0x14 drivers/usb/host/built-in.o
                0x00000000808262b8                usb_disable_asynch
 .text.submit_int_msg
                0x00000000808262cc       0x2e drivers/usb/host/built-in.o
                0x00000000808262cc                submit_int_msg
 .text.submit_control_msg
                0x00000000808262fa       0x4e drivers/usb/host/built-in.o
                0x00000000808262fa                submit_control_msg
 .text.submit_bulk_msg
                0x0000000080826348       0x24 drivers/usb/host/built-in.o
                0x0000000080826348                submit_bulk_msg
 .text.usb_alloc_device
                0x000000008082636c       0x14 drivers/usb/host/built-in.o
                0x000000008082636c                usb_alloc_device
 .text.usb_reset_root_port
                0x0000000080826380       0x16 drivers/usb/host/built-in.o
                0x0000000080826380                usb_reset_root_port
 .text.usb_update_hub_device
                0x0000000080826396       0x16 drivers/usb/host/built-in.o
                0x0000000080826396                usb_update_hub_device
 .text.usb_get_max_xfer_size
                0x00000000808263ac       0x14 drivers/usb/host/built-in.o
                0x00000000808263ac                usb_get_max_xfer_size
 .text.usb_stop
                0x00000000808263c0       0x64 drivers/usb/host/built-in.o
                0x00000000808263c0                usb_stop
 .text.usb_get_bus
                0x0000000080826424       0x18 drivers/usb/host/built-in.o
                0x0000000080826424                usb_get_bus
 .text.usb_scan_device
                0x000000008082643c      0x1c8 drivers/usb/host/built-in.o
                0x000000008082643c                usb_scan_device
 .text.usb_scan_bus.isra.3
                0x0000000080826604       0x4c drivers/usb/host/built-in.o
 .text.usb_init
                0x0000000080826650      0x10c drivers/usb/host/built-in.o
                0x0000000080826650                usb_init
 .text.usb_child_pre_probe
                0x000000008082675c       0x46 drivers/usb/host/built-in.o
                0x000000008082675c                usb_child_pre_probe
 .text.musb_gadget_enable
                0x00000000808267a2      0x190 drivers/usb/musb-new/built-in.o
 .text.musb_gadget_fifo_status
                0x0000000080826932       0x26 drivers/usb/musb-new/built-in.o
 .text.musb_gadget_fifo_flush
                0x0000000080826958       0x50 drivers/usb/musb-new/built-in.o
 .text.musb_gadget_get_frame
                0x00000000808269a8        0xc drivers/usb/musb-new/built-in.o
 .text.musb_gadget_wakeup
                0x00000000808269b4        0x4 drivers/usb/musb-new/built-in.o
 .text.musb_gadget_set_self_powered
                0x00000000808269b8       0x16 drivers/usb/musb-new/built-in.o
 .text.musb_gadget_vbus_draw
                0x00000000808269ce        0x4 drivers/usb/musb-new/built-in.o
 .text.txstate  0x00000000808269d2       0x70 drivers/usb/musb-new/built-in.o
 .text.musb_alloc_request
                0x0000000080826a42       0x22 drivers/usb/musb-new/built-in.o
                0x0000000080826a42                musb_alloc_request
 .text.musb_free_request
                0x0000000080826a64        0x6 drivers/usb/musb-new/built-in.o
                0x0000000080826a64                musb_free_request
 .text.musb_gadget_stop
                0x0000000080826a6a        0xe drivers/usb/musb-new/built-in.o
 .text.init_peripheral_ep
                0x0000000080826a78       0xb0 drivers/usb/musb-new/built-in.o
 .text.musb_gadget_start
                0x0000000080826b28       0x2a drivers/usb/musb-new/built-in.o
                0x0000000080826b28                musb_gadget_start
 .text.musb_gadget_pullup
                0x0000000080826b52       0x38 drivers/usb/musb-new/built-in.o
 .text.musb_g_giveback
                0x0000000080826b8a       0x32 drivers/usb/musb-new/built-in.o
                0x0000000080826b8a                musb_g_giveback
 .text.rxstate  0x0000000080826bbc       0x98 drivers/usb/musb-new/built-in.o
 .text.musb_gadget_dequeue
                0x0000000080826c54       0x42 drivers/usb/musb-new/built-in.o
 .text.musb_gadget_disable
                0x0000000080826c96       0x66 drivers/usb/musb-new/built-in.o
 .text.musb_g_tx
                0x0000000080826cfc       0xdc drivers/usb/musb-new/built-in.o
                0x0000000080826cfc                musb_g_tx
 .text.musb_g_rx
                0x0000000080826dd8       0x6e drivers/usb/musb-new/built-in.o
                0x0000000080826dd8                musb_g_rx
 .text.musb_ep_restart
                0x0000000080826e46       0x1e drivers/usb/musb-new/built-in.o
                0x0000000080826e46                musb_ep_restart
 .text.musb_gadget_set_halt
                0x0000000080826e64       0xb2 drivers/usb/musb-new/built-in.o
 .text.musb_gadget_queue
                0x0000000080826f16       0x72 drivers/usb/musb-new/built-in.o
 .text.musb_gadget_setup
                0x0000000080826f88       0x90 drivers/usb/musb-new/built-in.o
                0x0000000080826f88                musb_gadget_setup
 .text.musb_g_ep0_enable
                0x0000000080827018        0x6 drivers/usb/musb-new/built-in.o
 .text.musb_g_ep0_disable
                0x000000008082701e        0x6 drivers/usb/musb-new/built-in.o
 .text.musb_g_ep0_halt
                0x0000000080827024       0x60 drivers/usb/musb-new/built-in.o
 .text.musb_g_ep0_dequeue
                0x0000000080827084        0x6 drivers/usb/musb-new/built-in.o
 .text.ep0_txstate
                0x000000008082708a       0x9a drivers/usb/musb-new/built-in.o
 .text.musb_g_ep0_queue
                0x0000000080827124       0xb0 drivers/usb/musb-new/built-in.o
 .text.musb_g_ep0_irq
                0x00000000808271d4      0x5e8 drivers/usb/musb-new/built-in.o
                0x00000000808271d4                musb_g_ep0_irq
 .text.fifo_setup
                0x00000000808277bc      0x100 drivers/usb/musb-new/built-in.o
 .text.musb_write_fifo
                0x00000000808278bc       0x70 drivers/usb/musb-new/built-in.o
                0x00000000808278bc                musb_write_fifo
 .text.musb_read_fifo
                0x000000008082792c       0x70 drivers/usb/musb-new/built-in.o
                0x000000008082792c                musb_read_fifo
 .text.musb_load_testpacket
                0x000000008082799c       0x24 drivers/usb/musb-new/built-in.o
                0x000000008082799c                musb_load_testpacket
 .text.musb_start
                0x00000000808279c0       0x88 drivers/usb/musb-new/built-in.o
                0x00000000808279c0                musb_start
 .text.musb_stop
                0x0000000080827a48       0x3c drivers/usb/musb-new/built-in.o
                0x0000000080827a48                musb_stop
 .text.musb_interrupt
                0x0000000080827a84       0xd2 drivers/usb/musb-new/built-in.o
                0x0000000080827a84                musb_interrupt
 *fill*         0x0000000080827b56        0x2 
 .text.musb_init_controller
                0x0000000080827b58      0x448 drivers/usb/musb-new/built-in.o
                0x0000000080827b58                musb_init_controller
 .text.musb_host_complete_urb
                0x0000000080827fa0       0x18 drivers/usb/musb-new/built-in.o
 .text.construct_urb
                0x0000000080827fb8       0x94 drivers/usb/musb-new/built-in.o
 .text.musb_create_int_queue
                0x000000008082804c       0xac drivers/usb/musb-new/built-in.o
 .text.submit_urb
                0x00000000808280f8       0x78 drivers/usb/musb-new/built-in.o
 .text.musb_submit_bulk_msg
                0x0000000080828170       0x40 drivers/usb/musb-new/built-in.o
 .text.musb_submit_control_msg
                0x00000000808281b0       0x78 drivers/usb/musb-new/built-in.o
 .text.musb_poll_int_queue
                0x0000000080828228       0x26 drivers/usb/musb-new/built-in.o
 .text._musb_reset_root_port.isra.1
                0x000000008082824e       0x72 drivers/usb/musb-new/built-in.o
 .text.musb_reset_root_port
                0x00000000808282c0        0xe drivers/usb/musb-new/built-in.o
 .text.musb_destroy_int_queue
                0x00000000808282ce       0x48 drivers/usb/musb-new/built-in.o
 .text.musb_submit_int_msg
                0x0000000080828316       0x46 drivers/usb/musb-new/built-in.o
 .text.musb_lowlevel_init
                0x000000008082835c       0x74 drivers/usb/musb-new/built-in.o
                0x000000008082835c                musb_lowlevel_init
 .text.musb_h_tx_flush_fifo
                0x00000000808283d0       0x40 drivers/usb/musb-new/built-in.o
 .text.musb_h_ep0_flush_fifo
                0x0000000080828410       0x3c drivers/usb/musb-new/built-in.o
 .text.musb_h_flush_rxfifo.isra.1
                0x000000008082844c       0x1a drivers/usb/musb-new/built-in.o
 *fill*         0x0000000080828466        0x2 
 .text.musb_start_urb
                0x0000000080828468      0x348 drivers/usb/musb-new/built-in.o
 .text.musb_advance_schedule
                0x00000000808287b0      0x13e drivers/usb/musb-new/built-in.o
 *fill*         0x00000000808288ee        0x2 
 .text.musb_h_ep0_irq
                0x00000000808288f0      0x1bc drivers/usb/musb-new/built-in.o
                0x00000000808288f0                musb_h_ep0_irq
 .text.musb_host_tx
                0x0000000080828aac      0x11a drivers/usb/musb-new/built-in.o
                0x0000000080828aac                musb_host_tx
 *fill*         0x0000000080828bc6        0x2 
 .text.musb_host_rx
                0x0000000080828bc8      0x270 drivers/usb/musb-new/built-in.o
                0x0000000080828bc8                musb_host_rx
 .text.musb_urb_enqueue
                0x0000000080828e38      0x364 drivers/usb/musb-new/built-in.o
                0x0000000080828e38                musb_urb_enqueue
 .text.musb_urb_dequeue
                0x000000008082919c       0xd4 drivers/usb/musb-new/built-in.o
                0x000000008082919c                musb_urb_dequeue
 .text.dsps_musb_enable
                0x0000000080829270       0x1c drivers/usb/musb-new/built-in.o
 .text.dsps_musb_disable
                0x000000008082928c        0x2 drivers/usb/musb-new/built-in.o
 *fill*         0x000000008082928e        0x2 
 .text.dsps_musb_init
                0x0000000080829290       0x50 drivers/usb/musb-new/built-in.o
 .text.dsps_musb_exit
                0x00000000808292e0       0x16 drivers/usb/musb-new/built-in.o
 .text.dsps_interrupt
                0x00000000808292f6       0x4e drivers/usb/musb-new/built-in.o
 .text.ti_musb_set_phy_power
                0x0000000080829344       0x26 drivers/usb/musb-new/built-in.o
 *fill*         0x000000008082936a        0x2 
 .text.ti_musb_ofdata_to_platdata
                0x000000008082936c      0x110 drivers/usb/musb-new/built-in.o
 .text.ti_musb_host_ofdata_to_platdata
                0x000000008082947c       0x2c drivers/usb/musb-new/built-in.o
 .text.ti_musb_peripheral_ofdata_to_platdata
                0x00000000808294a8       0x2c drivers/usb/musb-new/built-in.o
 .text.ti_musb_host_remove
                0x00000000808294d4       0x1a drivers/usb/musb-new/built-in.o
 .text.ti_musb_host_probe
                0x00000000808294ee       0x44 drivers/usb/musb-new/built-in.o
 .text.ti_musb_peripheral_remove
                0x0000000080829532       0x1e drivers/usb/musb-new/built-in.o
 .text.ti_musb_peripheral_probe
                0x0000000080829550       0x42 drivers/usb/musb-new/built-in.o
 *fill*         0x0000000080829592        0x2 
 .text.ti_musb_wrapper_bind
                0x0000000080829594       0xa0 drivers/usb/musb-new/built-in.o
 .text.dm_usb_gadget_handle_interrupts
                0x0000000080829634       0x14 drivers/usb/musb-new/built-in.o
                0x0000000080829634                dm_usb_gadget_handle_interrupts
 .text.env_get_yesno
                0x0000000080829648       0x2a env/built-in.o
                0x0000000080829648                env_get_yesno
 .text.env_get_default
                0x0000000080829672       0x2a env/built-in.o
                0x0000000080829672                env_get_default
 .text.env_set_default
                0x000000008082969c       0x6c env/built-in.o
                0x000000008082969c                env_set_default
 .text.env_set_default_vars
                0x0000000080829708       0x2c env/built-in.o
                0x0000000080829708                env_set_default_vars
 .text.env_import
                0x0000000080829734       0x8c env/built-in.o
                0x0000000080829734                env_import
 .text.env_import_redund
                0x00000000808297c0      0x100 env/built-in.o
                0x00000000808297c0                env_import_redund
 .text.env_export
                0x00000000808298c0       0x68 env/built-in.o
                0x00000000808298c0                env_export
 .text.env_relocate
                0x0000000080829928       0x28 env/built-in.o
                0x0000000080829928                env_relocate
 .text.env_complete
                0x0000000080829950      0x114 env/built-in.o
                0x0000000080829950                env_complete
 .text.env_get_location
                0x0000000080829a64       0x18 env/built-in.o
                0x0000000080829a64                env_get_location
 .text.env_driver_lookup
                0x0000000080829a7c       0x2c env/built-in.o
 .text.env_get_char_spec
                0x0000000080829aa8        0x8 env/built-in.o
                0x0000000080829aa8                env_get_char_spec
 .text.env_get_char
                0x0000000080829ab0       0x14 env/built-in.o
                0x0000000080829ab0                env_get_char
 .text.env_load
                0x0000000080829ac4       0x70 env/built-in.o
                0x0000000080829ac4                env_load
 .text.env_save
                0x0000000080829b34       0x58 env/built-in.o
                0x0000000080829b34                env_save
 .text.env_init
                0x0000000080829b8c       0x58 env/built-in.o
                0x0000000080829b8c                env_init
 .text.regex_callback
                0x0000000080829be4       0xd8 env/built-in.o
 .text.env_attr_walk
                0x0000000080829cbc       0xb4 env/built-in.o
                0x0000000080829cbc                env_attr_walk
 .text.env_attr_lookup
                0x0000000080829d70       0x4c env/built-in.o
                0x0000000080829d70                env_attr_lookup
 .text.clear_callback
                0x0000000080829dbc        0x8 env/built-in.o
 .text.find_env_callback
                0x0000000080829dc4       0x40 env/built-in.o
 .text.on_callbacks
                0x0000000080829e04       0x38 env/built-in.o
 .text.set_callback
                0x0000000080829e3c       0x54 env/built-in.o
 .text.env_callback_init
                0x0000000080829e90       0x78 env/built-in.o
                0x0000000080829e90                env_callback_init
 .text.skip_num
                0x0000000080829f08       0x3c env/built-in.o
 .text.clear_flags
                0x0000000080829f44        0x8 env/built-in.o
 .text.on_flags
                0x0000000080829f4c       0x38 env/built-in.o
 .text.env_flags_parse_vartype
                0x0000000080829f84       0x30 env/built-in.o
                0x0000000080829f84                env_flags_parse_vartype
 .text.env_flags_parse_varaccess
                0x0000000080829fb4       0x30 env/built-in.o
                0x0000000080829fb4                env_flags_parse_varaccess
 .text.set_flags
                0x0000000080829fe4       0x68 env/built-in.o
 .text.eth_validate_ethaddr_str
                0x000000008082a04c       0x52 env/built-in.o
                0x000000008082a04c                eth_validate_ethaddr_str
 *fill*         0x000000008082a09e        0x2 
 .text.env_flags_init
                0x000000008082a0a0       0x90 env/built-in.o
                0x000000008082a0a0                env_flags_init
 .text.env_flags_validate
                0x000000008082a130      0x188 env/built-in.o
                0x000000008082a130                env_flags_validate
 .text.mmc_get_env_addr
                0x000000008082a2b8       0xb0 env/built-in.o
                0x000000008082a2b8                mmc_get_env_addr
 .text.mmc_get_env_dev
                0x000000008082a368        0x4 env/built-in.o
                0x000000008082a368                mmc_get_env_dev
 .text.fini_mmc_for_env.isra.0
                0x000000008082a36c       0x1c env/built-in.o
 .text.mmc_get_env_part
                0x000000008082a388        0x4 env/built-in.o
                0x000000008082a388                mmc_get_env_part
 .text.init_mmc_for_env
                0x000000008082a38c       0x60 env/built-in.o
 .text.env_mmc_save
                0x000000008082a3ec       0xe8 env/built-in.o
 .text.env_mmc_load
                0x000000008082a4d4      0x120 env/built-in.o
 .text.env_fat_save
                0x000000008082a5f4       0xa4 env/built-in.o
 .text.env_fat_load
                0x000000008082a698       0xa0 env/built-in.o
 .text.fs_probe_unsupported
                0x000000008082a738       0x14 fs/built-in.o
 .text.fs_ls_unsupported
                0x000000008082a74c        0x6 fs/built-in.o
 .text.fs_exists_unsupported
                0x000000008082a752        0x4 fs/built-in.o
 .text.fs_size_unsupported
                0x000000008082a756        0x6 fs/built-in.o
 .text.fs_read_unsupported
                0x000000008082a75c        0x6 fs/built-in.o
 .text.fs_close_unsupported
                0x000000008082a762        0x2 fs/built-in.o
 .text.fs_opendir_unsupported
                0x000000008082a764        0x6 fs/built-in.o
 *fill*         0x000000008082a76a        0x2 
 .text.fs_get_info
                0x000000008082a76c       0x24 fs/built-in.o
 .text.fs_close
                0x000000008082a790       0x18 fs/built-in.o
 .text.fs_write_unsupported
                0x000000008082a7a8        0x6 fs/built-in.o
 .text.fs_mkdir_unsupported
                0x000000008082a7ae        0x6 fs/built-in.o
 .text.fs_ln_unsupported
                0x000000008082a7b4        0x6 fs/built-in.o
 .text.fs_uuid_unsupported
                0x000000008082a7ba        0x6 fs/built-in.o
 .text.fs_unlink_unsupported
                0x000000008082a7c0        0x6 fs/built-in.o
 *fill*         0x000000008082a7c6        0x2 
 .text.fs_set_blk_dev
                0x000000008082a7c8       0x7c fs/built-in.o
                0x000000008082a7c8                fs_set_blk_dev
 .text.fs_set_blk_dev_with_part
                0x000000008082a844       0x68 fs/built-in.o
                0x000000008082a844                fs_set_blk_dev_with_part
 .text.fs_ls    0x000000008082a8ac       0x24 fs/built-in.o
                0x000000008082a8ac                fs_ls
 .text.fs_exists
                0x000000008082a8d0       0x20 fs/built-in.o
                0x000000008082a8d0                fs_exists
 .text.fs_size  0x000000008082a8f0       0x24 fs/built-in.o
                0x000000008082a8f0                fs_size
 .text.fs_read  0x000000008082a914       0x40 fs/built-in.o
                0x000000008082a914                fs_read
 .text.fs_write
                0x000000008082a954       0x60 fs/built-in.o
                0x000000008082a954                fs_write
 .text.fs_opendir
                0x000000008082a9b4       0x50 fs/built-in.o
                0x000000008082a9b4                fs_opendir
 .text.fs_readdir
                0x000000008082aa04       0x3c fs/built-in.o
                0x000000008082aa04                fs_readdir
 .text.fs_closedir
                0x000000008082aa40       0x2c fs/built-in.o
                0x000000008082aa40                fs_closedir
 .text.fs_ls_generic
                0x000000008082aa6c       0x78 fs/built-in.o
 .text.fs_unlink
                0x000000008082aae4       0x24 fs/built-in.o
                0x000000008082aae4                fs_unlink
 .text.fs_mkdir
                0x000000008082ab08       0x24 fs/built-in.o
                0x000000008082ab08                fs_mkdir
 .text.fs_ln    0x000000008082ab2c       0x38 fs/built-in.o
                0x000000008082ab2c                fs_ln
 .text.do_size  0x000000008082ab64       0x40 fs/built-in.o
                0x000000008082ab64                do_size
 .text.do_load  0x000000008082aba4      0x238 fs/built-in.o
                0x000000008082aba4                do_load
 .text.do_ls    0x000000008082addc       0x40 fs/built-in.o
                0x000000008082addc                do_ls
 .text.file_exists
                0x000000008082ae1c       0x1a fs/built-in.o
                0x000000008082ae1c                file_exists
 *fill*         0x000000008082ae36        0x2 
 .text.do_save  0x000000008082ae38       0xf8 fs/built-in.o
                0x000000008082ae38                do_save
 .text.do_fs_type
                0x000000008082af30       0x50 fs/built-in.o
                0x000000008082af30                do_fs_type
 .text.do_rm    0x000000008082af80       0x2c fs/built-in.o
                0x000000008082af80                do_rm
 .text.do_mkdir
                0x000000008082afac       0x34 fs/built-in.o
                0x000000008082afac                do_mkdir
 .text.do_ln    0x000000008082afe0       0x2e fs/built-in.o
                0x000000008082afe0                do_ln
 *fill*         0x000000008082b00e        0x2 
 .text.get_fs   0x000000008082b010        0x8 fs/built-in.o
                0x000000008082b010                get_fs
 .text.ext4fs_free_node
                0x000000008082b018       0x1c fs/built-in.o
                0x000000008082b018                ext4fs_free_node
 .text.ext4fs_ls
                0x000000008082b034       0x5c fs/built-in.o
                0x000000008082b034                ext4fs_ls
 .text.ext4fs_exists
                0x000000008082b090       0x14 fs/built-in.o
                0x000000008082b090                ext4fs_exists
 .text.ext4fs_size
                0x000000008082b0a4        0x4 fs/built-in.o
                0x000000008082b0a4                ext4fs_size
 .text.ext4fs_probe
                0x000000008082b0a8       0x1e fs/built-in.o
                0x000000008082b0a8                ext4fs_probe
 *fill*         0x000000008082b0c6        0x2 
 .text.ext4fs_uuid
                0x000000008082b0c8       0x20 fs/built-in.o
                0x000000008082b0c8                ext4fs_uuid
 .text.ext_cache_init
                0x000000008082b0e8        0x8 fs/built-in.o
                0x000000008082b0e8                ext_cache_init
 .text.ext_cache_fini
                0x000000008082b0f0       0x14 fs/built-in.o
                0x000000008082b0f0                ext_cache_fini
 .text.ext4fs_read_file
                0x000000008082b104      0x280 fs/built-in.o
                0x000000008082b104                ext4fs_read_file
 .text.ext4fs_read
                0x000000008082b384       0x38 fs/built-in.o
                0x000000008082b384                ext4fs_read
 .text.ext4_read_file
                0x000000008082b3bc       0x50 fs/built-in.o
                0x000000008082b3bc                ext4_read_file
 .text.ext_cache_read
                0x000000008082b40c       0x4e fs/built-in.o
                0x000000008082b40c                ext_cache_read
 .text.ext4fs_get_group_descriptor
                0x000000008082b45a        0xa fs/built-in.o
                0x000000008082b45a                ext4fs_get_group_descriptor
 .text.ext4fs_sb_get_free_blocks
                0x000000008082b464       0x1c fs/built-in.o
                0x000000008082b464                ext4fs_sb_get_free_blocks
 .text.ext4fs_sb_set_free_blocks
                0x000000008082b480        0xa fs/built-in.o
                0x000000008082b480                ext4fs_sb_set_free_blocks
 .text.ext4fs_bg_get_free_blocks
                0x000000008082b48a       0x12 fs/built-in.o
                0x000000008082b48a                ext4fs_bg_get_free_blocks
 .text.ext4fs_bg_get_block_id
                0x000000008082b49c       0x1c fs/built-in.o
                0x000000008082b49c                ext4fs_bg_get_block_id
 .text.ext4fs_bg_get_inode_id
                0x000000008082b4b8       0x1c fs/built-in.o
                0x000000008082b4b8                ext4fs_bg_get_inode_id
 .text.ext4fs_bg_get_inode_table_id
                0x000000008082b4d4       0x1c fs/built-in.o
                0x000000008082b4d4                ext4fs_bg_get_inode_table_id
 .text.ext4fs_div_roundup
                0x000000008082b4f0       0x14 fs/built-in.o
                0x000000008082b4f0                ext4fs_div_roundup
 .text.put_ext4
                0x000000008082b504      0x120 fs/built-in.o
                0x000000008082b504                put_ext4
 .text.ext4fs_set_block_bmap
                0x000000008082b624       0x6c fs/built-in.o
                0x000000008082b624                ext4fs_set_block_bmap
 .text.ext4fs_reset_block_bmap
                0x000000008082b690       0x64 fs/built-in.o
                0x000000008082b690                ext4fs_reset_block_bmap
 .text.ext4fs_set_inode_bmap
                0x000000008082b6f4       0x4c fs/built-in.o
                0x000000008082b6f4                ext4fs_set_inode_bmap
 .text.ext4fs_reset_inode_bmap
                0x000000008082b740       0x48 fs/built-in.o
                0x000000008082b740                ext4fs_reset_inode_bmap
 .text.ext4fs_checksum_update
                0x000000008082b788       0x5a fs/built-in.o
                0x000000008082b788                ext4fs_checksum_update
 *fill*         0x000000008082b7e2        0x2 
 .text.ext4fs_get_new_blk_no
                0x000000008082b7e4      0x2c4 fs/built-in.o
                0x000000008082b7e4                ext4fs_get_new_blk_no
 .text.ext4fs_get_new_inode_no
                0x000000008082baa8      0x2c0 fs/built-in.o
                0x000000008082baa8                ext4fs_get_new_inode_no
 .text.ext4fs_allocate_blocks
                0x000000008082bd68      0x434 fs/built-in.o
                0x000000008082bd68                ext4fs_allocate_blocks
 .text.ext4fs_read_inode
                0x000000008082c19c      0x122 fs/built-in.o
                0x000000008082c19c                ext4fs_read_inode
 *fill*         0x000000008082c2be        0x2 
 .text.ext4fs_iget
                0x000000008082c2c0       0x1c fs/built-in.o
                0x000000008082c2c0                ext4fs_iget
 .text.read_allocated_block
                0x000000008082c2dc      0x5d4 fs/built-in.o
                0x000000008082c2dc                read_allocated_block
 .text.ext4fs_update_parent_dentry
                0x000000008082c8b0      0x248 fs/built-in.o
                0x000000008082c8b0                ext4fs_update_parent_dentry
 .text.search_dir
                0x000000008082caf8       0xd0 fs/built-in.o
 .text.ext4fs_get_parent_inode_num
                0x000000008082cbc8      0x2bc fs/built-in.o
                0x000000008082cbc8                ext4fs_get_parent_inode_num
 .text.ext4fs_filename_unlink
                0x000000008082ce84      0x128 fs/built-in.o
                0x000000008082ce84                ext4fs_filename_unlink
 .text.ext4fs_reinit_global
                0x000000008082cfac       0x78 fs/built-in.o
                0x000000008082cfac                ext4fs_reinit_global
 .text.ext4fs_close
                0x000000008082d024       0x38 fs/built-in.o
                0x000000008082d024                ext4fs_close
 .text.ext4fs_iterate_dir
                0x000000008082d05c      0x1f4 fs/built-in.o
                0x000000008082d05c                ext4fs_iterate_dir
 .text.ext4fs_find_file1
                0x000000008082d250      0x1b4 fs/built-in.o
 .text.ext4fs_find_file
                0x000000008082d404       0x40 fs/built-in.o
                0x000000008082d404                ext4fs_find_file
 .text.ext4fs_open
                0x000000008082d444       0x64 fs/built-in.o
                0x000000008082d444                ext4fs_open
 .text.ext4fs_mount
                0x000000008082d4a8       0x90 fs/built-in.o
                0x000000008082d4a8                ext4fs_mount
 .text.ext4fs_set_blk_dev
                0x000000008082d538       0x54 fs/built-in.o
                0x000000008082d538                ext4fs_set_blk_dev
 .text.ext4fs_devread
                0x000000008082d58c       0x28 fs/built-in.o
                0x000000008082d58c                ext4fs_devread
 .text.ext4_read_superblock
                0x000000008082d5b4       0x28 fs/built-in.o
                0x000000008082d5b4                ext4_read_superblock
 .text.ext4fs_update
                0x000000008082d5dc       0xc4 fs/built-in.o
 .text.ext4fs_get_bgdtable
                0x000000008082d6a0       0x74 fs/built-in.o
                0x000000008082d6a0                ext4fs_get_bgdtable
 .text.ext4fs_deinit
                0x000000008082d714       0xfc fs/built-in.o
                0x000000008082d714                ext4fs_deinit
 .text.ext4fs_init
                0x000000008082d810      0x1d4 fs/built-in.o
                0x000000008082d810                ext4fs_init
 .text.ext4fs_write
                0x000000008082d9e4      0xc80 fs/built-in.o
                0x000000008082d9e4                ext4fs_write
 .text.ext4_write_file
                0x000000008082e664       0x48 fs/built-in.o
                0x000000008082e664                ext4_write_file
 .text.ext4fs_create_link
                0x000000008082e6ac       0x1a fs/built-in.o
                0x000000008082e6ac                ext4fs_create_link
 *fill*         0x000000008082e6c6        0x2 
 .text.ext4fs_dump_metadata
                0x000000008082e6c8       0x3c fs/built-in.o
                0x000000008082e6c8                ext4fs_dump_metadata
 .text.ext4fs_free_journal
                0x000000008082e704       0x84 fs/built-in.o
                0x000000008082e704                ext4fs_free_journal
 .text.ext4fs_log_gdt
                0x000000008082e788       0x84 fs/built-in.o
                0x000000008082e788                ext4fs_log_gdt
 .text.ext4fs_log_journal
                0x000000008082e80c       0x9c fs/built-in.o
                0x000000008082e80c                ext4fs_log_journal
 .text.ext4fs_put_metadata
                0x000000008082e8a8       0x8c fs/built-in.o
                0x000000008082e8a8                ext4fs_put_metadata
 .text.ext4fs_push_revoke_blk
                0x000000008082e934       0x90 fs/built-in.o
                0x000000008082e934                ext4fs_push_revoke_blk
 .text.ext4fs_free_revoke_blks
                0x000000008082e9c4       0x3c fs/built-in.o
                0x000000008082e9c4                ext4fs_free_revoke_blks
 .text.check_blknr_for_revoke
                0x000000008082ea00       0x3c fs/built-in.o
                0x000000008082ea00                check_blknr_for_revoke
 .text.recover_transaction
                0x000000008082ea3c       0xf0 fs/built-in.o
                0x000000008082ea3c                recover_transaction
 .text.print_jrnl_status
                0x000000008082eb2c       0x14 fs/built-in.o
                0x000000008082eb2c                print_jrnl_status
 .text.ext4fs_check_journal_state
                0x000000008082eb40      0x1f0 fs/built-in.o
                0x000000008082eb40                ext4fs_check_journal_state
 .text.ext4fs_init_journal
                0x000000008082ed30      0x194 fs/built-in.o
                0x000000008082ed30                ext4fs_init_journal
 .text.ext4fs_update_journal
                0x000000008082eec4      0x230 fs/built-in.o
                0x000000008082eec4                ext4fs_update_journal
 .text.ext2fs_crc16
                0x000000008082f0f4       0x24 fs/built-in.o
                0x000000008082f0f4                ext2fs_crc16
 .text.downcase
                0x000000008082f118       0x24 fs/built-in.o
 .text.mkcksum  0x000000008082f13c       0x36 fs/built-in.o
 .text.fat_itr_child
                0x000000008082f172       0x3e fs/built-in.o
 .text.disk_read
                0x000000008082f1b0       0x30 fs/built-in.o
 .text.get_cluster
                0x000000008082f1e0       0xe6 fs/built-in.o
 *fill*         0x000000008082f2c6        0x2 
 .text.read_bootsectandvi
                0x000000008082f2c8       0xbc fs/built-in.o
 .text.fat_itr_root
                0x000000008082f384      0x12c fs/built-in.o
 .text.split_filename
                0x000000008082f4b0       0x8c fs/built-in.o
 .text.disk_write
                0x000000008082f53c       0x50 fs/built-in.o
 .text.flush_dirty_fat_buffer
                0x000000008082f58c       0x58 fs/built-in.o
 .text.get_fatent
                0x000000008082f5e4       0xf8 fs/built-in.o
 .text.next_dent
                0x000000008082f6dc       0xc0 fs/built-in.o
 .text.set_fatent_value
                0x000000008082f79c      0x164 fs/built-in.o
 .text.determine_fatent
                0x000000008082f900       0x24 fs/built-in.o
 .text.clear_fatent
                0x000000008082f924       0x58 fs/built-in.o
 .text.set_name
                0x000000008082f97c       0xc8 fs/built-in.o
 .text.set_sectors.isra.2
                0x000000008082fa44       0xea fs/built-in.o
 *fill*         0x000000008082fb2e        0x2 
 .text.normalize_longname
                0x000000008082fb30       0x58 fs/built-in.o
 .text.fat_itr_next
                0x000000008082fb88      0x190 fs/built-in.o
 .text.fat_itr_resolve
                0x000000008082fd18      0x100 fs/built-in.o
 .text.flush_dir
                0x000000008082fe18       0x3a fs/built-in.o
 *fill*         0x000000008082fe52        0x2 
 .text.new_dir_table
                0x000000008082fe54       0x80 fs/built-in.o
 .text.fill_dir_slot
                0x000000008082fed4      0x16e fs/built-in.o
 .text.find_directory_entry
                0x0000000080830042       0x5e fs/built-in.o
 .text.set_contents
                0x00000000808300a0      0x730 fs/built-in.o
 .text.fat_set_blk_dev
                0x00000000808307d0       0x8c fs/built-in.o
                0x00000000808307d0                fat_set_blk_dev
 .text.file_fat_detectfs
                0x000000008083085c       0xd4 fs/built-in.o
                0x000000008083085c                file_fat_detectfs
 .text.fat_exists
                0x0000000080830930       0x44 fs/built-in.o
                0x0000000080830930                fat_exists
 .text.fat_size
                0x0000000080830974       0x7c fs/built-in.o
                0x0000000080830974                fat_size
 .text.file_fat_read_at
                0x00000000808309f0      0x308 fs/built-in.o
                0x00000000808309f0                file_fat_read_at
 .text.file_fat_read
                0x0000000080830cf8       0x22 fs/built-in.o
                0x0000000080830cf8                file_fat_read
 *fill*         0x0000000080830d1a        0x2 
 .text.fat_read_file
                0x0000000080830d1c       0x30 fs/built-in.o
                0x0000000080830d1c                fat_read_file
 .text.fat_opendir
                0x0000000080830d4c       0x60 fs/built-in.o
                0x0000000080830d4c                fat_opendir
 .text.fat_readdir
                0x0000000080830dac       0x54 fs/built-in.o
                0x0000000080830dac                fat_readdir
 .text.fat_closedir
                0x0000000080830e00       0x16 fs/built-in.o
                0x0000000080830e00                fat_closedir
 .text.fat_close
                0x0000000080830e16        0x2 fs/built-in.o
                0x0000000080830e16                fat_close
 .text.file_fat_write_at
                0x0000000080830e18      0x1d4 fs/built-in.o
                0x0000000080830e18                file_fat_write_at
 .text.file_fat_write
                0x0000000080830fec       0x1a fs/built-in.o
                0x0000000080830fec                file_fat_write
 *fill*         0x0000000080831006        0x2 
 .text.fat_unlink
                0x0000000080831008      0x1cc fs/built-in.o
                0x0000000080831008                fat_unlink
 .text.fat_mkdir
                0x00000000808311d4      0x27c fs/built-in.o
                0x00000000808311d4                fat_mkdir
 .text.fs_devread
                0x0000000080831450      0x170 fs/built-in.o
                0x0000000080831450                fs_devread
 .text.efi_uc_destroy
                0x00000000808315c0       0x10 lib/built-in.o
 .text.efi_uc_init
                0x00000000808315d0       0x10 lib/built-in.o
 .text.check_node_type
                0x00000000808315e0       0x54 lib/built-in.o
 .text.efi_uc_start
                0x0000000080831634       0x94 lib/built-in.o
 .text.efi_uc_supported
                0x00000000808316c8       0x84 lib/built-in.o
 .text.disconnect_child
                0x000000008083174c       0x44 lib/built-in.o
 .text.efi_uc_stop
                0x0000000080831790       0xcc lib/built-in.o
 .text.efi_driver_init
                0x000000008083185c       0xb8 lib/built-in.o
                0x000000008083185c                efi_driver_init
 .text.efi_bl_write
                0x0000000080831914       0x3a lib/built-in.o
 .text.efi_bl_read
                0x000000008083194e       0x3a lib/built-in.o
 .text.efi_bl_bind
                0x0000000080831988       0xc4 lib/built-in.o
 .text.get_var.constprop.0
                0x0000000080831a4c       0x7c lib/built-in.o
 .text.efi_deserialize_load_option
                0x0000000080831ac8       0x3e lib/built-in.o
                0x0000000080831ac8                efi_deserialize_load_option
 *fill*         0x0000000080831b06        0x2 
 .text.try_load_entry
                0x0000000080831b08      0x128 lib/built-in.o
 .text.efi_bootmgr_load
                0x0000000080831c30       0xf4 lib/built-in.o
                0x0000000080831c30                efi_bootmgr_load
 .text.efi_is_event
                0x0000000080831d24       0x24 lib/built-in.o
 .text.__efi_entry_check
                0x0000000080831d48       0x28 lib/built-in.o
                0x0000000080831d48                __efi_entry_check
 .text.__efi_exit_check
                0x0000000080831d70       0x20 lib/built-in.o
                0x0000000080831d70                __efi_exit_check
 .text.efi_process_event_queue
                0x0000000080831d90       0x5c lib/built-in.o
 .text.efi_queue_event
                0x0000000080831dec       0x58 lib/built-in.o
 .text.efi_set_mem
                0x0000000080831e44       0x1c lib/built-in.o
 .text.efi_copy_mem
                0x0000000080831e60       0x1a lib/built-in.o
 *fill*         0x0000000080831e7a        0x2 
 .text.efi_calculate_crc32
                0x0000000080831e7c       0x30 lib/built-in.o
 .text.efi_set_watchdog_timer
                0x0000000080831eac       0x18 lib/built-in.o
 .text.efi_get_next_monotonic_count
                0x0000000080831ec4       0x34 lib/built-in.o
 .text.efi_register_protocol_notify
                0x0000000080831ef8       0x60 lib/built-in.o
 .text.efi_close_event
                0x0000000080831f58       0xb0 lib/built-in.o
 .text.efi_free_pool_ext
                0x0000000080832008       0x18 lib/built-in.o
 .text.efi_allocate_pool_ext
                0x0000000080832020       0x1c lib/built-in.o
 .text.efi_get_memory_map_ext
                0x000000008083203c       0x26 lib/built-in.o
 .text.efi_free_pages_ext
                0x0000000080832062       0x20 lib/built-in.o
 .text.efi_allocate_pages_ext
                0x0000000080832082       0x20 lib/built-in.o
 *fill*         0x00000000808320a2        0x2 
 .text.efi_raise_tpl
                0x00000000808320a4       0x24 lib/built-in.o
 .text.efi_save_gd
                0x00000000808320c8        0xc lib/built-in.o
                0x00000000808320c8                efi_save_gd
 .text.efi_restore_gd
                0x00000000808320d4       0x10 lib/built-in.o
                0x00000000808320d4                efi_restore_gd
 .text.is_valid_tpl
                0x00000000808320e4       0x24 lib/built-in.o
                0x00000000808320e4                is_valid_tpl
 .text.efi_signal_event
                0x0000000080832108       0x68 lib/built-in.o
                0x0000000080832108                efi_signal_event
 .text.efi_exit_boot_services
                0x0000000080832170       0xdc lib/built-in.o
 .text.efi_signal_event_ext
                0x000000008083224c       0x2c lib/built-in.o
 .text.efi_add_handle
                0x0000000080832278       0x1c lib/built-in.o
                0x0000000080832278                efi_add_handle
 .text.efi_create_handle
                0x0000000080832294       0x20 lib/built-in.o
                0x0000000080832294                efi_create_handle
 .text.efi_create_event
                0x00000000808322b4       0xbc lib/built-in.o
                0x00000000808322b4                efi_create_event
 .text.efi_create_event_ex
                0x0000000080832370       0x44 lib/built-in.o
                0x0000000080832370                efi_create_event_ex
 .text.efi_create_event_ext
                0x00000000808323b4       0x2a lib/built-in.o
 *fill*         0x00000000808323de        0x2 
 .text.efi_timer_check
                0x00000000808323e0       0x70 lib/built-in.o
                0x00000000808323e0                efi_timer_check
 .text.efi_stall
                0x0000000080832450       0x3a lib/built-in.o
 *fill*         0x000000008083248a        0x2 
 .text.efi_check_event
                0x000000008083248c       0x54 lib/built-in.o
 .text.efi_wait_for_event
                0x00000000808324e0       0x9c lib/built-in.o
 .text.efi_restore_tpl
                0x000000008083257c       0x28 lib/built-in.o
 .text.efi_set_timer
                0x00000000808325a4       0xa0 lib/built-in.o
                0x00000000808325a4                efi_set_timer
 .text.efi_set_timer_ext
                0x0000000080832644       0x20 lib/built-in.o
 .text.efi_search_obj
                0x0000000080832664       0x1c lib/built-in.o
                0x0000000080832664                efi_search_obj
 .text.efi_search_protocol
                0x0000000080832680       0x44 lib/built-in.o
                0x0000000080832680                efi_search_protocol
 .text.efi_remove_protocol
                0x00000000808326c4       0x38 lib/built-in.o
                0x00000000808326c4                efi_remove_protocol
 .text.efi_locate_protocol
                0x00000000808326fc       0xa4 lib/built-in.o
 .text.efi_open_protocol_information
                0x00000000808327a0       0x90 lib/built-in.o
 .text.efi_locate_handle
                0x0000000080832830       0xe4 lib/built-in.o
 .text.efi_locate_handle_buffer
                0x0000000080832914       0x74 lib/built-in.o
 .text.efi_locate_device_path
                0x0000000080832988       0xc0 lib/built-in.o
 .text.efi_locate_handle_ext
                0x0000000080832a48       0x26 lib/built-in.o
 *fill*         0x0000000080832a6e        0x2 
 .text.efi_remove_all_protocols
                0x0000000080832a70       0x38 lib/built-in.o
                0x0000000080832a70                efi_remove_all_protocols
 .text.efi_delete_handle
                0x0000000080832aa8       0x24 lib/built-in.o
                0x0000000080832aa8                efi_delete_handle
 .text.efi_close_protocol
                0x0000000080832acc       0x80 lib/built-in.o
 .text.efi_delete_image
                0x0000000080832b4c       0x94 lib/built-in.o
 .text.efi_disconnect_controller
                0x0000000080832be0      0x17c lib/built-in.o
 .text.efi_disconnect_all_drivers
                0x0000000080832d5c       0xfc lib/built-in.o
 .text.efi_open_protocol
                0x0000000080832e58      0x1a8 lib/built-in.o
 .text.efi_start_image
                0x0000000080833000       0xc0 lib/built-in.o
                0x0000000080833000                efi_start_image
 .text.efi_handle_protocol
                0x00000000808330c0       0x20 lib/built-in.o
 .text.efi_exit
                0x00000000808330e0       0xc8 lib/built-in.o
 .text.efi_bind_controller
                0x00000000808331a8       0x74 lib/built-in.o
 .text.efi_uninstall_protocol
                0x000000008083321c       0x84 lib/built-in.o
 .text.efi_uninstall_protocol_interface
                0x00000000808332a0       0x3a lib/built-in.o
 *fill*         0x00000000808332da        0x2 
 .text.efi_unload_image
                0x00000000808332dc       0x80 lib/built-in.o
                0x00000000808332dc                efi_unload_image
 .text.efi_protocols_per_handle
                0x000000008083335c       0x78 lib/built-in.o
 .text.efi_connect_controller
                0x00000000808333d4      0x11c lib/built-in.o
 .text.efi_add_protocol
                0x00000000808334f0       0xc8 lib/built-in.o
                0x00000000808334f0                efi_add_protocol
 .text.efi_install_protocol_interface
                0x00000000808335b8       0x44 lib/built-in.o
 .text.efi_install_multiple_protocol_interfaces
                0x00000000808335fc       0xc4 lib/built-in.o
                0x00000000808335fc                efi_install_multiple_protocol_interfaces
 .text.efi_uninstall_multiple_protocol_interfaces
                0x00000000808336c0       0x94 lib/built-in.o
 .text.efi_reinstall_protocol_interface
                0x0000000080833754       0x46 lib/built-in.o
 *fill*         0x000000008083379a        0x2 
 .text.efi_install_configuration_table
                0x000000008083379c       0xe8 lib/built-in.o
                0x000000008083379c                efi_install_configuration_table
 .text.efi_install_configuration_table_ext
                0x0000000080833884       0x18 lib/built-in.o
 .text.efi_setup_loaded_image
                0x000000008083389c       0xb8 lib/built-in.o
                0x000000008083389c                efi_setup_loaded_image
 .text.efi_load_image
                0x0000000080833954      0x1d4 lib/built-in.o
                0x0000000080833954                efi_load_image
 .text.efi_initialize_system_table
                0x0000000080833b28       0x50 lib/built-in.o
                0x0000000080833b28                efi_initialize_system_table
 .text.efi_cout_enable_cursor
                0x0000000080833b78       0x2c lib/built-in.o
 .text.efi_cout_set_cursor_position
                0x0000000080833ba4       0x64 lib/built-in.o
 .text.efi_cout_clear_screen
                0x0000000080833c08       0x24 lib/built-in.o
 .text.efi_cout_set_attribute
                0x0000000080833c2c       0x4c lib/built-in.o
 .text.efi_cout_test_string
                0x0000000080833c78        0xe lib/built-in.o
 *fill*         0x0000000080833c86        0x2 
 .text.efi_cout_reset
                0x0000000080833c88       0x34 lib/built-in.o
 .text.efi_cin_set_state
                0x0000000080833cbc       0x14 lib/built-in.o
 .text.efi_cout_output_string
                0x0000000080833cd0       0xe8 lib/built-in.o
 .text.efi_cin_unregister_key_notify
                0x0000000080833db8       0x44 lib/built-in.o
 .text.efi_cin_empty_buffer
                0x0000000080833dfc       0x18 lib/built-in.o
 .text.efi_cin_reset
                0x0000000080833e14       0x20 lib/built-in.o
 .text.efi_cin_reset_ex
                0x0000000080833e34       0x20 lib/built-in.o
 .text.efi_cin_register_key_notify
                0x0000000080833e54       0x5c lib/built-in.o
 .text.term_get_char
                0x0000000080833eb0       0x2a lib/built-in.o
 *fill*         0x0000000080833eda        0x2 
 .text.efi_cout_set_mode
                0x0000000080833edc       0x4c lib/built-in.o
 .text.efi_cout_query_mode
                0x0000000080833f28       0x50 lib/built-in.o
 .text.set_shift_mask
                0x0000000080833f78       0x3a lib/built-in.o
                0x0000000080833f78                set_shift_mask
 *fill*         0x0000000080833fb2        0x2 
 .text.analyze_modifiers.constprop.6
                0x0000000080833fb4       0x58 lib/built-in.o
 .text.efi_cin_check
                0x000000008083400c      0x22c lib/built-in.o
 .text.efi_cin_read_key_stroke
                0x0000000080834238       0x58 lib/built-in.o
 .text.efi_console_timer_notify
                0x0000000080834290       0x12 lib/built-in.o
 *fill*         0x00000000808342a2        0x2 
 .text.efi_cin_read_key_stroke_ex
                0x00000000808342a4       0x98 lib/built-in.o
 .text.efi_key_notify
                0x000000008083433c       0x12 lib/built-in.o
 *fill*         0x000000008083434e        0x2 
 .text.efi_console_register
                0x0000000080834350      0x1f8 lib/built-in.o
                0x0000000080834350                efi_console_register
 .text.dp_size  0x0000000080834548       0x50 lib/built-in.o
 .text.dp_alloc
                0x0000000080834598       0x24 lib/built-in.o
 .text.dp_part_size
                0x00000000808345bc       0x2e lib/built-in.o
 .text.dp_part_node
                0x00000000808345ea      0x138 lib/built-in.o
 *fill*         0x0000000080834722        0x2 
 .text.dp_fill  0x0000000080834724      0x144 lib/built-in.o
 .text.dp_part_fill
                0x0000000080834868       0x36 lib/built-in.o
 .text.efi_dp_next
                0x000000008083489e       0x22 lib/built-in.o
                0x000000008083489e                efi_dp_next
 .text.efi_dp_match
                0x00000000808348c0       0x42 lib/built-in.o
                0x00000000808348c0                efi_dp_match
 .text.efi_dp_last_node
                0x0000000080834902       0x20 lib/built-in.o
                0x0000000080834902                efi_dp_last_node
 .text.efi_dp_instance_size
                0x0000000080834922       0x26 lib/built-in.o
                0x0000000080834922                efi_dp_instance_size
 .text.find_obj
                0x0000000080834948       0x94 lib/built-in.o
 .text.efi_dp_find_obj
                0x00000000808349dc       0x2c lib/built-in.o
                0x00000000808349dc                efi_dp_find_obj
 .text.efi_dp_size
                0x0000000080834a08       0x20 lib/built-in.o
                0x0000000080834a08                efi_dp_size
 .text.efi_dp_dup
                0x0000000080834a28       0x26 lib/built-in.o
                0x0000000080834a28                efi_dp_dup
 *fill*         0x0000000080834a4e        0x2 
 .text.efi_dp_append
                0x0000000080834a50       0x54 lib/built-in.o
                0x0000000080834a50                efi_dp_append
 .text.efi_dp_append_node
                0x0000000080834aa4       0x80 lib/built-in.o
                0x0000000080834aa4                efi_dp_append_node
 .text.efi_dp_create_device_node
                0x0000000080834b24       0x24 lib/built-in.o
                0x0000000080834b24                efi_dp_create_device_node
 .text.efi_dp_append_instance
                0x0000000080834b48       0x64 lib/built-in.o
                0x0000000080834b48                efi_dp_append_instance
 .text.efi_dp_get_next_instance
                0x0000000080834bac       0x56 lib/built-in.o
                0x0000000080834bac                efi_dp_get_next_instance
 .text.efi_dp_is_multi_instance
                0x0000000080834c02       0x1e lib/built-in.o
                0x0000000080834c02                efi_dp_is_multi_instance
 .text.efi_dp_from_part
                0x0000000080834c20       0x2c lib/built-in.o
                0x0000000080834c20                efi_dp_from_part
 .text.efi_dp_part_node
                0x0000000080834c4c       0x22 lib/built-in.o
                0x0000000080834c4c                efi_dp_part_node
 *fill*         0x0000000080834c6e        0x2 
 .text.efi_dp_from_file
                0x0000000080834c70       0x98 lib/built-in.o
                0x0000000080834c70                efi_dp_from_file
 .text.efi_dp_from_eth
                0x0000000080834d08       0x34 lib/built-in.o
                0x0000000080834d08                efi_dp_from_eth
 .text.efi_dp_from_mem
                0x0000000080834d3c       0xa4 lib/built-in.o
                0x0000000080834d3c                efi_dp_from_mem
 .text.efi_dp_split_file_path
                0x0000000080834de0       0x60 lib/built-in.o
                0x0000000080834de0                efi_dp_split_file_path
 .text.efi_dp_from_name
                0x0000000080834e40       0xc0 lib/built-in.o
                0x0000000080834e40                efi_dp_from_name
 .text.efi_str_to_u16
                0x0000000080834f00       0x36 lib/built-in.o
 *fill*         0x0000000080834f36        0x2 
 .text.efi_convert_single_device_node_to_text
                0x0000000080834f38      0x3a8 lib/built-in.o
 .text.efi_convert_device_path_to_text
                0x00000000808352e0       0x4c lib/built-in.o
 .text.efi_convert_device_node_to_text
                0x000000008083532c       0x2a lib/built-in.o
 .text.efi_dp_str
                0x0000000080835356       0x1c lib/built-in.o
                0x0000000080835356                efi_dp_str
 .text.create_device_node
                0x0000000080835372       0x20 lib/built-in.o
 .text.is_device_path_multi_instance
                0x0000000080835392       0x18 lib/built-in.o
 .text.get_next_device_path_instance
                0x00000000808353aa       0x1c lib/built-in.o
 .text.append_device_path_instance
                0x00000000808353c6       0x1c lib/built-in.o
 .text.append_device_node
                0x00000000808353e2       0x1c lib/built-in.o
 .text.append_device_path
                0x00000000808353fe       0x1c lib/built-in.o
 .text.duplicate_device_path
                0x000000008083541a       0x18 lib/built-in.o
 .text.get_device_path_size
                0x0000000080835432       0x1a lib/built-in.o
 .text.efi_file_open_ex
                0x000000008083544c        0x8 lib/built-in.o
 .text.efi_file_read_ex
                0x0000000080835454        0x8 lib/built-in.o
 .text.efi_file_flush
                0x000000008083545c        0xe lib/built-in.o
 *fill*         0x000000008083546a        0x2 
 .text.efi_file_getpos
                0x000000008083546c       0x28 lib/built-in.o
 .text.set_blk_dev.isra.0
                0x0000000080835494        0x8 lib/built-in.o
 .text.file_open
                0x000000008083549c      0x20c lib/built-in.o
 .text.efi_open_volume
                0x00000000808356a8       0x2c lib/built-in.o
 .text.efi_file_open
                0x00000000808356d4       0x80 lib/built-in.o
 .text.efi_file_write
                0x0000000080835754       0x90 lib/built-in.o
 .text.efi_file_delete
                0x00000000808357e4       0x34 lib/built-in.o
 .text.efi_get_file_size
                0x0000000080835818       0x28 lib/built-in.o
 .text.efi_file_getinfo
                0x0000000080835840      0x168 lib/built-in.o
 .text.efi_file_setpos
                0x00000000808359a8       0x58 lib/built-in.o
 .text.efi_file_read
                0x0000000080835a00      0x180 lib/built-in.o
 .text.efi_file_write_ex
                0x0000000080835b80        0x8 lib/built-in.o
 .text.efi_file_flush_ex
                0x0000000080835b88        0x8 lib/built-in.o
 .text.efi_file_close
                0x0000000080835b90       0x1c lib/built-in.o
 .text.efi_file_setinfo
                0x0000000080835bac       0xec lib/built-in.o
 .text.efi_file_from_path
                0x0000000080835c98       0xc8 lib/built-in.o
                0x0000000080835c98                efi_file_from_path
 .text.efi_simple_file_system
                0x0000000080835d60       0x30 lib/built-in.o
                0x0000000080835d60                efi_simple_file_system
 .text.efi_hii_packagelist_exists
                0x0000000080835d90       0x20 lib/built-in.o
 .text.efi_hii_package_len
                0x0000000080835db0       0x10 lib/built-in.o
 .text.get_package_list_handle
                0x0000000080835dc0       0x48 lib/built-in.o
 .text.unregister_package_notify
                0x0000000080835e08       0x14 lib/built-in.o
 .text.register_package_notify
                0x0000000080835e1c       0x34 lib/built-in.o
 .text.export_package_lists
                0x0000000080835e50       0x28 lib/built-in.o
 .text.list_package_lists
                0x0000000080835e78       0x98 lib/built-in.o
 .text.find_keyboard_layouts
                0x0000000080835f10       0x80 lib/built-in.o
 .text.get_keyboard_layout
                0x0000000080835f90       0x90 lib/built-in.o
 .text.remove_guid_package
                0x0000000080836020       0x24 lib/built-in.o
 .text.free_keyboard_layouts
                0x0000000080836044       0x30 lib/built-in.o
 .text.remove_keyboard_package
                0x0000000080836074       0x2c lib/built-in.o
 .text.add_packages
                0x00000000808360a0      0x260 lib/built-in.o
 .text.language_match
                0x0000000080836300       0x2e lib/built-in.o
 *fill*         0x000000008083632e        0x2 
 .text.get_secondary_languages
                0x0000000080836330       0x5c lib/built-in.o
 .text.get_string
                0x000000008083638c       0x88 lib/built-in.o
 .text.get_languages
                0x0000000080836414       0xa0 lib/built-in.o
 .text.set_string
                0x00000000808364b4       0xc4 lib/built-in.o
 .text.new_string
                0x0000000080836578       0xbc lib/built-in.o
 .text.remove_strings_package
                0x0000000080836634       0x4a lib/built-in.o
 .text.free_packagelist
                0x000000008083667e       0x2c lib/built-in.o
 *fill*         0x00000000808366aa        0x2 
 .text.remove_package_list
                0x00000000808366ac       0x2c lib/built-in.o
 .text.new_package_list
                0x00000000808366d8       0x7c lib/built-in.o
 .text.set_keyboard_layout
                0x0000000080836754       0x14 lib/built-in.o
 .text.update_package_list
                0x0000000080836768       0xa0 lib/built-in.o
 .text.get_alt_config
                0x0000000080836808       0x14 lib/built-in.o
 .text.config_to_block
                0x000000008083681c       0x14 lib/built-in.o
 .text.block_to_config
                0x0000000080836830       0x14 lib/built-in.o
 .text.route_config
                0x0000000080836844       0x14 lib/built-in.o
 .text.export_config
                0x0000000080836858       0x14 lib/built-in.o
 .text.extract_config
                0x000000008083686c       0x14 lib/built-in.o
 .text.efi_set_code_and_data_type
                0x0000000080836880       0x40 lib/built-in.o
 .text.efi_print_image_infos
                0x00000000808368c0       0x98 lib/built-in.o
                0x00000000808368c0                efi_print_image_infos
 .text.efi_load_pe
                0x0000000080836958      0x260 lib/built-in.o
                0x0000000080836958                efi_load_pe
 .text.efi_mem_cmp
                0x0000000080836bb8       0x20 lib/built-in.o
 .text.efi_check_allocated
                0x0000000080836bd8       0x68 lib/built-in.o
 .text.efi_find_free_memory
                0x0000000080836c40       0x98 lib/built-in.o
 .text.efi_add_memory_map
                0x0000000080836cd8      0x314 lib/built-in.o
                0x0000000080836cd8                efi_add_memory_map
 .text.efi_allocate_pages
                0x0000000080836fec       0x94 lib/built-in.o
                0x0000000080836fec                efi_allocate_pages
 .text.efi_alloc
                0x0000000080837080       0x3a lib/built-in.o
                0x0000000080837080                efi_alloc
 *fill*         0x00000000808370ba        0x2 
 .text.efi_free_pages
                0x00000000808370bc       0x64 lib/built-in.o
                0x00000000808370bc                efi_free_pages
 .text.efi_allocate_pool
                0x0000000080837120       0x60 lib/built-in.o
                0x0000000080837120                efi_allocate_pool
 .text.efi_free_pool
                0x0000000080837180       0x9c lib/built-in.o
                0x0000000080837180                efi_free_pool
 .text.efi_get_memory_map
                0x000000008083721c       0x90 lib/built-in.o
                0x000000008083721c                efi_get_memory_map
 .text.efi_add_conventional_memory_map
                0x00000000808372ac       0xb4 lib/built-in.o
                0x00000000808372ac                efi_add_conventional_memory_map
 .text.efi_add_known_memory
                0x0000000080837360       0x58 lib/built-in.o
                0x0000000080837360                efi_add_known_memory
 .text.efi_memory_init
                0x00000000808373b8       0x58 lib/built-in.o
                0x00000000808373b8                efi_memory_init
 .text.efi_root_node_register
                0x0000000080837410       0xcc lib/built-in.o
                0x0000000080837410                efi_root_node_register
 .text.efi_set_time_boottime
                0x00000000808374dc       0x14 lib/built-in.o
 .text.efi_get_time_boottime
                0x00000000808374f0       0x14 lib/built-in.o
 .text.efi_reset_system_boottime
                0x0000000080837504       0x50 lib/built-in.o
 .text.efi_init_runtime_supported
                0x0000000080837554       0x34 lib/built-in.o
                0x0000000080837554                efi_init_runtime_supported
 .text.efi_reset_system_init
                0x0000000080837588        0x4 lib/built-in.o
                0x0000000080837588                efi_reset_system_init
 .text.efi_set_virtual_address_map
                0x000000008083758c      0x190 lib/built-in.o
 .text.efi_init_obj_list
                0x000000008083771c      0x138 lib/built-in.o
                0x000000008083771c                efi_init_obj_list
 .text.efi_str_to_fat
                0x0000000080837854       0x84 lib/built-in.o
 .text.efi_fat_to_str
                0x00000000808378d8       0x40 lib/built-in.o
 .text.efi_str_upr
                0x0000000080837918       0x20 lib/built-in.o
 .text.efi_stri_coll
                0x0000000080837938       0x3e lib/built-in.o
 .text.efi_str_lwr
                0x0000000080837976       0x20 lib/built-in.o
 .text.next_lower
                0x0000000080837996        0xe lib/built-in.o
 .text.metai_match
                0x00000000808379a4       0xaa lib/built-in.o
 .text.efi_metai_match
                0x0000000080837a4e       0x1c lib/built-in.o
 *fill*         0x0000000080837a6a        0x2 
 .text.efi_to_native
                0x0000000080837a6c       0x5c lib/built-in.o
 .text.prefix   0x0000000080837ac8       0x22 lib/built-in.o
 *fill*         0x0000000080837aea        0x2 
 .text.parse_attr.part.0
                0x0000000080837aec       0x80 lib/built-in.o
 .text.efi_get_variable
                0x0000000080837b6c      0x178 lib/built-in.o
                0x0000000080837b6c                efi_get_variable
 .text.efi_get_next_variable_name
                0x0000000080837ce4      0x198 lib/built-in.o
                0x0000000080837ce4                efi_get_next_variable_name
 .text.efi_set_variable
                0x0000000080837e7c      0x1f8 lib/built-in.o
                0x0000000080837e7c                efi_set_variable
 .text.efi_variables_boot_exit_notify
                0x0000000080838074       0x24 lib/built-in.o
                0x0000000080838074                efi_variables_boot_exit_notify
 .text.efi_init_variables
                0x0000000080838098        0x4 lib/built-in.o
                0x0000000080838098                efi_init_variables
 .text.efi_watchdog_timer_notify
                0x000000008083809c       0x34 lib/built-in.o
 .text.efi_set_watchdog
                0x00000000808380d0       0x28 lib/built-in.o
                0x00000000808380d0                efi_set_watchdog
 .text.efi_watchdog_register
                0x00000000808380f8       0x5c lib/built-in.o
                0x00000000808380f8                efi_watchdog_register
 .text.efi_disk_flush_blocks
                0x0000000080838154        0xe lib/built-in.o
 .text.efi_disk_reset
                0x0000000080838162        0xe lib/built-in.o
 .text.efi_disk_add_dev.isra.0.part.1
                0x0000000080838170      0x114 lib/built-in.o
 .text.efi_disk_read_blocks
                0x0000000080838284       0xb4 lib/built-in.o
 .text.efi_disk_write_blocks
                0x0000000080838338       0xc0 lib/built-in.o
 .text.efi_fs_from_path
                0x00000000808383f8       0x48 lib/built-in.o
                0x00000000808383f8                efi_fs_from_path
 .text.efi_disk_create_partitions
                0x0000000080838440       0x90 lib/built-in.o
                0x0000000080838440                efi_disk_create_partitions
 .text.efi_disk_register
                0x00000000808384d0       0xb0 lib/built-in.o
                0x00000000808384d0                efi_disk_register
 .text.efi_net_push
                0x0000000080838580        0xc lib/built-in.o
 .text.efi_pxe_base_code_start
                0x000000008083858c        0x8 lib/built-in.o
 .text.efi_pxe_base_code_stop
                0x0000000080838594        0x8 lib/built-in.o
 .text.efi_pxe_base_code_discover
                0x000000008083859c        0x8 lib/built-in.o
 .text.efi_pxe_base_code_mtftp
                0x00000000808385a4        0x8 lib/built-in.o
 .text.efi_pxe_base_code_udp_write
                0x00000000808385ac        0x8 lib/built-in.o
 .text.efi_pxe_base_code_udp_read
                0x00000000808385b4        0x8 lib/built-in.o
 .text.efi_pxe_base_code_set_ip_filter
                0x00000000808385bc        0x8 lib/built-in.o
 .text.efi_pxe_base_code_arp
                0x00000000808385c4        0x8 lib/built-in.o
 .text.efi_pxe_base_code_set_parameters
                0x00000000808385cc        0x8 lib/built-in.o
 .text.efi_pxe_base_code_set_packets
                0x00000000808385d4        0x8 lib/built-in.o
 .text.efi_network_timer_notify
                0x00000000808385dc       0x64 lib/built-in.o
 .text.efi_net_nvdata
                0x0000000080838640       0x14 lib/built-in.o
 .text.efi_net_statistics
                0x0000000080838654       0x14 lib/built-in.o
 .text.efi_net_station_address
                0x0000000080838668       0x14 lib/built-in.o
 .text.efi_net_receive_filters
                0x000000008083867c       0x14 lib/built-in.o
 .text.efi_net_start
                0x0000000080838690       0x40 lib/built-in.o
 .text.efi_net_get_status
                0x00000000808386d0       0x58 lib/built-in.o
 .text.efi_net_receive
                0x0000000080838728       0xfc lib/built-in.o
 .text.efi_net_transmit
                0x0000000080838824       0xd4 lib/built-in.o
 .text.efi_net_mcastiptomac
                0x00000000808388f8       0x70 lib/built-in.o
 .text.efi_net_shutdown
                0x0000000080838968       0x50 lib/built-in.o
 .text.efi_net_stop
                0x00000000808389b8       0x34 lib/built-in.o
 .text.efi_net_initialize
                0x00000000808389ec       0x68 lib/built-in.o
 .text.efi_net_reset
                0x0000000080838a54       0x4c lib/built-in.o
 .text.efi_pxe_base_code_set_station_ip
                0x0000000080838aa0        0x8 lib/built-in.o
 .text.efi_pxe_base_code_dhcp
                0x0000000080838aa8        0x8 lib/built-in.o
 .text.efi_net_set_dhcp_ack
                0x0000000080838ab0       0x34 lib/built-in.o
                0x0000000080838ab0                efi_net_set_dhcp_ack
 .text.efi_net_register
                0x0000000080838ae4      0x258 lib/built-in.o
                0x0000000080838ae4                efi_net_register
 .text.efi_smbios_register
                0x0000000080838d3c       0x48 lib/built-in.o
                0x0000000080838d3c                efi_smbios_register
 .text.fdt_check_header
                0x0000000080838d84       0x4c lib/built-in.o
                0x0000000080838d84                fdt_check_header
 .text.fdt_offset_ptr
                0x0000000080838dd0       0x32 lib/built-in.o
                0x0000000080838dd0                fdt_offset_ptr
 *fill*         0x0000000080838e02        0x2 
 .text.fdt_next_tag
                0x0000000080838e04       0xc4 lib/built-in.o
                0x0000000080838e04                fdt_next_tag
 .text.fdt_check_node_offset_
                0x0000000080838ec8       0x24 lib/built-in.o
                0x0000000080838ec8                fdt_check_node_offset_
 .text.fdt_check_prop_offset_
                0x0000000080838eec       0x24 lib/built-in.o
                0x0000000080838eec                fdt_check_prop_offset_
 .text.fdt_next_node
                0x0000000080838f10       0x6e lib/built-in.o
                0x0000000080838f10                fdt_next_node
 .text.fdt_first_subnode
                0x0000000080838f7e       0x28 lib/built-in.o
                0x0000000080838f7e                fdt_first_subnode
 .text.fdt_next_subnode
                0x0000000080838fa6       0x2e lib/built-in.o
                0x0000000080838fa6                fdt_next_subnode
 .text.fdt_find_string_
                0x0000000080838fd4       0x30 lib/built-in.o
                0x0000000080838fd4                fdt_find_string_
 .text.fdt_move
                0x0000000080839004       0x2a lib/built-in.o
                0x0000000080839004                fdt_move
 .text.fdt_setprop_inplace_namelen_partial
                0x000000008083902e       0x32 lib/built-in.o
                0x000000008083902e                fdt_setprop_inplace_namelen_partial
 .text.fdt_setprop_inplace
                0x0000000080839060       0x4a lib/built-in.o
                0x0000000080839060                fdt_setprop_inplace
 .text.fdt_node_end_offset_
                0x00000000808390aa       0x28 lib/built-in.o
                0x00000000808390aa                fdt_node_end_offset_
 *fill*         0x00000000808390d2        0x2 
 .text.fdt_strerror
                0x00000000808390d4       0x3c lib/built-in.o
                0x00000000808390d4                fdt_strerror
 .text.fdt_blocks_misordered_
                0x0000000080839110       0x36 lib/built-in.o
 .text.fdt_splice_
                0x0000000080839146       0x4a lib/built-in.o
 .text.fdt_splice_mem_rsv_
                0x0000000080839190       0x2c lib/built-in.o
 .text.fdt_splice_struct_
                0x00000000808391bc       0x26 lib/built-in.o
 .text.fdt_packblocks_
                0x00000000808391e2       0x5c lib/built-in.o
 .text.fdt_add_property_
                0x000000008083923e       0xbe lib/built-in.o
 .text.fdt_rw_check_header_
                0x00000000808392fc       0x38 lib/built-in.o
 .text.fdt_add_mem_rsv
                0x0000000080839334       0x56 lib/built-in.o
                0x0000000080839334                fdt_add_mem_rsv
 .text.fdt_del_mem_rsv
                0x000000008083938a       0x3c lib/built-in.o
                0x000000008083938a                fdt_del_mem_rsv
 .text.fdt_setprop_placeholder
                0x00000000808393c6       0x70 lib/built-in.o
                0x00000000808393c6                fdt_setprop_placeholder
 .text.fdt_setprop
                0x0000000080839436       0x26 lib/built-in.o
                0x0000000080839436                fdt_setprop
 .text.fdt_delprop
                0x000000008083945c       0x3e lib/built-in.o
                0x000000008083945c                fdt_delprop
 .text.fdt_add_subnode_namelen
                0x000000008083949a       0x98 lib/built-in.o
                0x000000008083949a                fdt_add_subnode_namelen
 .text.fdt_add_subnode
                0x0000000080839532       0x1e lib/built-in.o
                0x0000000080839532                fdt_add_subnode
 .text.fdt_del_node
                0x0000000080839550       0x30 lib/built-in.o
                0x0000000080839550                fdt_del_node
 .text.fdt_open_into
                0x0000000080839580       0xec lib/built-in.o
                0x0000000080839580                fdt_open_into
 .text.fdt_pack
                0x000000008083966c       0x34 lib/built-in.o
                0x000000008083966c                fdt_pack
 .text.fdt_address_cells
                0x00000000808396a0       0x34 lib/built-in.o
                0x00000000808396a0                fdt_address_cells
 .text.fdt_size_cells
                0x00000000808396d4       0x34 lib/built-in.o
                0x00000000808396d4                fdt_size_cells
 .text.overlay_phandle_add_offset
                0x0000000080839708       0x4e lib/built-in.o
 *fill*         0x0000000080839756        0x2 
 .text.overlay_adjust_node_phandles
                0x0000000080839758       0x5c lib/built-in.o
 .text.overlay_update_local_node_references
                0x00000000808397b4       0xfa lib/built-in.o
 *fill*         0x00000000808398ae        0x2 
 .text.overlay_get_target
                0x00000000808398b0       0x7c lib/built-in.o
 .text.overlay_apply_node
                0x000000008083992c       0xae lib/built-in.o
 *fill*         0x00000000808399da        0x2 
 .text.fdt_overlay_apply
                0x00000000808399dc      0x40c lib/built-in.o
                0x00000000808399dc                fdt_overlay_apply
 .text.fdt_path_next_separator
                0x0000000080839de8       0x2c lib/built-in.o
 .text._nextprop
                0x0000000080839e14       0x32 lib/built-in.o
 .text.fdt_string
                0x0000000080839e46        0xa lib/built-in.o
                0x0000000080839e46                fdt_string
 .text.fdt_get_mem_rsv
                0x0000000080839e50       0x42 lib/built-in.o
                0x0000000080839e50                fdt_get_mem_rsv
 .text.fdt_num_mem_rsv
                0x0000000080839e92       0x22 lib/built-in.o
                0x0000000080839e92                fdt_num_mem_rsv
 .text.fdt_subnode_offset_namelen
                0x0000000080839eb4       0x88 lib/built-in.o
                0x0000000080839eb4                fdt_subnode_offset_namelen
 .text.fdt_subnode_offset
                0x0000000080839f3c       0x1e lib/built-in.o
                0x0000000080839f3c                fdt_subnode_offset
 .text.fdt_get_name
                0x0000000080839f5a       0x3e lib/built-in.o
                0x0000000080839f5a                fdt_get_name
 .text.fdt_first_property_offset
                0x0000000080839f98       0x18 lib/built-in.o
                0x0000000080839f98                fdt_first_property_offset
 .text.fdt_next_property_offset
                0x0000000080839fb0       0x18 lib/built-in.o
                0x0000000080839fb0                fdt_next_property_offset
 .text.fdt_get_property_by_offset
                0x0000000080839fc8       0x30 lib/built-in.o
                0x0000000080839fc8                fdt_get_property_by_offset
 .text.fdt_get_property_namelen
                0x0000000080839ff8       0x74 lib/built-in.o
                0x0000000080839ff8                fdt_get_property_namelen
 .text.fdt_get_property
                0x000000008083a06c       0x22 lib/built-in.o
                0x000000008083a06c                fdt_get_property
 .text.fdt_getprop_namelen
                0x000000008083a08e       0x12 lib/built-in.o
                0x000000008083a08e                fdt_getprop_namelen
 .text.fdt_getprop_by_offset
                0x000000008083a0a0       0x24 lib/built-in.o
                0x000000008083a0a0                fdt_getprop_by_offset
 .text.fdt_getprop
                0x000000008083a0c4       0x22 lib/built-in.o
                0x000000008083a0c4                fdt_getprop
 *fill*         0x000000008083a0e6        0x2 
 .text.fdt_get_phandle
                0x000000008083a0e8       0x40 lib/built-in.o
                0x000000008083a0e8                fdt_get_phandle
 .text.fdt_get_max_phandle
                0x000000008083a128       0x42 lib/built-in.o
                0x000000008083a128                fdt_get_max_phandle
 *fill*         0x000000008083a16a        0x2 
 .text.fdt_get_alias_namelen
                0x000000008083a16c       0x2c lib/built-in.o
                0x000000008083a16c                fdt_get_alias_namelen
 .text.fdt_path_offset_namelen
                0x000000008083a198       0x8c lib/built-in.o
                0x000000008083a198                fdt_path_offset_namelen
 .text.fdt_path_offset
                0x000000008083a224       0x1a lib/built-in.o
                0x000000008083a224                fdt_path_offset
 .text.fdt_get_alias
                0x000000008083a23e       0x1a lib/built-in.o
                0x000000008083a23e                fdt_get_alias
 .text.fdt_get_path
                0x000000008083a258       0xba lib/built-in.o
                0x000000008083a258                fdt_get_path
 .text.fdt_supernode_atdepth_offset
                0x000000008083a312       0x72 lib/built-in.o
                0x000000008083a312                fdt_supernode_atdepth_offset
 .text.fdt_node_depth
                0x000000008083a384       0x1e lib/built-in.o
                0x000000008083a384                fdt_node_depth
 .text.fdt_parent_offset
                0x000000008083a3a2       0x20 lib/built-in.o
                0x000000008083a3a2                fdt_parent_offset
 .text.fdt_node_offset_by_phandle
                0x000000008083a3c2       0x42 lib/built-in.o
                0x000000008083a3c2                fdt_node_offset_by_phandle
 .text.fdt_stringlist_contains
                0x000000008083a404       0x46 lib/built-in.o
                0x000000008083a404                fdt_stringlist_contains
 .text.fdt_stringlist_count
                0x000000008083a44a       0x38 lib/built-in.o
                0x000000008083a44a                fdt_stringlist_count
 .text.fdt_stringlist_get
                0x000000008083a482       0x60 lib/built-in.o
                0x000000008083a482                fdt_stringlist_get
 *fill*         0x000000008083a4e2        0x2 
 .text.fdt_node_check_compatible
                0x000000008083a4e4       0x28 lib/built-in.o
                0x000000008083a4e4                fdt_node_check_compatible
 .text.fdt_find_regions
                0x000000008083a50c      0x240 lib/built-in.o
                0x000000008083a50c                fdt_find_regions
 .text.get_code
                0x000000008083a74c       0x7e lib/built-in.o
 .text.read_string
                0x000000008083a7ca       0x1a lib/built-in.o
 .text.read_console
                0x000000008083a7e4        0xe lib/built-in.o
 *fill*         0x000000008083a7f2        0x2 
 .text.console_read_unicode
                0x000000008083a7f4       0x20 lib/built-in.o
                0x000000008083a7f4                console_read_unicode
 .text.utf8_get
                0x000000008083a814        0xc lib/built-in.o
                0x000000008083a814                utf8_get
 .text.utf8_put
                0x000000008083a820       0x90 lib/built-in.o
                0x000000008083a820                utf8_put
 .text.utf8_utf16_strnlen
                0x000000008083a8b0       0x36 lib/built-in.o
                0x000000008083a8b0                utf8_utf16_strnlen
 .text.utf16_get
                0x000000008083a8e6       0x58 lib/built-in.o
                0x000000008083a8e6                utf16_get
 .text.utf16_put
                0x000000008083a93e       0x4c lib/built-in.o
                0x000000008083a93e                utf16_put
 .text.utf8_utf16_strncpy
                0x000000008083a98a       0x40 lib/built-in.o
                0x000000008083a98a                utf8_utf16_strncpy
 .text.utf16_strnlen
                0x000000008083a9ca       0x2a lib/built-in.o
                0x000000008083a9ca                utf16_strnlen
 .text.utf16_utf8_strnlen
                0x000000008083a9f4       0x46 lib/built-in.o
                0x000000008083a9f4                utf16_utf8_strnlen
 .text.utf16_utf8_strncpy
                0x000000008083aa3a       0x40 lib/built-in.o
                0x000000008083aa3a                utf16_utf8_strncpy
 *fill*         0x000000008083aa7a        0x2 
 .text.utf_to_lower
                0x000000008083aa7c       0x30 lib/built-in.o
                0x000000008083aa7c                utf_to_lower
 .text.utf_to_upper
                0x000000008083aaac       0x2c lib/built-in.o
                0x000000008083aaac                utf_to_upper
 .text.u16_strlen
                0x000000008083aad8       0x14 lib/built-in.o
                0x000000008083aad8                u16_strlen
 .text.u16_strdup
                0x000000008083aaec       0x28 lib/built-in.o
                0x000000008083aaec                u16_strdup
 .text.utf16_to_utf8
                0x000000008083ab14       0xc6 lib/built-in.o
                0x000000008083ab14                utf16_to_utf8
 *fill*         0x000000008083abda        0x2 
 .text.crc16_ccitt
                0x000000008083abdc       0x28 lib/built-in.o
                0x000000008083abdc                crc16_ccitt
 .text.crc16_ccitt_wd_buf
                0x000000008083ac04       0x22 lib/built-in.o
                0x000000008083ac04                crc16_ccitt_wd_buf
 .text.fdtdec_get_int
                0x000000008083ac26       0x1c lib/built-in.o
                0x000000008083ac26                fdtdec_get_int
 .text.smbios_write_type127
                0x000000008083ac42       0x2c lib/built-in.o
 .text.smbios_write_type32
                0x000000008083ac6e       0x2c lib/built-in.o
 .text.smbios_string_table_len
                0x000000008083ac9a       0x1c lib/built-in.o
 .text.smbios_add_string
                0x000000008083acb6       0x3a lib/built-in.o
 .text.smbios_write_type3
                0x000000008083acf0       0x50 lib/built-in.o
 .text.smbios_write_type2
                0x000000008083ad40       0x5c lib/built-in.o
 .text.smbios_write_type0
                0x000000008083ad9c       0x90 lib/built-in.o
 .text.smbios_write_type1
                0x000000008083ae2c       0x78 lib/built-in.o
 .text.smbios_write_type4
                0x000000008083aea4       0x80 lib/built-in.o
 .text.write_smbios_table
                0x000000008083af24       0xb8 lib/built-in.o
                0x000000008083af24                write_smbios_table
 .text.MD5Transform
                0x000000008083afdc      0x6a0 lib/built-in.o
 .text.MD5Update
                0x000000008083b67c       0x88 lib/built-in.o
 .text.MD5Final
                0x000000008083b704       0x6c lib/built-in.o
 .text.md5_wd   0x000000008083b770       0x44 lib/built-in.o
                0x000000008083b770                md5_wd
 .text.string_to_ip
                0x000000008083b7b4       0x48 lib/built-in.o
                0x000000008083b7b4                string_to_ip
 .text.merge    0x000000008083b7fc       0x38 lib/built-in.o
 .text.list_sort
                0x000000008083b834       0xf0 lib/built-in.o
                0x000000008083b834                list_sort
 .text.rsa_verify_with_keynode
                0x000000008083b924      0x12c lib/built-in.o
 .text.padding_pkcs_15_verify
                0x000000008083ba50       0x80 lib/built-in.o
                0x000000008083ba50                padding_pkcs_15_verify
 .text.rsa_verify
                0x000000008083bad0      0x100 lib/built-in.o
                0x000000008083bad0                rsa_verify
 .text.hash_calculate
                0x000000008083bbd0       0x62 lib/built-in.o
                0x000000008083bbd0                hash_calculate
 .text.subtract_modulus
                0x000000008083bc32       0x3a lib/built-in.o
 .text.montgomery_mul
                0x000000008083bc6c       0xec lib/built-in.o
 .text.rsa_convert_big_endian
                0x000000008083bd58       0x1c lib/built-in.o
 .text.rsa_mod_exp_sw
                0x000000008083bd74      0x208 lib/built-in.o
                0x000000008083bd74                rsa_mod_exp_sw
 .text.sha1_process
                0x000000008083bf7c      0xf0c lib/built-in.o
 .text.sha1_update.part.0
                0x000000008083ce88       0x86 lib/built-in.o
 *fill*         0x000000008083cf0e        0x2 
 .text.sha1_starts
                0x000000008083cf10       0x34 lib/built-in.o
                0x000000008083cf10                sha1_starts
 .text.sha1_update
                0x000000008083cf44        0x8 lib/built-in.o
                0x000000008083cf44                sha1_update
 .text.sha1_finish
                0x000000008083cf4c       0xc4 lib/built-in.o
                0x000000008083cf4c                sha1_finish
 .text.sha1_csum_wd
                0x000000008083d010       0x24 lib/built-in.o
                0x000000008083d010                sha1_csum_wd
 .text.sha256_process
                0x000000008083d034     0x1c70 lib/built-in.o
 .text.sha256_update.part.0
                0x000000008083eca4       0x86 lib/built-in.o
 *fill*         0x000000008083ed2a        0x2 
 .text.sha256_starts
                0x000000008083ed2c       0x50 lib/built-in.o
                0x000000008083ed2c                sha256_starts
 .text.sha256_update
                0x000000008083ed7c        0x8 lib/built-in.o
                0x000000008083ed7c                sha256_update
 .text.sha256_finish
                0x000000008083ed84      0x100 lib/built-in.o
                0x000000008083ed84                sha256_finish
 .text.sha256_csum_wd
                0x000000008083ee84       0x24 lib/built-in.o
                0x000000008083ee84                sha256_csum_wd
 .text.zcalloc  0x000000008083eea8        0x8 lib/built-in.o
                0x000000008083eea8                zcalloc
 .text.zcfree   0x000000008083eeb0        0x6 lib/built-in.o
                0x000000008083eeb0                zcfree
 *fill*         0x000000008083eeb6        0x2 
 .text.inflate_fast
                0x000000008083eeb8      0x3bc lib/built-in.o
                0x000000008083eeb8                inflate_fast
 .text.inflate_table
                0x000000008083f274      0x324 lib/built-in.o
                0x000000008083f274                inflate_table
 .text.inflateReset
                0x000000008083f598       0x40 lib/built-in.o
                0x000000008083f598                inflateReset
 .text.inflateInit2_
                0x000000008083f5d8       0x98 lib/built-in.o
                0x000000008083f5d8                inflateInit2_
 .text.inflateEnd
                0x000000008083f670       0x2e lib/built-in.o
                0x000000008083f670                inflateEnd
 .text.adler32  0x000000008083f69e      0x234 lib/built-in.o
                0x000000008083f69e                adler32
 *fill*         0x000000008083f8d2        0x2 
 .text.inflate  0x000000008083f8d4      0xd20 lib/built-in.o
                0x000000008083f8d4                inflate
 .text.gzalloc  0x00000000808405f4        0xe lib/built-in.o
                0x00000000808405f4                gzalloc
 .text.gzfree   0x0000000080840602        0x6 lib/built-in.o
                0x0000000080840602                gzfree
 .text.gzip_parse_header
                0x0000000080840608       0x68 lib/built-in.o
                0x0000000080840608                gzip_parse_header
 .text.zunzip   0x0000000080840670       0xa8 lib/built-in.o
                0x0000000080840670                zunzip
 .text.gunzip   0x0000000080840718       0x2c lib/built-in.o
                0x0000000080840718                gunzip
 .text.lzop_is_valid_header
                0x0000000080840744       0x20 lib/built-in.o
                0x0000000080840744                lzop_is_valid_header
 .text.lzo1x_decompress_safe
                0x0000000080840764      0x444 lib/built-in.o
                0x0000000080840764                lzo1x_decompress_safe
 .text.lzop_decompress
                0x0000000080840ba8       0xe8 lib/built-in.o
                0x0000000080840ba8                lzop_decompress
 .text.get_prop_check_min_len
                0x0000000080840c90       0x26 lib/built-in.o
 *fill*         0x0000000080840cb6        0x2 
 .text.fdtdec_get_is_enabled
                0x0000000080840cb8       0x28 lib/built-in.o
                0x0000000080840cb8                fdtdec_get_is_enabled
 .text.fdtdec_get_alias_seq
                0x0000000080840ce0       0xac lib/built-in.o
                0x0000000080840ce0                fdtdec_get_alias_seq
 .text.fdtdec_get_alias_highest_id
                0x0000000080840d8c       0x78 lib/built-in.o
                0x0000000080840d8c                fdtdec_get_alias_highest_id
 .text.fdtdec_get_chosen_prop
                0x0000000080840e04       0x24 lib/built-in.o
                0x0000000080840e04                fdtdec_get_chosen_prop
 .text.fdtdec_get_chosen_node
                0x0000000080840e28       0x1c lib/built-in.o
                0x0000000080840e28                fdtdec_get_chosen_node
 .text.fdtdec_prepare_fdt
                0x0000000080840e44       0x30 lib/built-in.o
                0x0000000080840e44                fdtdec_prepare_fdt
 .text.fdtdec_lookup_phandle
                0x0000000080840e74       0x20 lib/built-in.o
                0x0000000080840e74                fdtdec_lookup_phandle
 .text.fdtdec_get_int_array
                0x0000000080840e94       0x36 lib/built-in.o
                0x0000000080840e94                fdtdec_get_int_array
 .text.fdtdec_get_bool
                0x0000000080840eca       0x14 lib/built-in.o
                0x0000000080840eca                fdtdec_get_bool
 .text.fdtdec_parse_phandle_with_args
                0x0000000080840ede       0xca lib/built-in.o
                0x0000000080840ede                fdtdec_parse_phandle_with_args
 .text.fdtdec_locate_byte_array
                0x0000000080840fa8       0x16 lib/built-in.o
                0x0000000080840fa8                fdtdec_locate_byte_array
 *fill*         0x0000000080840fbe        0x2 
 .text.fdtdec_get_config_int
                0x0000000080840fc0       0x28 lib/built-in.o
                0x0000000080840fc0                fdtdec_get_config_int
 .text.fdtdec_get_config_string
                0x0000000080840fe8       0x28 lib/built-in.o
                0x0000000080840fe8                fdtdec_get_config_string
 .text.fdtdec_get_number
                0x0000000080841010       0x1e lib/built-in.o
                0x0000000080841010                fdtdec_get_number
 .text.fdtdec_get_addr_size_fixed
                0x000000008084102e       0x6c lib/built-in.o
                0x000000008084102e                fdtdec_get_addr_size_fixed
 .text.fdtdec_get_addr_size_auto_parent
                0x000000008084109a       0x46 lib/built-in.o
                0x000000008084109a                fdtdec_get_addr_size_auto_parent
 .text.fdtdec_get_addr_size_auto_noparent
                0x00000000808410e0       0x34 lib/built-in.o
                0x00000000808410e0                fdtdec_get_addr_size_auto_noparent
 .text.fdtdec_get_addr_size
                0x0000000080841114       0x1e lib/built-in.o
                0x0000000080841114                fdtdec_get_addr_size
 .text.fdtdec_get_addr
                0x0000000080841132        0x6 lib/built-in.o
                0x0000000080841132                fdtdec_get_addr
 .text.fdt_get_resource
                0x0000000080841138       0x8c lib/built-in.o
                0x0000000080841138                fdt_get_resource
 .text.board_fdt_blob_setup
                0x00000000808411c4        0x8 lib/built-in.o
                0x00000000808411c4                board_fdt_blob_setup
 .text.fdtdec_setup
                0x00000000808411cc       0x28 lib/built-in.o
                0x00000000808411cc                fdtdec_setup
 .text.qsort    0x00000000808411f4       0x90 lib/built-in.o
                0x00000000808411f4                qsort
 .text.strcmp_compar
                0x0000000080841284        0x8 lib/built-in.o
                0x0000000080841284                strcmp_compar
 .text.cmpkey   0x000000008084128c        0xc lib/built-in.o
 .text._hdelete.isra.0
                0x0000000080841298       0x30 lib/built-in.o
 .text.drop_var_from_set.part.1
                0x00000000808412c8       0x30 lib/built-in.o
 .text.match_string
                0x00000000808412f8       0x5c lib/built-in.o
 .text.match_entry
                0x0000000080841354       0x7c lib/built-in.o
 .text.hcreate_r
                0x00000000808413d0       0x58 lib/built-in.o
                0x00000000808413d0                hcreate_r
 .text.hdestroy_r
                0x0000000080841428       0x44 lib/built-in.o
                0x0000000080841428                hdestroy_r
 .text.hmatch_r
                0x000000008084146c       0x5c lib/built-in.o
                0x000000008084146c                hmatch_r
 .text.hsearch_r
                0x00000000808414c8      0x2ac lib/built-in.o
                0x00000000808414c8                hsearch_r
 .text.hdelete_r
                0x0000000080841774       0x88 lib/built-in.o
                0x0000000080841774                hdelete_r
 .text.hexport_r
                0x00000000808417fc      0x198 lib/built-in.o
                0x00000000808417fc                hexport_r
 .text.himport_r
                0x0000000080841994      0x264 lib/built-in.o
                0x0000000080841994                himport_r
 .text.hwalk_r  0x0000000080841bf8       0x30 lib/built-in.o
                0x0000000080841bf8                hwalk_r
 .text.display_options_get_banner_priv
                0x0000000080841c28       0x68 lib/built-in.o
                0x0000000080841c28                display_options_get_banner_priv
 .text.display_options_get_banner
                0x0000000080841c90        0xa lib/built-in.o
                0x0000000080841c90                display_options_get_banner
 *fill*         0x0000000080841c9a        0x2 
 .text.display_options
                0x0000000080841c9c       0x24 lib/built-in.o
                0x0000000080841c9c                display_options
 .text.print_size
                0x0000000080841cc0      0x11c lib/built-in.o
                0x0000000080841cc0                print_size
 .text.print_buffer
                0x0000000080841ddc      0x114 lib/built-in.o
                0x0000000080841ddc                print_buffer
 .text.crc32_wd
                0x0000000080841ef0        0x4 lib/built-in.o
                0x0000000080841ef0                crc32_wd
 .text.crc32_wd_buf
                0x0000000080841ef4       0x22 lib/built-in.o
                0x0000000080841ef4                crc32_wd_buf
 .text.__div64_32
                0x0000000080841f16       0x7e lib/built-in.o
                0x0000000080841f16                __div64_32
 .text.hang     0x0000000080841f94       0x18 lib/built-in.o
                0x0000000080841f94                hang
 .text.kmalloc  0x0000000080841fac       0x26 lib/built-in.o
                0x0000000080841fac                kmalloc
 *fill*         0x0000000080841fd2        0x2 
 .text.skip_spaces
                0x0000000080841fd4       0x18 lib/built-in.o
                0x0000000080841fd4                skip_spaces
 .text.strim    0x0000000080841fec       0x34 lib/built-in.o
                0x0000000080841fec                strim
 .text.lmb_overlaps_region
                0x0000000080842020       0x2c lib/built-in.o
 .text.lmb_add_region
                0x000000008084204c       0xfe lib/built-in.o
 .text.lmb_dump_all
                0x000000008084214a        0x2 lib/built-in.o
                0x000000008084214a                lmb_dump_all
 .text.lmb_add  0x000000008084214c        0x4 lib/built-in.o
                0x000000008084214c                lmb_add
 .text.lmb_free
                0x0000000080842150       0x86 lib/built-in.o
                0x0000000080842150                lmb_free
 .text.lmb_reserve
                0x00000000808421d6        0x6 lib/built-in.o
                0x00000000808421d6                lmb_reserve
 .text.__lmb_alloc_base
                0x00000000808421dc       0x86 lib/built-in.o
                0x00000000808421dc                __lmb_alloc_base
 *fill*         0x0000000080842262        0x2 
 .text.lmb_alloc_base
                0x0000000080842264       0x20 lib/built-in.o
                0x0000000080842264                lmb_alloc_base
 .text.lmb_alloc
                0x0000000080842284        0x6 lib/built-in.o
                0x0000000080842284                lmb_alloc
 .text.lmb_alloc_addr
                0x000000008084228a       0x3e lib/built-in.o
                0x000000008084228a                lmb_alloc_addr
 .text.lmb_get_free_size
                0x00000000808422c8       0x48 lib/built-in.o
                0x00000000808422c8                lmb_get_free_size
 .text.board_lmb_reserve
                0x0000000080842310        0x2 lib/built-in.o
                0x0000000080842310                board_lmb_reserve
 .text.lmb_init_and_reserve
                0x0000000080842312       0x44 lib/built-in.o
                0x0000000080842312                lmb_init_and_reserve
 .text.lmb_init_and_reserve_range
                0x0000000080842356       0x30 lib/built-in.o
                0x0000000080842356                lmb_init_and_reserve_range
 *fill*         0x0000000080842386        0x2 
 .text.emit     0x0000000080842388       0x20 lib/built-in.o
 .text.store_char_in_data
                0x00000000808423a8       0x24 lib/built-in.o
 .text.get_escape_char
                0x00000000808423cc       0x48 lib/built-in.o
 .text.relocate
                0x0000000080842414       0x2a lib/built-in.o
 *fill*         0x000000008084243e        0x2 
 .text.match    0x0000000080842440      0x264 lib/built-in.o
 .text.loop_greedy
                0x00000000808426a4       0x56 lib/built-in.o
 .text.loop_non_greedy
                0x00000000808426fa       0x4c lib/built-in.o
 *fill*         0x0000000080842746        0x2 
 .text.quantifier
                0x0000000080842748       0x5c lib/built-in.o
 .text.fixup_branch
                0x00000000808427a4       0x28 lib/built-in.o
 .text.compile  0x00000000808427cc      0x214 lib/built-in.o
 .text.slre_compile
                0x00000000808429e0       0x8c lib/built-in.o
                0x00000000808429e0                slre_compile
 .text.slre_match
                0x0000000080842a6c       0x5a lib/built-in.o
                0x0000000080842a6c                slre_match
 *fill*         0x0000000080842ac6        0x2 
 .text.strncasecmp
                0x0000000080842ac8       0x44 lib/built-in.o
                0x0000000080842ac8                strncasecmp
 .text.strcasecmp
                0x0000000080842b0c        0x8 lib/built-in.o
                0x0000000080842b0c                strcasecmp
 .text.strcpy   0x0000000080842b14       0x10 lib/built-in.o
                0x0000000080842b14                strcpy
 .text.strncpy  0x0000000080842b24       0x18 lib/built-in.o
                0x0000000080842b24                strncpy
 .text.strcat   0x0000000080842b3c       0x1e lib/built-in.o
                0x0000000080842b3c                strcat
 .text.strncat  0x0000000080842b5a       0x28 lib/built-in.o
                0x0000000080842b5a                strncat
 .text.strcmp   0x0000000080842b82       0x16 lib/built-in.o
                0x0000000080842b82                strcmp
 .text.strncmp  0x0000000080842b98       0x22 lib/built-in.o
                0x0000000080842b98                strncmp
 .text.strchr   0x0000000080842bba       0x1a lib/built-in.o
                0x0000000080842bba                strchr
 .text.strlen   0x0000000080842bd4       0x10 lib/built-in.o
                0x0000000080842bd4                strlen
 .text.strlcpy  0x0000000080842be4       0x2e lib/built-in.o
                0x0000000080842be4                strlcpy
 .text.strrchr  0x0000000080842c12       0x20 lib/built-in.o
                0x0000000080842c12                strrchr
 .text.strnlen  0x0000000080842c32       0x18 lib/built-in.o
                0x0000000080842c32                strnlen
 .text.strdup   0x0000000080842c4a       0x22 lib/built-in.o
                0x0000000080842c4a                strdup
 .text.strspn   0x0000000080842c6c       0x20 lib/built-in.o
                0x0000000080842c6c                strspn
 .text.strpbrk  0x0000000080842c8c       0x22 lib/built-in.o
                0x0000000080842c8c                strpbrk
 *fill*         0x0000000080842cae        0x2 
 .text.strtok   0x0000000080842cb0       0x40 lib/built-in.o
                0x0000000080842cb0                strtok
 .text.strsep   0x0000000080842cf0       0x1e lib/built-in.o
                0x0000000080842cf0                strsep
 .text.memmove  0x0000000080842d0e       0x26 lib/built-in.o
                0x0000000080842d0e                memmove
 .text.memcmp   0x0000000080842d34       0x1a lib/built-in.o
                0x0000000080842d34                memcmp
 .text.strstr   0x0000000080842d4e       0x40 lib/built-in.o
                0x0000000080842d4e                strstr
 .text.memchr   0x0000000080842d8e       0x1c lib/built-in.o
                0x0000000080842d8e                memchr
 .text.get_tbclk
                0x0000000080842daa       0x1c lib/built-in.o
                0x0000000080842daa                get_tbclk
 .text.tick_to_time
                0x0000000080842dc6       0x48 lib/built-in.o
 .text.get_ticks
                0x0000000080842e0e       0x2a lib/built-in.o
                0x0000000080842e0e                get_ticks
 .text.timer_init
                0x0000000080842e38        0x4 lib/built-in.o
                0x0000000080842e38                timer_init
 .text.get_timer
                0x0000000080842e3c       0x10 lib/built-in.o
                0x0000000080842e3c                get_timer
 .text.timer_get_us
                0x0000000080842e4c       0x1c lib/built-in.o
                0x0000000080842e4c                timer_get_us
 .text.usec_to_tick
                0x0000000080842e68       0x70 lib/built-in.o
                0x0000000080842e68                usec_to_tick
 .text.__udelay
                0x0000000080842ed8       0x30 lib/built-in.o
                0x0000000080842ed8                __udelay
 .text.udelay   0x0000000080842f08       0x20 lib/built-in.o
                0x0000000080842f08                udelay
 .text.hex_dump_to_buffer
                0x0000000080842f28      0x270 lib/built-in.o
                0x0000000080842f28                hex_dump_to_buffer
 .text.print_hex_dump
                0x0000000080843198       0x90 lib/built-in.o
                0x0000000080843198                print_hex_dump
 .text.uuid_str_valid
                0x0000000080843228       0x50 lib/built-in.o
                0x0000000080843228                uuid_str_valid
 .text.uuid_str_to_bin
                0x0000000080843278      0x12c lib/built-in.o
                0x0000000080843278                uuid_str_to_bin
 .text.uuid_bin_to_str
                0x00000000808433a4       0x8c lib/built-in.o
                0x00000000808433a4                uuid_bin_to_str
 .text.gen_rand_uuid
                0x0000000080843430       0x58 lib/built-in.o
                0x0000000080843430                gen_rand_uuid
 .text.gen_rand_uuid_str
                0x0000000080843488       0x1c lib/built-in.o
                0x0000000080843488                gen_rand_uuid_str
 .text.rand_r   0x00000000808434a4       0x14 lib/built-in.o
                0x00000000808434a4                rand_r
 .text.rand     0x00000000808434b8        0xc lib/built-in.o
                0x00000000808434b8                rand
 .text.srand    0x00000000808434c4        0xc lib/built-in.o
                0x00000000808434c4                srand
 .text.panic_finish
                0x00000000808434d0       0x20 lib/built-in.o
 .text.panic_str
                0x00000000808434f0        0xa lib/built-in.o
                0x00000000808434f0                panic_str
 .text.panic    0x00000000808434fa       0x14 lib/built-in.o
                0x00000000808434fa                panic
 .text.put_dec_trunc
                0x000000008084350e       0x96 lib/built-in.o
 *fill*         0x00000000808435a4        0x4 
 .text.put_dec  0x00000000808435a8      0x120 lib/built-in.o
 .text.number   0x00000000808436c8      0x1f0 lib/built-in.o
 .text.string16
                0x00000000808438b8       0x90 lib/built-in.o
 .text.string   0x0000000080843948       0x70 lib/built-in.o
 .text.vsnprintf_internal
                0x00000000808439b8      0x52c lib/built-in.o
 .text.vsnprintf
                0x0000000080843ee4        0x4 lib/built-in.o
                0x0000000080843ee4                vsnprintf
 .text.vscnprintf
                0x0000000080843ee8       0x16 lib/built-in.o
                0x0000000080843ee8                vscnprintf
 .text.snprintf
                0x0000000080843efe       0x1a lib/built-in.o
                0x0000000080843efe                snprintf
 .text.vsprintf
                0x0000000080843f18        0xc lib/built-in.o
                0x0000000080843f18                vsprintf
 .text.sprintf  0x0000000080843f24       0x1a lib/built-in.o
                0x0000000080843f24                sprintf
 .text.printf   0x0000000080843f3e       0x34 lib/built-in.o
                0x0000000080843f3e                printf
 .text.vprintf  0x0000000080843f72       0x26 lib/built-in.o
                0x0000000080843f72                vprintf
 .text.simple_itoa
                0x0000000080843f98       0x38 lib/built-in.o
                0x0000000080843f98                simple_itoa
 .text.str2off  0x0000000080843fd0       0x24 lib/built-in.o
                0x0000000080843fd0                str2off
 .text._parse_integer_fixup_radix
                0x0000000080843ff4       0x5c lib/built-in.o
 .text.simple_strtoul
                0x0000000080844050       0x50 lib/built-in.o
                0x0000000080844050                simple_strtoul
 .text.strict_strtoul
                0x00000000808440a0       0x42 lib/built-in.o
                0x00000000808440a0                strict_strtoul
 .text.simple_strtol
                0x00000000808440e2       0x1a lib/built-in.o
                0x00000000808440e2                simple_strtol
 .text.ustrtoul
                0x00000000808440fc       0x4c lib/built-in.o
                0x00000000808440fc                ustrtoul
 .text.simple_strtoull
                0x0000000080844148       0x74 lib/built-in.o
                0x0000000080844148                simple_strtoull
 .text.ustrtoull
                0x00000000808441bc       0x5c lib/built-in.o
                0x00000000808441bc                ustrtoull
 .text.trailing_strtoln
                0x0000000080844218       0x48 lib/built-in.o
                0x0000000080844218                trailing_strtoln
 .text.trailing_strtol
                0x0000000080844260        0x6 lib/built-in.o
                0x0000000080844260                trailing_strtol
 .text.compute_ip_checksum
                0x0000000080844266       0x46 net/built-in.o
                0x0000000080844266                compute_ip_checksum
 .text.ip_checksum_ok
                0x00000000808442ac       0x14 net/built-in.o
                0x00000000808442ac                ip_checksum_ok
 .text.arp_init
                0x00000000808442c0       0x38 net/built-in.o
                0x00000000808442c0                arp_init
 .text.arp_raw_request
                0x00000000808442f8       0x94 net/built-in.o
                0x00000000808442f8                arp_raw_request
 .text.arp_request
                0x000000008084438c       0x54 net/built-in.o
                0x000000008084438c                arp_request
 .text.arp_timeout_check
                0x00000000808443e0       0x58 net/built-in.o
                0x00000000808443e0                arp_timeout_check
 .text.arp_receive
                0x0000000080844438      0x180 net/built-in.o
                0x0000000080844438                arp_receive
 .text.arp_is_waiting
                0x00000000808445b8       0x10 net/built-in.o
                0x00000000808445b8                arp_is_waiting
 .text.dhcp_extended
                0x00000000808445c8      0x188 net/built-in.o
 .text.dhcp_process_options
                0x0000000080844750      0x160 net/built-in.o
 .text.dhcp_packet_process_options
                0x00000000808448b0       0x5c net/built-in.o
 .text.dhcp_handler
                0x000000008084490c      0x2a8 net/built-in.o
 .text.bootp_reset
                0x0000000080844bb4       0x2c net/built-in.o
                0x0000000080844bb4                bootp_reset
 .text.bootp_request
                0x0000000080844be0      0x1e4 net/built-in.o
                0x0000000080844be0                bootp_request
 .text.bootp_timeout_handler
                0x0000000080844dc4       0x58 net/built-in.o
 .text.dhcp_request
                0x0000000080844e1c        0x4 net/built-in.o
                0x0000000080844e1c                dhcp_request
 .text.eth_get_uclass_priv
                0x0000000080844e20       0x14 net/built-in.o
 .text.eth_pre_remove
                0x0000000080844e34       0x1a net/built-in.o
 *fill*         0x0000000080844e4e        0x2 
 .text.eth_write_hwaddr
                0x0000000080844e50       0x7c net/built-in.o
 .text.on_ethaddr
                0x0000000080844ecc       0x4c net/built-in.o
 .text.eth_post_probe
                0x0000000080844f18      0x13c net/built-in.o
 .text.eth_post_bind
                0x0000000080845054       0x20 net/built-in.o
 .text.eth_set_current_to_next
                0x0000000080845074       0x22 net/built-in.o
                0x0000000080845074                eth_set_current_to_next
 *fill*         0x0000000080845096        0x2 
 .text.eth_get_dev
                0x0000000080845098       0x20 net/built-in.o
                0x0000000080845098                eth_get_dev
 .text.eth_set_dev
                0x00000000808450b8       0x24 net/built-in.o
                0x00000000808450b8                eth_set_dev
 .text.eth_pre_unbind
                0x00000000808450dc       0x18 net/built-in.o
 .text.eth_get_dev_by_name
                0x00000000808450f4       0x88 net/built-in.o
                0x00000000808450f4                eth_get_dev_by_name
 .text.eth_get_ethaddr
                0x000000008084517c       0x12 net/built-in.o
                0x000000008084517c                eth_get_ethaddr
 .text.eth_halt_state_only
                0x000000008084518e       0x16 net/built-in.o
                0x000000008084518e                eth_halt_state_only
 .text.eth_get_dev_index
                0x00000000808451a4       0x16 net/built-in.o
                0x00000000808451a4                eth_get_dev_index
 *fill*         0x00000000808451ba        0x2 
 .text.eth_init
                0x00000000808451bc       0x94 net/built-in.o
                0x00000000808451bc                eth_init
 .text.eth_is_active
                0x0000000080845250       0x20 net/built-in.o
                0x0000000080845250                eth_is_active
 .text.eth_halt
                0x0000000080845270       0x24 net/built-in.o
                0x0000000080845270                eth_halt
 .text.eth_send
                0x0000000080845294       0x32 net/built-in.o
                0x0000000080845294                eth_send
 .text.eth_rx   0x00000000808452c6       0x66 net/built-in.o
                0x00000000808452c6                eth_rx
 .text.eth_initialize
                0x000000008084532c       0xac net/built-in.o
                0x000000008084532c                eth_initialize
 .text.eth_env_get_enetaddr_by_index
                0x00000000808453d8       0x30 net/built-in.o
                0x00000000808453d8                eth_env_get_enetaddr_by_index
 .text.eth_env_set_enetaddr_by_index
                0x0000000080845408       0x30 net/built-in.o
                0x0000000080845408                eth_env_set_enetaddr_by_index
 .text.eth_common_init
                0x0000000080845438       0x14 net/built-in.o
                0x0000000080845438                eth_common_init
 .text.eth_mac_skip
                0x000000008084544c       0x30 net/built-in.o
                0x000000008084544c                eth_mac_skip
 .text.eth_get_name
                0x000000008084547c       0x18 net/built-in.o
                0x000000008084547c                eth_get_name
 .text.eth_current_changed
                0x0000000080845494       0x5c net/built-in.o
                0x0000000080845494                eth_current_changed
 .text.eth_try_another
                0x00000000808454f0       0x54 net/built-in.o
                0x00000000808454f0                eth_try_another
 .text.eth_set_current
                0x0000000080845544       0x58 net/built-in.o
                0x0000000080845544                eth_set_current
 .text.net_clear_handlers
                0x000000008084559c       0x24 net/built-in.o
 .text.start_again_timeout_handler
                0x00000000808455c0        0xc net/built-in.o
 .text.dummy_handler
                0x00000000808455cc        0x2 net/built-in.o
 *fill*         0x00000000808455ce        0x2 
 .text.on_ipaddr
                0x00000000808455d0       0x18 net/built-in.o
 .text.on_gatewayip
                0x00000000808455e8       0x18 net/built-in.o
 .text.on_netmask
                0x0000000080845600       0x18 net/built-in.o
 .text.on_serverip
                0x0000000080845618       0x18 net/built-in.o
 .text.net_init_loop.part.0
                0x0000000080845630       0x18 net/built-in.o
 .text.net_init
                0x0000000080845648       0x58 net/built-in.o
                0x0000000080845648                net_init
 .text.net_start_again
                0x00000000808456a0       0xec net/built-in.o
                0x00000000808456a0                net_start_again
 .text.net_set_udp_handler
                0x000000008084578c       0x18 net/built-in.o
                0x000000008084578c                net_set_udp_handler
 .text.net_get_arp_handler
                0x00000000808457a4        0xc net/built-in.o
                0x00000000808457a4                net_get_arp_handler
 .text.net_set_timeout_handler
                0x00000000808457b0       0x3c net/built-in.o
                0x00000000808457b0                net_set_timeout_handler
 .text.net_get_async_tx_pkt_buf
                0x00000000808457ec       0x1c net/built-in.o
                0x00000000808457ec                net_get_async_tx_pkt_buf
 .text.net_process_received_packet
                0x0000000080845808      0x220 net/built-in.o
                0x0000000080845808                net_process_received_packet
 .text.net_eth_hdr_size
                0x0000000080845a28       0x2c net/built-in.o
                0x0000000080845a28                net_eth_hdr_size
 .text.net_set_ether
                0x0000000080845a54       0x7c net/built-in.o
                0x0000000080845a54                net_set_ether
 .text.net_update_ether
                0x0000000080845ad0       0x68 net/built-in.o
                0x0000000080845ad0                net_update_ether
 .text.net_set_ip_header
                0x0000000080845b38       0x84 net/built-in.o
                0x0000000080845b38                net_set_ip_header
 .text.net_set_udp_header
                0x0000000080845bbc       0x58 net/built-in.o
                0x0000000080845bbc                net_set_udp_header
 .text.net_send_ip_packet
                0x0000000080845c14       0xc4 net/built-in.o
                0x0000000080845c14                net_send_ip_packet
 .text.net_send_udp_packet
                0x0000000080845cd8       0x1c net/built-in.o
                0x0000000080845cd8                net_send_udp_packet
 .text.copy_filename
                0x0000000080845cf4       0x30 net/built-in.o
                0x0000000080845cf4                copy_filename
 .text.is_serverip_in_cmd
                0x0000000080845d24       0x18 net/built-in.o
                0x0000000080845d24                is_serverip_in_cmd
 .text.net_check_prereq
                0x0000000080845d3c       0xa8 net/built-in.o
 .text.net_auto_load
                0x0000000080845de4       0x68 net/built-in.o
                0x0000000080845de4                net_auto_load
 .text.net_loop
                0x0000000080845e4c      0x1b4 net/built-in.o
                0x0000000080845e4c                net_loop
 .text.net_parse_bootfile
                0x0000000080846000       0x50 net/built-in.o
                0x0000000080846000                net_parse_bootfile
 .text.ip_to_string
                0x0000000080846050       0x28 net/built-in.o
                0x0000000080846050                ip_to_string
 .text.string_to_vlan
                0x0000000080846078       0x28 net/built-in.o
                0x0000000080846078                string_to_vlan
 .text.on_nvlan
                0x00000000808460a0       0x18 net/built-in.o
 .text.on_vlan  0x00000000808460b8       0x18 net/built-in.o
 .text.eth_parse_enetaddr
                0x00000000808460d0       0x30 net/built-in.o
                0x00000000808460d0                eth_parse_enetaddr
 .text.rpc_lookup_reply
                0x0000000080846100       0x68 net/built-in.o
 .text.nfs_mount_reply
                0x0000000080846168       0x60 net/built-in.o
 .text.nfs_umountall_reply
                0x00000000808461c8       0x58 net/built-in.o
 .text.nfs_lookup_reply
                0x0000000080846220       0xb8 net/built-in.o
 .text.nfs_readlink_reply
                0x00000000808462d8       0xc0 net/built-in.o
 .text.basename
                0x0000000080846398       0x1e net/built-in.o
 *fill*         0x00000000808463b6        0x2 
 .text.nfs_read_reply
                0x00000000808463b8       0xe8 net/built-in.o
 .text.rpc_req  0x00000000808464a0       0xc4 net/built-in.o
 .text.nfs_read_req
                0x0000000080846564       0xa4 net/built-in.o
 .text.nfs_readlink_req
                0x0000000080846608       0x84 net/built-in.o
 .text.nfs_mount_req
                0x000000008084668c       0x88 net/built-in.o
 .text.nfs_lookup_req
                0x0000000080846714      0x10c net/built-in.o
 .text.nfs_umountall_req
                0x0000000080846820       0x54 net/built-in.o
 .text.nfs_send
                0x0000000080846874       0xd4 net/built-in.o
 .text.nfs_handler
                0x0000000080846948      0x17c net/built-in.o
 .text.nfs_timeout_handler
                0x0000000080846ac4       0x4c net/built-in.o
 .text.nfs_start
                0x0000000080846b10      0x168 net/built-in.o
                0x0000000080846b10                nfs_start
 .text.ping_timeout_handler
                0x0000000080846c78       0x14 net/built-in.o
 .text.ping_start
                0x0000000080846c8c       0xc8 net/built-in.o
                0x0000000080846c8c                ping_start
 .text.ping_receive
                0x0000000080846d54       0xb8 net/built-in.o
                0x0000000080846d54                ping_receive
 .text.tftp_send
                0x0000000080846e0c      0x134 net/built-in.o
 .text.tftp_handler
                0x0000000080846f40      0x28c net/built-in.o
 .text.tftp_timeout_handler
                0x00000000808471cc       0x64 net/built-in.o
 .text.tftp_start
                0x0000000080847230      0x288 net/built-in.o
                0x0000000080847230                tftp_start
 .text.__udivsi3
                0x00000000808474b8       0x9c arch/arm/lib/lib.a(lib1funcs.o)
                0x00000000808474b8                __udivsi3
                0x00000000808474b8                __aeabi_uidiv
 .text.__divsi3
                0x0000000080847554       0xcc arch/arm/lib/lib.a(lib1funcs.o)
                0x0000000080847554                __aeabi_idiv
                0x0000000080847554                __divsi3
 .text.__aeabi_uidivmod
                0x0000000080847620       0x30 arch/arm/lib/lib.a(lib1funcs.o)
                0x0000000080847620                __aeabi_uidivmod
                0x0000000080847638                __aeabi_idivmod
 .text.Ldiv0    0x0000000080847650       0x10 arch/arm/lib/lib.a(lib1funcs.o)
 .text.__div0   0x0000000080847660        0x4 arch/arm/lib/lib.a(div0.o)
                0x0000000080847660                __div0
 *fill*         0x0000000080847664        0x4 
 .text.__div0.__stub
                0x0000000080847668        0x4 linker stubs
                0x000000008084766c                . = ALIGN (0x4)

.rodata         0x0000000080847670    0x15e92
 *(SORT(.rodata*))
 .rodata.efi_block_io_guid
                0x0000000080847670       0x10 lib/built-in.o
                0x0000000080847670                efi_block_io_guid
 .rodata.efi_file_handle_protocol
                0x0000000080847680       0x40 lib/built-in.o
 .rodata.efi_file_info_guid
                0x00000000808476c0       0x10 lib/built-in.o
                0x00000000808476c0                efi_file_info_guid
 .rodata.efi_file_system_info_guid
                0x00000000808476d0       0x10 lib/built-in.o
                0x00000000808476d0                efi_file_system_info_guid
 .rodata.efi_global_variable_guid
                0x00000000808476e0       0x10 lib/built-in.o
                0x00000000808476e0                efi_global_variable_guid
 .rodata.efi_guid_device_path
                0x00000000808476f0       0x10 lib/built-in.o
                0x00000000808476f0                efi_guid_device_path
 .rodata.efi_guid_device_path_to_text_protocol
                0x0000000080847700       0x10 lib/built-in.o
                0x0000000080847700                efi_guid_device_path_to_text_protocol
 .rodata.efi_guid_device_path_utilities_protocol
                0x0000000080847710       0x10 lib/built-in.o
                0x0000000080847710                efi_guid_device_path_utilities_protocol
 .rodata.efi_guid_driver_binding_protocol
                0x0000000080847720       0x10 lib/built-in.o
                0x0000000080847720                efi_guid_driver_binding_protocol
 .rodata.efi_guid_event_group_exit_boot_services
                0x0000000080847730       0x10 lib/built-in.o
                0x0000000080847730                efi_guid_event_group_exit_boot_services
 .rodata.efi_guid_event_group_memory_map_change
                0x0000000080847740       0x10 lib/built-in.o
                0x0000000080847740                efi_guid_event_group_memory_map_change
 .rodata.efi_guid_event_group_reset_system
                0x0000000080847750       0x10 lib/built-in.o
                0x0000000080847750                efi_guid_event_group_reset_system
 .rodata.efi_guid_fdt
                0x0000000080847760       0x10 lib/built-in.o
                0x0000000080847760                efi_guid_fdt
 .rodata.efi_guid_hii_config_routing_protocol
                0x0000000080847770       0x10 lib/built-in.o
                0x0000000080847770                efi_guid_hii_config_routing_protocol
 .rodata.efi_guid_hii_database_protocol
                0x0000000080847780       0x10 lib/built-in.o
                0x0000000080847780                efi_guid_hii_database_protocol
 .rodata.efi_guid_hii_string_protocol
                0x0000000080847790       0x10 lib/built-in.o
                0x0000000080847790                efi_guid_hii_string_protocol
 .rodata.efi_guid_loaded_image
                0x00000000808477a0       0x10 lib/built-in.o
                0x00000000808477a0                efi_guid_loaded_image
 .rodata.efi_guid_loaded_image_device_path
                0x00000000808477b0       0x10 lib/built-in.o
                0x00000000808477b0                efi_guid_loaded_image_device_path
 .rodata.efi_guid_text_input_ex_protocol
                0x00000000808477c0       0x10 lib/built-in.o
                0x00000000808477c0                efi_guid_text_input_ex_protocol
 .rodata.efi_guid_text_input_protocol
                0x00000000808477d0       0x10 lib/built-in.o
                0x00000000808477d0                efi_guid_text_input_protocol
 .rodata.efi_guid_text_output_protocol
                0x00000000808477e0       0x10 lib/built-in.o
                0x00000000808477e0                efi_guid_text_output_protocol
 .rodata.efi_guid_unicode_collation_protocol2
                0x00000000808477f0       0x10 lib/built-in.o
                0x00000000808477f0                efi_guid_unicode_collation_protocol2
 .rodata.efi_net_guid
                0x0000000080847800       0x10 lib/built-in.o
 .rodata.efi_pxe_base_code_protocol_guid
                0x0000000080847810       0x10 lib/built-in.o
 .rodata.efi_simple_file_system_protocol_guid
                0x0000000080847820       0x10 lib/built-in.o
                0x0000000080847820                efi_simple_file_system_protocol_guid
 .rodata.efi_system_volume_label_id
                0x0000000080847830       0x10 lib/built-in.o
                0x0000000080847830                efi_system_volume_label_id
 .rodata.efi_u_boot_guid
                0x0000000080847840       0x10 lib/built-in.o
                0x0000000080847840                efi_u_boot_guid
 .rodata.partition_basic_data_guid
                0x0000000080847850       0x10 disk/built-in.o
 .rodata.smbios_guid
                0x0000000080847860       0x10 lib/built-in.o
 .rodata.system_guid
                0x0000000080847870       0x10 disk/built-in.o
 .rodata        0x0000000080847880       0x80 arch/arm/lib/built-in.o
 .rodata        0x0000000080847900       0x3c drivers/built-in.o
 .rodata.CSWTCH.18
                0x000000008084793c       0x1c drivers/usb/musb-new/built-in.o
 .rodata.CSWTCH.202
                0x0000000080847958       0x74 common/built-in.o
 .rodata.CSWTCH.32
                0x00000000808479cc       0x20 common/built-in.o
 .rodata.CSWTCH.40
                0x00000000808479ec       0x20 disk/built-in.o
 .rodata.CSWTCH.45
                0x0000000080847a0c       0x14 cmd/built-in.o
 .rodata.am33xx_ctrl
                0x0000000080847a20      0x1c8 arch/arm/mach-omap2/built-in.o
                0x0000000080847a20                am33xx_ctrl
 .rodata.boot_os
                0x0000000080847be8       0x60 common/built-in.o
 .rodata.bootm_args.9201
                0x0000000080847c48        0xc drivers/built-in.o
 .rodata.color  0x0000000080847c54       0x40 lib/built-in.o
 .rodata.commands
                0x0000000080847c94       0x38 drivers/built-in.o
 .rodata.cpsw_eth_ids
                0x0000000080847ccc       0x18 drivers/net/built-in.o
 .rodata.cpsw_eth_ops
                0x0000000080847ce4       0x20 drivers/net/built-in.o
 .rodata.dev_types
                0x0000000080847d04       0x10 arch/arm/mach-omap2/built-in.o
 .rodata.dfu_state
                0x0000000080847d14       0x2c drivers/usb/gadget/built-in.o
 .rodata.driver_ops
                0x0000000080847d40        0xc lib/built-in.o
 .rodata.efi_blk_ops
                0x0000000080847d4c       0x10 lib/built-in.o
 .rodata.efi_device_path_to_text
                0x0000000080847d5c        0x8 lib/built-in.o
                0x0000000080847d5c                efi_device_path_to_text
 .rodata.efi_device_path_utilities
                0x0000000080847d64       0x20 lib/built-in.o
                0x0000000080847d64                efi_device_path_utilities
 .rodata.efi_hii_config_routing
                0x0000000080847d84       0x18 lib/built-in.o
                0x0000000080847d84                efi_hii_config_routing
 .rodata.efi_hii_database
                0x0000000080847d9c       0x2c lib/built-in.o
                0x0000000080847d9c                efi_hii_database
 .rodata.efi_hii_string
                0x0000000080847dc8       0x14 lib/built-in.o
                0x0000000080847dc8                efi_hii_string
 .rodata.efi_unicode_collation_protocol2
                0x0000000080847ddc       0x1c lib/built-in.o
                0x0000000080847ddc                efi_unicode_collation_protocol2
 .rodata.efi_var_attrs
                0x0000000080847df8       0x28 cmd/built-in.o
 .rodata.env_flags_varaccess_mask
                0x0000000080847e20       0x10 env/built-in.o
 .rodata.env_locations
                0x0000000080847e30        0x8 env/built-in.o
 .rodata.ext_csd_bus_width
                0x0000000080847e38       0x3c drivers/built-in.o
 .rodata.fbase  0x0000000080847e74       0x10 drivers/built-in.o
 .rodata.fdt_errtable
                0x0000000080847e84       0x48 lib/built-in.o
 .rodata.fdt_member_table
                0x0000000080847ecc       0x28 cmd/built-in.o
 .rodata.freqs.10697
                0x0000000080847ef4       0x38 drivers/built-in.o
 .rodata.generic_simple_bus_ids
                0x0000000080847f2c       0x18 drivers/built-in.o
 .rodata.getvar_dispatch
                0x0000000080847f44       0x50 drivers/built-in.o
 .rodata.gpio_function
                0x0000000080847f94       0x14 drivers/gpio/built-in.o
 .rodata.gpio_omap_ops
                0x0000000080847fa8       0x28 drivers/gpio/built-in.o
 .rodata.hub_id_table
                0x0000000080847fd0       0x30 common/built-in.o
 .rodata.hwcaps_pp2cmd.11479
                0x0000000080848000       0x38 drivers/mtd/spi/built-in.o
 .rodata.hwcaps_read2cmd.11475
                0x0000000080848038       0x78 drivers/mtd/spi/built-in.o
 .rodata.if_type_uclass_id
                0x00000000808480b0       0x34 drivers/built-in.o
 .rodata.if_typename_str
                0x00000000808480e4       0x34 drivers/built-in.o
 .rodata.init_sequence_f
                0x0000000080848118       0xb4 common/built-in.o
 .rodata.keywords
                0x00000000808481cc       0xa0 cmd/built-in.o
 .rodata.machines
                0x000000008084826c       0x10 lib/built-in.o
 .rodata.mass_storage_id_table
                0x000000008084827c       0x30 common/built-in.o
 .rodata.mii_reg_desc_tbl
                0x00000000808482ac       0x80 cmd/built-in.o
 .rodata.mmc_blk_ops
                0x000000008084832c       0x10 drivers/built-in.o
 .rodata.mmc_modes_by_pref
                0x000000008084833c       0x20 drivers/built-in.o
 .rodata.mmc_versions.11073
                0x000000008084835c       0x24 drivers/built-in.o
 .rodata.mod_exp_ops_sw
                0x0000000080848380        0x4 drivers/built-in.o
 .rodata.musb_ep_ops
                0x0000000080848384       0x28 drivers/usb/musb-new/built-in.o
 .rodata.musb_g_ep0_ops
                0x00000000808483ac       0x28 drivers/usb/musb-new/built-in.o
                0x00000000808483ac                musb_g_ep0_ops
 .rodata.musb_gadget_operations
                0x00000000808483d4       0x24 drivers/usb/musb-new/built-in.o
 .rodata.names.10692
                0x00000000808483f8       0x38 drivers/built-in.o
 .rodata.ns16550_serial_ids
                0x0000000080848430       0x30 drivers/serial/built-in.o
 .rodata.ns16550_serial_ops
                0x0000000080848460       0x20 drivers/serial/built-in.o
                0x0000000080848460                ns16550_serial_ops
 .rodata.oid_supported_list
                0x0000000080848480       0x70 drivers/usb/gadget/built-in.o
 .rodata.omap3_spi_ids
                0x00000000808484f0       0x18 drivers/spi/built-in.o
 .rodata.omap3_spi_ops
                0x0000000080848508       0x20 drivers/spi/built-in.o
 .rodata.omap_gpio_ids
                0x0000000080848528       0x20 drivers/gpio/built-in.o
 .rodata.omap_hsmmc_ids
                0x0000000080848548       0x28 drivers/built-in.o
 .rodata.omap_hsmmc_ops
                0x0000000080848570       0x14 drivers/built-in.o
 .rodata.omap_i2c_ids
                0x0000000080848584       0x18 drivers/i2c/built-in.o
 .rodata.omap_i2c_ops
                0x000000008084859c       0x18 drivers/i2c/built-in.o
 .rodata.omap_serial_ids
                0x00000000808485b4       0x40 drivers/serial/built-in.o
 .rodata.omap_timer_ids
                0x00000000808485f4       0x20 drivers/built-in.o
 .rodata.omap_timer_ops
                0x0000000080848614        0x4 drivers/built-in.o
 .rodata.op_adv
                0x0000000080848618      0x100 cmd/built-in.o
                0x0000000080848618                op_adv
 .rodata.op_table
                0x0000000080848718       0x68 cmd/built-in.o
 .rodata.phy_interface_strings
                0x0000000080848780       0x58 drivers/net/phy/built-in.o
 .rodata.reg_0_desc_tbl
                0x00000000808487d8       0x78 cmd/built-in.o
 .rodata.reg_10_desc_tbl
                0x0000000080848850       0x60 cmd/built-in.o
 .rodata.reg_1_desc_tbl
                0x00000000808488b0       0xc0 cmd/built-in.o
 .rodata.reg_2_desc_tbl
                0x0000000080848970        0xc cmd/built-in.o
 .rodata.reg_3_desc_tbl
                0x000000008084897c       0x24 cmd/built-in.o
 .rodata.reg_4_desc_tbl
                0x00000000808489a0       0x90 cmd/built-in.o
 .rodata.reg_5_desc_tbl
                0x0000000080848a30       0x90 cmd/built-in.o
 .rodata.reg_9_desc_tbl
                0x0000000080848ac0       0x60 cmd/built-in.o
 .rodata.root_info
                0x0000000080848b20        0x8 drivers/built-in.o
 .rodata.sd_au_size.10951
                0x0000000080848b28       0x40 drivers/built-in.o
 .rodata.sd_modes_by_pref
                0x0000000080848b68       0x10 drivers/built-in.o
 .rodata.smbios_write_funcs
                0x0000000080848b78       0x1c lib/built-in.o
 .rodata.spi_flash_std_ids
                0x0000000080848b94       0x10 drivers/mtd/spi/built-in.o
 .rodata.spi_flash_std_ops
                0x0000000080848ba4       0x10 drivers/mtd/spi/built-in.o
 .rodata.spi_nor_ids
                0x0000000080848bb4      0x2a0 drivers/mtd/spi/built-in.o
                0x0000000080848bb4                spi_nor_ids
 .rodata.subcmd_list
                0x0000000080848e54       0x10 cmd/built-in.o
 .rodata.ti_musb_ids
                0x0000000080848e64       0x10 drivers/usb/musb-new/built-in.o
 .rodata.uimage_arch
                0x0000000080848e74      0x144 common/built-in.o
 .rodata.uimage_comp
                0x0000000080848fb8       0x54 common/built-in.o
 .rodata.uimage_os
                0x000000008084900c       0x9c common/built-in.o
 .rodata.uimage_type
                0x00000000808490a8      0x1e0 common/built-in.o
 .rodata.usb_dr_modes
                0x0000000080849288       0x10 drivers/usb/common/built-in.o
 .rodata.usb_eth_ops
                0x0000000080849298       0x20 drivers/usb/gadget/built-in.o
 .rodata.usb_hub_ids
                0x00000000808492b8       0x10 common/built-in.o
 .rodata.usb_mass_storage_ids
                0x00000000808492c8       0x10 common/built-in.o
 .rodata.usb_storage_ops
                0x00000000808492d8       0x10 common/built-in.o
 .rodata.codepage
                0x00000000808492e8      0x100 lib/built-in.o
 .rodata.crc16_tab
                0x00000000808493e8      0x200 lib/built-in.o
 .rodata.crc16_table
                0x00000000808495e8      0x200 fs/built-in.o
 .rodata.dbase.9533
                0x00000000808497e8       0x40 lib/built-in.o
 .rodata.dext.9534
                0x0000000080849828       0x40 lib/built-in.o
 .rodata.distfix
                0x0000000080849868       0x80 lib/built-in.o
 .rodata.efi_bootmgr_load.str2.2
                0x00000000808498e8       0x26 lib/built-in.o
 .rodata.efi_init_obj_list.str2.2
                0x000000008084990e       0x6c lib/built-in.o
 .rodata.efi_init_runtime_supported.str2.2
                0x000000008084997a       0x32 lib/built-in.o
 .rodata.lbase.9531
                0x00000000808499ac       0x3e lib/built-in.o
 .rodata.lenfix
                0x00000000808499ea      0x800 lib/built-in.o
 .rodata.lext.9532
                0x000000008084a1ea       0x3e lib/built-in.o
 .rodata.order.9627
                0x000000008084a228       0x26 lib/built-in.o
 .rodata.string16.str2.2
                0x000000008084a24e        0xe lib/built-in.o
 .rodata.try_load_entry.str2.2
                0x000000008084a25c       0x4c lib/built-in.o
 .rodata        0x000000008084a2a8        0x3 env/built-in.o
 .rodata        0x000000008084a2ab       0x20 lib/built-in.o
 .rodata        0x000000008084a2cb        0x7 net/built-in.o
 .rodata.CSWTCH.103
                0x000000008084a2d2        0x5 drivers/net/built-in.o
 .rodata.CSWTCH.104
                0x000000008084a2d7        0x5 drivers/net/built-in.o
 .rodata.CSWTCH.76
                0x000000008084a2dc       0x16 common/built-in.o
 .rodata.END    0x000000008084a2f2        0x4 lib/built-in.o
 .rodata.ROOT   0x000000008084a2f6       0x14 lib/built-in.o
 .rodata.__FUNCTION__.9489
                0x000000008084a30a       0x17 common/built-in.o
 .rodata.__FUNCTION__.9651
                0x000000008084a321       0x17 common/built-in.o
 .rodata.__func__.10065
                0x000000008084a338        0xe drivers/built-in.o
 .rodata.__func__.10083
                0x000000008084a346       0x1c fs/built-in.o
 .rodata.__func__.10471
                0x000000008084a362        0xc drivers/i2c/built-in.o
 .rodata.__func__.10482
                0x000000008084a36e        0xf drivers/i2c/built-in.o
 .rodata.__func__.10659
                0x000000008084a37d        0xe common/built-in.o
 .rodata.__func__.10759
                0x000000008084a38b       0x12 drivers/net/phy/built-in.o
 .rodata.__func__.10812
                0x000000008084a39d        0xd drivers/built-in.o
 .rodata.__func__.10818
                0x000000008084a3aa       0x11 drivers/built-in.o
 .rodata.__func__.10822
                0x000000008084a3bb       0x18 drivers/built-in.o
 .rodata.__func__.10826
                0x000000008084a3d3       0x18 drivers/built-in.o
 .rodata.__func__.10830
                0x000000008084a3eb        0xd drivers/built-in.o
 .rodata.__func__.10834
                0x000000008084a3f8       0x14 drivers/built-in.o
 .rodata.__func__.10838
                0x000000008084a40c       0x14 drivers/built-in.o
 .rodata.__func__.11028
                0x000000008084a420       0x1b lib/built-in.o
 .rodata.__func__.11046
                0x000000008084a43b        0xc lib/built-in.o
 .rodata.__func__.11056
                0x000000008084a447        0xf lib/built-in.o
 .rodata.__func__.11073
                0x000000008084a456        0xe lib/built-in.o
 .rodata.__func__.11249
                0x000000008084a464       0x15 common/built-in.o
 .rodata.__func__.11584
                0x000000008084a479       0x16 drivers/built-in.o
 .rodata.__func__.11640
                0x000000008084a48f       0x19 drivers/built-in.o
 .rodata.__func__.11658
                0x000000008084a4a8       0x14 drivers/built-in.o
 .rodata.__func__.11701
                0x000000008084a4bc        0xe drivers/built-in.o
 .rodata.__func__.11736
                0x000000008084a4ca        0xf drivers/built-in.o
 .rodata.__func__.11770
                0x000000008084a4d9       0x17 drivers/usb/gadget/built-in.o
 .rodata.__func__.11791
                0x000000008084a4f0       0x15 drivers/built-in.o
 .rodata.__func__.11884
                0x000000008084a505        0xc lib/built-in.o
 .rodata.__func__.11941
                0x000000008084a511        0x9 drivers/usb/gadget/built-in.o
 .rodata.__func__.12105
                0x000000008084a51a       0x15 lib/built-in.o
 .rodata.__func__.12108
                0x000000008084a52f        0xf drivers/usb/musb-new/built-in.o
 .rodata.__func__.12127
                0x000000008084a53e       0x12 drivers/usb/musb-new/built-in.o
 .rodata.__func__.12149
                0x000000008084a550       0x10 drivers/usb/musb-new/built-in.o
 .rodata.__func__.12172
                0x000000008084a560       0x14 drivers/usb/musb-new/built-in.o
 .rodata.__func__.12186
                0x000000008084a574        0xf drivers/usb/musb-new/built-in.o
 .rodata.__func__.12234
                0x000000008084a583        0xd drivers/usb/musb-new/built-in.o
 .rodata.__func__.12256
                0x000000008084a590        0xf drivers/usb/musb-new/built-in.o
 .rodata.__func__.12810
                0x000000008084a59f        0xc drivers/built-in.o
 .rodata.__func__.12845
                0x000000008084a5ab        0xa drivers/built-in.o
 .rodata.__func__.12868
                0x000000008084a5b5        0x9 drivers/built-in.o
 .rodata.__func__.12877
                0x000000008084a5be       0x10 drivers/built-in.o
 .rodata.__func__.13008
                0x000000008084a5ce       0x11 drivers/usb/gadget/built-in.o
 .rodata.__func__.13093
                0x000000008084a5df        0xc drivers/built-in.o
 .rodata.__func__.13111
                0x000000008084a5eb       0x15 drivers/built-in.o
 .rodata.__func__.13125
                0x000000008084a600       0x18 drivers/built-in.o
 .rodata.__func__.13146
                0x000000008084a618       0x14 drivers/built-in.o
 .rodata.__func__.13152
                0x000000008084a62c        0xf drivers/usb/gadget/built-in.o
 .rodata.__func__.13627
                0x000000008084a63b       0x15 board/ti/am335x/built-in.o
 .rodata.__func__.9208
                0x000000008084a650        0xb fs/built-in.o
 .rodata.__func__.9303
                0x000000008084a65b       0x10 cmd/built-in.o
 .rodata.__func__.9365
                0x000000008084a66b       0x18 common/built-in.o
 .rodata.__func__.9372
                0x000000008084a683       0x12 disk/built-in.o
 .rodata.__func__.9383
                0x000000008084a695       0x13 disk/built-in.o
 .rodata.__func__.9445
                0x000000008084a6a8        0xc disk/built-in.o
 .rodata.__func__.9463
                0x000000008084a6b4       0x13 disk/built-in.o
 .rodata.__func__.9513
                0x000000008084a6c7        0xd disk/built-in.o
 .rodata.__func__.9523
                0x000000008084a6d4        0xf disk/built-in.o
 .rodata.__func__.9532
                0x000000008084a6e3       0x17 disk/built-in.o
 .rodata.__func__.9537
                0x000000008084a6fa        0xd disk/built-in.o
 .rodata.__func__.9638
                0x000000008084a707        0x7 cmd/built-in.o
 .rodata.__func__.9675
                0x000000008084a70e       0x13 fs/built-in.o
 .rodata.__func__.9684
                0x000000008084a721       0x14 fs/built-in.o
 .rodata.__of_translate_address.str1.1
                0x000000008084a735       0x1b common/built-in.o
 .rodata.__omap24_i2c_setspeed.str1.1
                0x000000008084a750       0x4c drivers/i2c/built-in.o
 .rodata._cpsw_register.str1.1
                0x000000008084a79c       0x33 drivers/net/built-in.o
 .rodata._ctype
                0x000000008084a7cf      0x100 lib/built-in.o
                0x000000008084a7cf                _ctype
 .rodata._do_env_set.str1.1
                0x000000008084a8cf       0x7c cmd/built-in.o
 .rodata._do_help.str1.1
                0x000000008084a94b       0x5f common/built-in.o
 .rodata._gpio_request_by_name_nodev.str1.1
                0x000000008084a9aa        0xc drivers/gpio/built-in.o
 .rodata.acm_descriptor
                0x000000008084a9b6        0x4 drivers/usb/gadget/built-in.o
 .rodata.android_image_check_header.str1.1
                0x000000008084a9ba        0x9 common/built-in.o
 .rodata.android_image_get_kernel.str1.1
                0x000000008084a9c3       0x8b common/built-in.o
                                         0x96 (size before relaxing)
 .rodata.android_image_get_ramdisk.str1.1
                0x000000008084aa4e       0x27 common/built-in.o
 .rodata.android_image_get_second.str1.1
                0x000000008084aa75       0x19 common/built-in.o
 .rodata.android_print_contents.str1.1
                0x000000008084aa8e      0x126 common/built-in.o
                                        0x12a (size before relaxing)
 .rodata.announce_dram_init.str1.1
                0x000000008084abb4        0x8 common/built-in.o
 .rodata.arch_misc_init.str1.1
                0x000000008084abbc       0x17 arch/arm/mach-omap2/built-in.o
 .rodata.arp_receive.str1.1
                0x000000008084abd3       0x14 net/built-in.o
 .rodata.arp_request.str1.1
                0x000000008084abe7       0x2a net/built-in.o
 .rodata.arp_timeout_check.str1.1
                0x000000008084ac11       0x2b net/built-in.o
 .rodata.autoboot_command.str1.1
                0x000000008084ac3c       0x46 common/built-in.o
                                         0x4a (size before relaxing)
 .rodata.b_addqchr.str1.1
                0x000000008084ac82        0x5 common/built-in.o
 .rodata.bad_mode.str1.1
                0x000000008084ac87       0x13 arch/arm/lib/built-in.o
 .rodata.binary_test.str1.1
                0x000000008084ac9a       0x17 cmd/built-in.o
 .rodata.blk_common_cmd.str1.1
                0x000000008084acb1       0xea cmd/built-in.o
                                        0x101 (size before relaxing)
 .rodata.blk_create_devicef.str1.1
                0x000000008084ad9b        0x6 drivers/built-in.o
 .rodata.blk_get_device_by_str.str1.1
                0x000000008084ada1       0x52 disk/built-in.o
 .rodata.blk_get_device_part_str.str1.1
                0x000000008084adf3      0x107 disk/built-in.o
                                        0x109 (size before relaxing)
 .rodata.blk_list_devices.str1.1
                0x000000008084aefa        0x6 drivers/built-in.o
                                          0xc (size before relaxing)
 .rodata.blk_print_device_num.str1.1
                0x000000008084aefa       0x11 drivers/built-in.o
 .rodata.blk_show_device.str1.1
                0x000000008084af0b       0x1d drivers/built-in.o
 .rodata.blkc_configure.str1.1
                0x000000008084af28       0x30 cmd/built-in.o
 .rodata.blkc_show.str1.1
                0x000000008084af58       0x4c cmd/built-in.o
 .rodata.board_init.str1.1
                0x000000008084afa4       0xa2 board/ti/am335x/built-in.o
                                         0xa4 (size before relaxing)
 .rodata.board_init_f.str1.1
                0x000000008084b046       0x31 common/built-in.o
 .rodata.board_init_r.str1.1
                0x000000008084b077       0x31 common/built-in.o
 .rodata.board_late_init.str1.1
                0x000000008084b077       0x95 board/ti/am335x/built-in.o
                                         0x9a (size before relaxing)
 .rodata.boot_fdt_add_mem_rsv_regions.str1.1
                0x000000008084b10c       0x52 common/built-in.o
                                         0x56 (size before relaxing)
 .rodata.boot_get_fdt.str1.1
                0x000000008084b15e       0xfd common/built-in.o
                                        0x109 (size before relaxing)
 .rodata.boot_get_fdt_fit.str1.1
                0x000000008084b25b       0x4f common/built-in.o
 .rodata.boot_get_loadable.str1.1
                0x000000008084b2aa       0x3e common/built-in.o
 .rodata.boot_get_ramdisk.str1.1
                0x000000008084b2e8       0x64 common/built-in.o
                                         0x77 (size before relaxing)
 .rodata.boot_get_setup_fit.str1.1
                0x000000008084b34c       0x4f common/built-in.o
                                          0x6 (size before relaxing)
 .rodata.boot_jump_linux.str1.1
                0x000000008084b34c       0x5c arch/arm/lib/built-in.o
                                         0x5d (size before relaxing)
 .rodata.boot_prep_linux.str1.1
                0x000000008084b3a8       0x20 arch/arm/lib/built-in.o
                                         0x29 (size before relaxing)
 .rodata.boot_prep_vxworks.str1.1
                0x000000008084b3c8       0x2a arch/arm/lib/built-in.o
 .rodata.boot_ramdisk_high.str1.1
                0x000000008084b3f2       0x54 common/built-in.o
                                         0x58 (size before relaxing)
 .rodata.boot_relocate_fdt.str1.1
                0x000000008084b446       0xcf common/built-in.o
                                         0xd3 (size before relaxing)
 .rodata.bootdelay_process.str1.1
                0x000000008084b515       0x8f common/built-in.o
                                         0x99 (size before relaxing)
 .rodata.bootm_find_images.str1.1
                0x000000008084b5a4       0x6c common/built-in.o
 .rodata.bootm_maybe_autostart.str1.1
                0x000000008084b610       0x3b cmd/built-in.o
 .rodata.bootp_request.str1.1
                0x000000008084b64b       0x25 net/built-in.o
 .rodata.bootp_timeout_handler.str1.1
                0x000000008084b670       0x26 net/built-in.o
 .rodata.calculate_hash.str1.1
                0x000000008084b696        0x4 common/built-in.o
                                         0x16 (size before relaxing)
 .rodata.call_mgmt_descriptor
                0x000000008084b69a        0x5 drivers/usb/gadget/built-in.o
 .rodata.check_cache_range.str1.1
                0x000000008084b69f       0x35 arch/arm/lib/built-in.o
 .rodata.check_reserved.str1.1
                0x000000008084b6d4       0x27 drivers/gpio/built-in.o
                                         0x28 (size before relaxing)
 .rodata.cli_process_fdt.str1.1
                0x000000008084b6fb        0xb common/built-in.o
                                         0x13 (size before relaxing)
 .rodata.cli_readline_into_buffer.str1.1
                0x000000008084b706        0x7 common/built-in.o
                                          0x8 (size before relaxing)
 .rodata.cli_secure_boot_cmd.str1.1
                0x000000008084b70d       0x50 common/built-in.o
 .rodata.clk_synthesizer_reg_write.str1.1
                0x000000008084b75d       0x33 arch/arm/mach-omap2/built-in.o
 .rodata.cmd_auto_complete.str1.1
                0x000000008084b790       0x5f common/built-in.o
                                          0xb (size before relaxing)
 .rodata.cmd_process.str1.1
                0x000000008084b790       0x48 common/built-in.o
 .rodata.cmd_process_error.str1.1
                0x000000008084b7d8       0x1f common/built-in.o
 .rodata.cmd_usage.str1.1
                0x000000008084b7f7       0x36 common/built-in.o
 .rodata.common_diskboot.str1.1
                0x000000008084b82d       0xa3 cmd/built-in.o
 .rodata.compile.str1.1
                0x000000008084b8d0       0x4a lib/built-in.o
 .rodata.complete_subcmdv.str1.1
                0x000000008084b91a       0x36 common/built-in.o
                                          0x4 (size before relaxing)
 .rodata.composite_unbind.str1.1
                0x000000008084b91a       0x6d drivers/usb/gadget/built-in.o
 .rodata.cpsw_eth_ofdata_to_platdata.str1.1
                0x000000008084b987      0x195 drivers/net/built-in.o
                                        0x1bc (size before relaxing)
 .rodata.cpsw_eth_probe.str1.1
                0x000000008084bb1c       0x84 drivers/net/built-in.o
 .rodata.cpsw_eth_send.str1.1
                0x000000008084bba0       0x17 drivers/net/built-in.o
 .rodata.cpsw_eth_start.str1.1
                0x000000008084bbb7       0x5c drivers/net/built-in.o
                                         0x66 (size before relaxing)
 .rodata.cpsw_mdio_init.str1.1
                0x000000008084bc13       0xd4 drivers/net/built-in.o
                                          0x7 (size before relaxing)
 .rodata.cread_add_char.str1.1
                0x000000008084bc13        0x5 common/built-in.o
 .rodata.default_environment
                0x000000008084bc18     0x228f env/built-in.o
                0x000000008084bc18                default_environment
 .rodata.dev_get_platdata.str1.1
                0x000000008084dea7       0x11 drivers/built-in.o
 .rodata.dev_print.str1.1
                0x000000008084deb8      0x165 disk/built-in.o
                                        0x176 (size before relaxing)
 .rodata.devfdt_get_addr_index.str1.1
                0x000000008084e01d        0x4 drivers/built-in.o
 .rodata.device_bind_common.isra.0.str1.1
                0x000000008084e01d       0x5b drivers/built-in.o
 .rodata.device_probe.str1.1
                0x000000008084e078       0x30 drivers/built-in.o
 .rodata.device_remove.str1.1
                0x000000008084e0a8       0x98 drivers/built-in.o
 .rodata.dfu_add.str1.1
                0x000000008084e140        0x4 drivers/usb/gadget/built-in.o
 .rodata.dfu_bind.str1.1
                0x000000008084e140        0x8 drivers/usb/gadget/built-in.o
 .rodata.dfu_config_entities.str1.1
                0x000000008084e140       0xaf drivers/built-in.o
                                         0xc9 (size before relaxing)
 .rodata.dfu_fill_entity_mmc.str1.1
                0x000000008084e1ef       0xd7 drivers/built-in.o
                                         0xe2 (size before relaxing)
 .rodata.dfu_fill_entity_ram.str1.1
                0x000000008084e2c6       0x18 drivers/built-in.o
                                         0x3c (size before relaxing)
 .rodata.dfu_flush.str1.1
                0x000000008084e2de       0x1a drivers/built-in.o
 .rodata.dfu_func
                0x000000008084e2f8        0x9 drivers/usb/gadget/built-in.o
 .rodata.dfu_get_buf.str1.1
                0x000000008084e301       0x2f drivers/built-in.o
 .rodata.dfu_init_env_entities.str1.1
                0x000000008084e330       0x8b drivers/built-in.o
 .rodata.dfu_name
                0x000000008084e3bb       0x18 drivers/usb/gadget/built-in.o
 .rodata.dfu_read.str1.1
                0x000000008084e3d3       0x40 drivers/built-in.o
 .rodata.dfu_show_entities.str1.1
                0x000000008084e413       0x3d drivers/built-in.o
 .rodata.dfu_write.str1.1
                0x000000008084e450       0x4d drivers/built-in.o
 .rodata.dfu_write_buffer_drain.str1.1
                0x000000008084e49d        0x2 drivers/built-in.o
 .rodata.dfu_write_medium_ram.str1.1
                0x000000008084e49d       0x36 drivers/built-in.o
 .rodata.dhcp_extended.str1.1
                0x000000008084e4d3       0x37 net/built-in.o
                                         0x48 (size before relaxing)
 .rodata.dhcp_handler.str1.1
                0x000000008084e50a       0x41 net/built-in.o
                                         0x4a (size before relaxing)
 .rodata.dhcp_process_options.str1.1
                0x000000008084e54b       0x78 net/built-in.o
 .rodata.digits.11173
                0x000000008084e5c3       0x10 lib/built-in.o
 .rodata.disk_write.str1.1
                0x000000008084e5d3       0x18 fs/built-in.o
 .rodata.display_options.str1.1
                0x000000008084e5d3        0x3 lib/built-in.o
 .rodata.display_options_get_banner_priv.str1.1
                0x000000008084e5d3        0xc lib/built-in.o
                                         0x15 (size before relaxing)
 .rodata.dm_dump_all.str1.1
                0x000000008084e5df       0x73 drivers/built-in.o
 .rodata.dm_dump_uclass.str1.1
                0x000000008084e652       0x33 drivers/built-in.o
                                         0x35 (size before relaxing)
 .rodata.dm_extended_scan_fdt.str1.1
                0x000000008084e685       0x12 drivers/built-in.o
 .rodata.dm_gpio_get_value.str1.1
                0x000000008084e697        0xa drivers/gpio/built-in.o
 .rodata.dm_gpio_set_dir_flags.str1.1
                0x000000008084e6a1        0x8 drivers/gpio/built-in.o
 .rodata.dm_gpio_set_value.str1.1
                0x000000008084e6a9        0xa drivers/gpio/built-in.o
 .rodata.dm_init.str1.1
                0x000000008084e6b3       0x25 drivers/built-in.o
 .rodata.dm_ofnode_pre_reloc.str1.1
                0x000000008084e6d8       0x45 drivers/built-in.o
 .rodata.dm_root.str1.1
                0x000000008084e71d       0x25 drivers/built-in.o
 .rodata.dm_scan_fdt_node.str1.1
                0x000000008084e742       0x1d drivers/built-in.o
                                         0x2d (size before relaxing)
 .rodata.dm_scan_platdata.str1.1
                0x000000008084e75f       0x1d drivers/built-in.o
 .rodata.dm_timer_init.str1.1
                0x000000008084e77c        0xb drivers/built-in.o
 .rodata.do_bdinfo.str1.1
                0x000000008084e787       0x9e cmd/built-in.o
 .rodata.do_bootd.str1.1
                0x000000008084e825       0x3b cmd/built-in.o
                                          0x8 (size before relaxing)
 .rodata.do_bootefi.str1.1
                0x000000008084e825       0x6d cmd/built-in.o
 .rodata.do_bootefi_exec.str1.1
                0x000000008084e892       0x42 cmd/built-in.o
                                         0x4b (size before relaxing)
 .rodata.do_bootelf.str1.1
                0x000000008084e8d4       0x4f cmd/built-in.o
                                         0x5c (size before relaxing)
 .rodata.do_bootm.str1.1
                0x000000008084e923       0x2a cmd/built-in.o
 .rodata.do_bootm_netbsd.str1.1
                0x000000008084e94d       0x49 common/built-in.o
                                         0x51 (size before relaxing)
 .rodata.do_bootm_plan9.str1.1
                0x000000008084e996       0x43 common/built-in.o
                                         0x4a (size before relaxing)
 .rodata.do_bootm_qnxelf.str1.1
                0x000000008084e9d9        0x8 common/built-in.o
 .rodata.do_bootm_rtems.str1.1
                0x000000008084e9d9       0xca common/built-in.o
                                         0xd0 (size before relaxing)
 .rodata.do_bootm_standalone.str1.1
                0x000000008084eaa3       0x16 common/built-in.o
 .rodata.do_bootm_states.str1.1
                0x000000008084eaa3      0x2c5 common/built-in.o
                                        0x2cc (size before relaxing)
 .rodata.do_bootm_vxworks.str1.1
                0x000000008084ed68       0x57 common/built-in.o
                                         0x86 (size before relaxing)
 .rodata.do_bootvx.str1.1
                0x000000008084edbf      0x1c5 cmd/built-in.o
                                        0x1d0 (size before relaxing)
 .rodata.do_coninfo.str1.1
                0x000000008084ef84       0x2c cmd/built-in.o
                                         0x30 (size before relaxing)
 .rodata.do_data_abort.str1.1
                0x000000008084efb0        0xc arch/arm/lib/built-in.o
 .rodata.do_dfu.str1.1
                0x000000008084efbc        0xc cmd/built-in.o
                                         0x11 (size before relaxing)
 .rodata.do_echo.str1.1
                0x000000008084efc8        0x3 cmd/built-in.o
 .rodata.do_eeprom.str1.1
                0x000000008084efcb       0x39 cmd/built-in.o
                                         0x4a (size before relaxing)
 .rodata.do_env_ask.str1.1
                0x000000008084f004       0x14 cmd/built-in.o
 .rodata.do_env_default.str1.1
                0x000000008084f018       0x25 cmd/built-in.o
 .rodata.do_env_edit.part.2.str1.1
                0x000000008084f03d        0x7 cmd/built-in.o
                                          0xa (size before relaxing)
 .rodata.do_env_export.str1.1
                0x000000008084f044       0x6b cmd/built-in.o
                                         0x74 (size before relaxing)
 .rodata.do_env_import.str1.1
                0x000000008084f0af      0x139 cmd/built-in.o
                                        0x13b (size before relaxing)
 .rodata.do_env_print.str1.1
                0x000000008084f1e8       0x3d cmd/built-in.o
 .rodata.do_env_print_efi.str1.1
                0x000000008084f225       0x33 cmd/built-in.o
 .rodata.do_env_set_efi.str1.1
                0x000000008084f225       0x8c cmd/built-in.o
 .rodata.do_fastboot.str1.1
                0x000000008084f2b1       0xbd cmd/built-in.o
                                         0xc1 (size before relaxing)
 .rodata.do_fat_fsinfo.str1.1
                0x000000008084f36e       0x56 cmd/built-in.o
 .rodata.do_fat_fswrite.str1.1
                0x000000008084f3c4       0x6b cmd/built-in.o
 .rodata.do_fdt.str1.1
                0x000000008084f42f      0x485 cmd/built-in.o
                                        0x4e5 (size before relaxing)
 .rodata.do_fiq.str1.1
                0x000000008084f8b4       0x18 arch/arm/lib/built-in.o
 .rodata.do_fixup_by_path.str1.1
                0x000000008084f8cc       0x29 common/built-in.o
 .rodata.do_fs_uuid.str1.1
                0x000000008084f8f5        0x4 fs/built-in.o
 .rodata.do_get_any.str1.1
                0x000000008084f8f5        0x5 cmd/built-in.o
 .rodata.do_get_ext2.str1.1
                0x000000008084f8f5        0x9 cmd/built-in.o
 .rodata.do_get_fat.str1.1
                0x000000008084f8f5        0x8 cmd/built-in.o
 .rodata.do_get_tftp.str1.1
                0x000000008084f8f5        0x5 cmd/built-in.o
 .rodata.do_go.str1.1
                0x000000008084f8f5       0x4f cmd/built-in.o
 .rodata.do_gpio.str1.1
                0x000000008084f944       0xc4 cmd/built-in.o
                                         0xd2 (size before relaxing)
 .rodata.do_gpt.str1.1
                0x000000008084fa08       0xd6 cmd/built-in.o
                                         0xef (size before relaxing)
 .rodata.do_i2c_bus_num.str1.1
                0x000000008084fade       0x48 cmd/built-in.o
 .rodata.do_i2c_bus_speed.str1.1
                0x000000008084fb26       0x53 cmd/built-in.o
 .rodata.do_i2c_crc.str1.1
                0x000000008084fb79       0x1f cmd/built-in.o
                                         0x26 (size before relaxing)
 .rodata.do_i2c_md.str1.1
                0x000000008084fb98        0xc cmd/built-in.o
                                         0x16 (size before relaxing)
 .rodata.do_i2c_olen.str1.1
                0x000000008084fba4       0x1f cmd/built-in.o
                                         0x23 (size before relaxing)
 .rodata.do_i2c_probe.str1.1
                0x000000008084fbc3       0x1c cmd/built-in.o
 .rodata.do_i2c_reset.str1.1
                0x000000008084fbdf       0x24 cmd/built-in.o
 .rodata.do_i2c_show_bus.str1.1
                0x000000008084fc03       0x18 cmd/built-in.o
 .rodata.do_i2c_write.str1.1
                0x000000008084fc1b        0x3 cmd/built-in.o
 .rodata.do_imgextract.str1.1
                0x000000008084fc1e      0x14b cmd/built-in.o
                                        0x1e2 (size before relaxing)
 .rodata.do_irq.str1.1
                0x000000008084fd69       0x18 arch/arm/lib/built-in.o
                                         0x13 (size before relaxing)
 .rodata.do_itest.str1.1
                0x000000008084fd69       0x1e cmd/built-in.o
 .rodata.do_load.str1.1
                0x000000008084fd87       0x6d fs/built-in.o
                                         0x90 (size before relaxing)
 .rodata.do_load_serial.str1.1
                0x000000008084fdf4       0x6b cmd/built-in.o
 .rodata.do_load_serial_bin.str1.1
                0x000000008084fe5f      0x159 cmd/built-in.o
 .rodata.do_ls.str1.1
                0x000000008084ffb8        0x2 fs/built-in.o
 .rodata.do_mdio.str1.1
                0x000000008084ffb8       0x78 cmd/built-in.o
 .rodata.do_mem_base.str1.1
                0x0000000080850030       0x17 cmd/built-in.o
 .rodata.do_mem_cmp.str1.1
                0x0000000080850047       0x6e cmd/built-in.o
                                         0x73 (size before relaxing)
 .rodata.do_mem_cp.str1.1
                0x00000000808500b5       0x11 cmd/built-in.o
 .rodata.do_mem_crc.str1.1
                0x00000000808500c6        0x6 cmd/built-in.o
 .rodata.do_mii.str1.1
                0x00000000808500c6      0x22e cmd/built-in.o
                                        0x24a (size before relaxing)
 .rodata.do_mkdir.str1.1
                0x00000000808502f4       0x29 fs/built-in.o
 .rodata.do_mmc_dev.str1.1
                0x000000008085031d       0x80 cmd/built-in.o
                                         0x89 (size before relaxing)
 .rodata.do_mmc_erase.str1.1
                0x000000008085039d       0x67 cmd/built-in.o
 .rodata.do_mmc_hwpartition.str1.1
                0x0000000080850404      0x126 cmd/built-in.o
                                        0x142 (size before relaxing)
 .rodata.do_mmc_part.str1.1
                0x000000008085052a       0x15 cmd/built-in.o
 .rodata.do_mmc_read.str1.1
                0x000000008085053f       0x43 cmd/built-in.o
 .rodata.do_mmc_setdsr.str1.1
                0x0000000080850582       0x1d cmd/built-in.o
 .rodata.do_mmc_write.str1.1
                0x000000008085059f       0x47 cmd/built-in.o
 .rodata.do_mmcinfo.str1.1
                0x00000000808505e6      0x134 cmd/built-in.o
                                        0x186 (size before relaxing)
 .rodata.do_mmcops.str1.1
                0x000000008085071a       0x19 cmd/built-in.o
 .rodata.do_not_used.str1.1
                0x0000000080850733        0xa arch/arm/lib/built-in.o
 .rodata.do_part.str1.1
                0x000000008085073d       0x33 cmd/built-in.o
                                         0x1c (size before relaxing)
 .rodata.do_part_info.str1.1
                0x000000008085073d        0x9 cmd/built-in.o
                                          0xd (size before relaxing)
 .rodata.do_part_list.str1.1
                0x0000000080850746       0x22 cmd/built-in.o
                                         0x25 (size before relaxing)
 .rodata.do_ping.str1.1
                0x0000000080850768       0x35 cmd/built-in.o
 .rodata.do_prefetch_abort.str1.1
                0x000000008085079d       0x10 arch/arm/lib/built-in.o
 .rodata.do_pxe_boot.str1.1
                0x00000000808507ad       0x38 cmd/built-in.o
 .rodata.do_pxe_get.str1.1
                0x00000000808507e5       0x41 cmd/built-in.o
                                         0x46 (size before relaxing)
 .rodata.do_random.str1.1
                0x0000000080850826       0x6d cmd/built-in.o
 .rodata.do_reset.str1.1
                0x0000000080850893        0xf arch/arm/lib/built-in.o
 .rodata.do_run.str1.1
                0x00000000808508a2       0x1c common/built-in.o
 .rodata.do_save.str1.1
                0x00000000808508a2       0x1d fs/built-in.o
 .rodata.do_showvar.str1.1
                0x00000000808508bf        0xc common/built-in.o
                                         0x2f (size before relaxing)
 .rodata.do_size.str1.1
                0x00000000808508cb        0x9 fs/built-in.o
 .rodata.do_software_interrupt.str1.1
                0x00000000808508cb       0x14 arch/arm/lib/built-in.o
 .rodata.do_source.str1.1
                0x00000000808508df       0x1e cmd/built-in.o
 .rodata.do_spi.str1.1
                0x00000000808508fd       0x6e cmd/built-in.o
                                         0x75 (size before relaxing)
 .rodata.do_spi_flash.str1.1
                0x000000008085096b      0x1b9 cmd/built-in.o
                                        0x1de (size before relaxing)
 .rodata.do_spl.str1.1
                0x0000000080850b24       0xc2 cmd/built-in.o
 .rodata.do_sysboot.str1.1
                0x0000000080850be6       0x43 cmd/built-in.o
 .rodata.do_time.str1.1
                0x0000000080850c29       0x29 cmd/built-in.o
 .rodata.do_undefined_instruction.str1.1
                0x0000000080850c52       0x17 arch/arm/lib/built-in.o
 .rodata.do_usb.str1.1
                0x0000000080850c69      0x272 cmd/built-in.o
                                        0x293 (size before relaxing)
 .rodata.do_usbboot.str1.1
                0x0000000080850edb      0x272 cmd/built-in.o
                                          0x4 (size before relaxing)
 .rodata.do_version.str1.1
                0x0000000080850edb       0xba cmd/built-in.o
 .rodata.download.str1.1
                0x0000000080850f95       0x5b drivers/built-in.o
                                         0x5e (size before relaxing)
 .rodata.dra7_mmc_of_data
                0x0000000080850ff0        0x1 drivers/built-in.o
 .rodata.driver_desc
                0x0000000080850ff1       0x10 drivers/usb/gadget/built-in.o
 .rodata.dump_field.str1.1
                0x0000000080851001       0x1b cmd/built-in.o
 .rodata.eeprom_rw.str1.1
                0x000000008085101c       0x23 cmd/built-in.o
 .rodata.efi_bl_bind.str1.1
                0x000000008085103f       0x12 lib/built-in.o
 .rodata.efi_bootmgr_load.str1.1
                0x0000000080851051       0x8b lib/built-in.o
 .rodata.efi_console_register.str1.1
                0x00000000808510dc       0x9b lib/built-in.o
                                         0xb8 (size before relaxing)
 .rodata.efi_convert_single_device_node_to_text.str1.1
                0x0000000080851177      0x123 lib/built-in.o
                                        0x139 (size before relaxing)
 .rodata.efi_cout_clear_screen.str1.1
                0x000000008085129a        0x5 lib/built-in.o
 .rodata.efi_cout_enable_cursor.str1.1
                0x000000008085129f        0x8 lib/built-in.o
 .rodata.efi_cout_set_attribute.str1.1
                0x00000000808512a7       0x17 lib/built-in.o
 .rodata.efi_cout_set_cursor_position.str1.1
                0x00000000808512be        0x9 lib/built-in.o
 .rodata.efi_disk_create_partitions.str1.1
                0x00000000808512c7       0x22 lib/built-in.o
 .rodata.efi_disk_register.str1.1
                0x00000000808512e9       0x67 lib/built-in.o
 .rodata.efi_dp_from_name.str1.1
                0x0000000080851350        0x4 lib/built-in.o
                                          0x7 (size before relaxing)
 .rodata.efi_driver_init.str1.1
                0x0000000080851354       0x58 lib/built-in.o
 .rodata.efi_dump_single_var.str1.1
                0x00000000808513ac       0x33 cmd/built-in.o
                                         0x38 (size before relaxing)
 .rodata.efi_exit.str1.1
                0x00000000808513df       0x17 lib/built-in.o
 .rodata.efi_file_from_path.str1.1
                0x00000000808513f6       0x10 lib/built-in.o
 .rodata.efi_free_pages.str1.1
                0x0000000080851406       0x20 lib/built-in.o
 .rodata.efi_free_pool.str1.1
                0x0000000080851426       0x17 lib/built-in.o
 .rodata.efi_get_next_variable_name.str1.1
                0x000000008085143d       0x16 lib/built-in.o
 .rodata.efi_get_variable.str1.1
                0x0000000080851453        0x7 lib/built-in.o
                                          0xe (size before relaxing)
 .rodata.efi_init_obj_list.str1.1
                0x000000008085145a       0x39 lib/built-in.o
 .rodata.efi_install_fdt.str1.1
                0x0000000080851493      0x117 cmd/built-in.o
 .rodata.efi_load_pe.str1.1
                0x00000000808515aa       0xca lib/built-in.o
 .rodata.efi_net_register.str1.1
                0x0000000080851674       0x6d lib/built-in.o
                                         0x83 (size before relaxing)
 .rodata.efi_print_image_infos.str1.1
                0x00000000808516e1       0x29 lib/built-in.o
                                         0x2b (size before relaxing)
 .rodata.efi_set_code_and_data_type.str1.1
                0x000000008085170a       0x1c lib/built-in.o
 .rodata.efi_set_variable.str1.1
                0x0000000080851726       0x17 lib/built-in.o
                                         0x1d (size before relaxing)
 .rodata.efi_setup_loaded_image.str1.1
                0x000000008085173d       0x36 lib/built-in.o
 .rodata.efi_to_native.str1.1
                0x0000000080851773       0x34 lib/built-in.o
 .rodata.efi_uc_destroy.str1.1
                0x00000000808517a7       0x18 lib/built-in.o
 .rodata.efi_uc_init.str1.1
                0x00000000808517bf       0x1e lib/built-in.o
 .rodata.efi_uc_stop.str1.1
                0x00000000808517dd       0x1d lib/built-in.o
 .rodata.efi_watchdog_register.str1.1
                0x00000000808517fa       0x4f lib/built-in.o
 .rodata.efi_watchdog_timer_notify.str1.1
                0x0000000080851849       0x18 lib/built-in.o
 .rodata.emit.str1.1
                0x0000000080851861       0x1f lib/built-in.o
 .rodata.env_callback_init.str1.1
                0x0000000080851880        0xb env/built-in.o
 .rodata.env_complete.str1.1
                0x000000008085188b        0x7 env/built-in.o
                                         0x10 (size before relaxing)
 .rodata.env_export.str1.1
                0x0000000080851892        0x7 env/built-in.o
                                         0x27 (size before relaxing)
 .rodata.env_fat_load.str1.1
                0x0000000080851892       0x25 env/built-in.o
 .rodata.env_fat_save.str1.1
                0x00000000808518b7       0x4f env/built-in.o
                                         0x53 (size before relaxing)
 .rodata.env_flags_init.str1.1
                0x0000000080851906        0x7 env/built-in.o
 .rodata.env_flags_parse_varaccess.str1.1
                0x000000008085190d       0x3d env/built-in.o
 .rodata.env_flags_parse_vartype.str1.1
                0x000000008085194a       0x34 env/built-in.o
 .rodata.env_flags_validate.str1.1
                0x000000008085197e       0xb2 env/built-in.o
                                         0xb3 (size before relaxing)
 .rodata.env_flags_varaccess_rep
                0x0000000080851a30        0x5 env/built-in.o
 .rodata.env_flags_vartype_rep
                0x0000000080851a35        0x7 env/built-in.o
 .rodata.env_get_bootm_low.str1.1
                0x0000000080851a3c        0xa common/built-in.o
 .rodata.env_get_bootm_mapsize.str1.1
                0x0000000080851a46        0xe common/built-in.o
 .rodata.env_get_bootm_size.str1.1
                0x0000000080851a54        0xb common/built-in.o
 .rodata.env_get_f.str1.1
                0x0000000080851a5f       0x30 cmd/built-in.o
 .rodata.env_import.str1.1
                0x0000000080851a8f       0x3d env/built-in.o
 .rodata.env_import_redund.str1.1
                0x0000000080851acc       0x8d env/built-in.o
 .rodata.env_load.str1.1
                0x0000000080851b59       0x20 env/built-in.o
                                         0x24 (size before relaxing)
 .rodata.env_mmc_save.str1.1
                0x0000000080851b79       0x24 env/built-in.o
                                         0x31 (size before relaxing)
 .rodata.env_print.str1.1
                0x0000000080851b9d       0x2c cmd/built-in.o
 .rodata.env_save.str1.1
                0x0000000080851bc9       0x2a env/built-in.o
 .rodata.env_set.str1.1
                0x0000000080851bf3        0x7 cmd/built-in.o
 .rodata.env_set_default.str1.1
                0x0000000080851bfa       0x2e env/built-in.o
                                         0x5f (size before relaxing)
 .rodata.env_set_hex.str1.1
                0x0000000080851c28        0x4 cmd/built-in.o
 .rodata.erase_seq
                0x0000000080851c28        0x4 common/built-in.o
 .rodata.eth_bind.str1.1
                0x0000000080851c2c      0x113 drivers/usb/gadget/built-in.o
                                        0x11d (size before relaxing)
 .rodata.eth_current_changed.str1.1
                0x0000000080851d3f       0x14 net/built-in.o
 .rodata.eth_env_get_enetaddr_by_index.str1.1
                0x0000000080851d3f       0x10 net/built-in.o
 .rodata.eth_env_set_enetaddr.str1.1
                0x0000000080851d4f        0x4 cmd/built-in.o
 .rodata.eth_get_name.str1.1
                0x0000000080851d53        0x8 net/built-in.o
 .rodata.eth_init.str1.1
                0x0000000080851d53       0x11 net/built-in.o
                                         0x28 (size before relaxing)
 .rodata.eth_initialize.str1.1
                0x0000000080851d64       0x1c net/built-in.o
                                         0x1f (size before relaxing)
 .rodata.eth_mac_skip.str1.1
                0x0000000080851d80       0x18 net/built-in.o
 .rodata.eth_post_bind.str1.1
                0x0000000080851d98       0x2b net/built-in.o
 .rodata.eth_post_probe.str1.1
                0x0000000080851dc3       0xaf net/built-in.o
                                         0xd1 (size before relaxing)
 .rodata.eth_set_current.str1.1
                0x0000000080851e72        0x9 net/built-in.o
 .rodata.eth_setup.str1.1
                0x0000000080851e72       0x3d drivers/usb/gadget/built-in.o
                                         0x49 (size before relaxing)
 .rodata.eth_write_hwaddr.str1.1
                0x0000000080851eaf       0x4e net/built-in.o
 .rodata.ext4_read_file.str1.1
                0x0000000080851efd       0x19 fs/built-in.o
 .rodata.ext4_write_file.str1.1
                0x0000000080851f16       0x42 fs/built-in.o
 .rodata.ext4fs_allocate_blocks.str1.1
                0x0000000080851f58       0x61 fs/built-in.o
 .rodata.ext4fs_check_journal_state.str1.1
                0x0000000080851fb9       0x2e fs/built-in.o
 .rodata.ext4fs_filename_unlink.str1.1
                0x0000000080851fe7       0x16 fs/built-in.o
 .rodata.ext4fs_get_bgdtable.str1.1
                0x0000000080851ffd       0x19 fs/built-in.o
 .rodata.ext4fs_get_parent_inode_num.str1.1
                0x0000000080852016       0x3e fs/built-in.o
                                         0x40 (size before relaxing)
 .rodata.ext4fs_init.str1.1
                0x0000000080852054       0x33 fs/built-in.o
 .rodata.ext4fs_iterate_dir.str1.1
                0x0000000080852087       0x43 fs/built-in.o
                                         0x4a (size before relaxing)
 .rodata.ext4fs_log_journal.str1.1
                0x00000000808520ca       0x1c fs/built-in.o
 .rodata.ext4fs_ls.str1.1
                0x00000000808520e6       0x1f fs/built-in.o
 .rodata.ext4fs_mount.str1.1
                0x0000000080852105       0x24 fs/built-in.o
 .rodata.ext4fs_push_revoke_blk.str1.1
                0x0000000080852129       0x2e fs/built-in.o
 .rodata.ext4fs_update_journal.str1.1
                0x0000000080852157       0x19 fs/built-in.o
 .rodata.ext4fs_update_parent_dentry.str1.1
                0x0000000080852170       0x86 fs/built-in.o
 .rodata.ext4fs_write.str1.1
                0x00000000808521f6       0xaf fs/built-in.o
 .rodata.extract_env.str1.1
                0x00000000808522a5        0x3 cmd/built-in.o
 .rodata.extract_val.str1.1
                0x00000000808522a8        0x3 cmd/built-in.o
                                          0x4 (size before relaxing)
 .rodata.fastboot_add.str1.1
                0x00000000808522a8        0xb drivers/usb/gadget/built-in.o
 .rodata.fastboot_bind.str1.1
                0x00000000808522b3        0x8 drivers/usb/gadget/built-in.o
 .rodata.fastboot_boot.str1.1
                0x00000000808522b3       0x2c drivers/built-in.o
                                         0x31 (size before relaxing)
 .rodata.fastboot_complete.str1.1
                0x00000000808522df       0x1e drivers/usb/gadget/built-in.o
 .rodata.fastboot_data_complete.str1.1
                0x00000000808522fd       0x23 drivers/built-in.o
                                         0x2c (size before relaxing)
 .rodata.fastboot_data_download.str1.1
                0x0000000080852320       0x1d drivers/built-in.o
 .rodata.fastboot_fail.str1.1
                0x000000008085233d        0x5 drivers/built-in.o
                                          0x8 (size before relaxing)
 .rodata.fastboot_getvar.str1.1
                0x0000000080852342       0x31 drivers/built-in.o
                                         0x36 (size before relaxing)
 .rodata.fastboot_handle_command.str1.1
                0x0000000080852373       0x31 drivers/built-in.o
                                         0x33 (size before relaxing)
 .rodata.fastboot_name
                0x00000000808523a4       0x11 drivers/usb/gadget/built-in.o
 .rodata.fastboot_okay.str1.1
                0x00000000808523b5        0x5 drivers/built-in.o
 .rodata.fastboot_set_alt.str1.1
                0x00000000808523ba       0x5f drivers/usb/gadget/built-in.o
 .rodata.fastboot_tx_write_str.str1.1
                0x0000000080852419       0x13 drivers/usb/gadget/built-in.o
 .rodata.fat_itr_resolve.str1.1
                0x000000008085242c       0x34 fs/built-in.o
                                          0x5 (size before relaxing)
 .rodata.fat_itr_root.str1.1
                0x000000008085242c       0x85 fs/built-in.o
 .rodata.fat_mkdir.str1.1
                0x00000000808524b1       0x26 fs/built-in.o
                                         0x2a (size before relaxing)
 .rodata.fat_read_file.str1.1
                0x00000000808524d7       0x1e fs/built-in.o
 .rodata.fat_set_blk_dev.str1.1
                0x00000000808524f5        0x3 fs/built-in.o
                                          0xd (size before relaxing)
 .rodata.fat_unlink.str1.1
                0x00000000808524f8       0x8b fs/built-in.o
                                         0x8c (size before relaxing)
 .rodata.fdt_address_cells.str1.1
                0x0000000080852583        0xf lib/built-in.o
 .rodata.fdt_chosen.str1.1
                0x0000000080852592       0x35 common/built-in.o
                                         0x3e (size before relaxing)
 .rodata.fdt_error.str1.1
                0x00000000808525c7       0x2d common/built-in.o
 .rodata.fdt_find_or_add_subnode.str1.1
                0x00000000808525f4        0xc common/built-in.o
 .rodata.fdt_fixup_ethernet.str1.1
                0x0000000080852600       0x2e common/built-in.o
                                         0x42 (size before relaxing)
 .rodata.fdt_fixup_memory_banks.str1.1
                0x000000008085262e       0x85 common/built-in.o
                                         0x94 (size before relaxing)
 .rodata.fdt_get_alias_namelen.str1.1
                0x00000000808526b3        0x9 lib/built-in.o
 .rodata.fdt_get_phandle.str1.1
                0x00000000808526b3       0x16 lib/built-in.o
 .rodata.fdt_initrd.str1.1
                0x00000000808526b3       0x90 common/built-in.o
                                         0x97 (size before relaxing)
 .rodata.fdt_node_check_compatible.str1.1
                0x0000000080852743        0xb lib/built-in.o
 .rodata.fdt_overlay_apply.str1.1
                0x0000000080852743       0x38 lib/built-in.o
                                         0x51 (size before relaxing)
 .rodata.fdt_overlay_apply_verbose.str1.1
                0x000000008085277b       0x83 common/built-in.o
 .rodata.fdt_root.str1.1
                0x00000000808527fe       0x46 common/built-in.o
                                         0x4e (size before relaxing)
 .rodata.fdt_size_cells.str1.1
                0x0000000080852844        0xc lib/built-in.o
 .rodata.fdt_strerror.str1.1
                0x0000000080852844       0x31 lib/built-in.o
 .rodata.fdt_support_default_count_cells.str1.1
                0x0000000080852875        0xc common/built-in.o
 .rodata.fdt_translate_address.str1.1
                0x0000000080852881        0x7 common/built-in.o
 .rodata.fdt_valid.str1.1
                0x0000000080852888       0x79 cmd/built-in.o
                                         0x7b (size before relaxing)
 .rodata.fdtdec_add_aliases_for_id.str1.1
                0x0000000080852901        0x9 lib/built-in.o
 .rodata.fdtdec_get_chosen_prop.str1.1
                0x0000000080852901        0x8 lib/built-in.o
 .rodata.fdtdec_get_config_int.str1.1
                0x0000000080852901        0x8 lib/built-in.o
 .rodata.fdtdec_get_is_enabled.str1.1
                0x0000000080852909        0x5 lib/built-in.o
                                          0xc (size before relaxing)
 .rodata.fdtdec_prepare_fdt.str1.1
                0x000000008085290e       0x96 lib/built-in.o
 .rodata.fdtdec_setup.str1.1
                0x00000000808529a4        0xf lib/built-in.o
 .rodata.file_fat_detectfs.str1.1
                0x00000000808529a4       0x64 fs/built-in.o
                                         0x84 (size before relaxing)
 .rodata.file_fat_read_at.str1.1
                0x0000000080852a08       0x2a fs/built-in.o
 .rodata.file_fat_write_at.str1.1
                0x0000000080852a32       0xa7 fs/built-in.o
 .rodata.file_get.str1.1
                0x0000000080852ad9        0xc common/built-in.o
                                          0x7 (size before relaxing)
 .rodata.file_open.str1.1
                0x0000000080852ad9        0xa lib/built-in.o
                                          0xb (size before relaxing)
 .rodata.find_mmc_device.str1.1
                0x0000000080852ae3       0x19 drivers/built-in.o
 .rodata.find_valid_gpt.str1.1
                0x0000000080852afc       0x6c disk/built-in.o
 .rodata.fit_all_image_verify.str1.1
                0x0000000080852b68       0x51 common/built-in.o
 .rodata.fit_config_check_sig.str1.1
                0x0000000080852bb9       0xd4 common/built-in.o
                                         0xd9 (size before relaxing)
 .rodata.fit_config_verify_required_sigs.str1.1
                0x0000000080852c8d       0x38 common/built-in.o
 .rodata.fit_get_desc.str1.1
                0x0000000080852cc5        0xc common/built-in.o
 .rodata.fit_get_timestamp.str1.1
                0x0000000080852cd1        0xa common/built-in.o
 .rodata.fit_image_check_sig.str1.1
                0x0000000080852cdb       0x14 common/built-in.o
                                         0x32 (size before relaxing)
 .rodata.fit_image_get_address.str1.1
                0x0000000080852cef       0x1d common/built-in.o
 .rodata.fit_image_get_arch.str1.1
                0x0000000080852d0c       0x1d common/built-in.o
                                          0x5 (size before relaxing)
 .rodata.fit_image_get_comp.str1.1
                0x0000000080852d0c        0xc common/built-in.o
 .rodata.fit_image_get_data.str1.1
                0x0000000080852d0c        0x5 common/built-in.o
 .rodata.fit_image_get_data_offset.str1.1
                0x0000000080852d11        0xc common/built-in.o
 .rodata.fit_image_get_data_position.str1.1
                0x0000000080852d1d        0xe common/built-in.o
 .rodata.fit_image_get_data_size.str1.1
                0x0000000080852d2b        0xa common/built-in.o
 .rodata.fit_image_get_entry.str1.1
                0x0000000080852d35        0x6 common/built-in.o
 .rodata.fit_image_get_load.str1.1
                0x0000000080852d3b        0x5 common/built-in.o
 .rodata.fit_image_get_node.str1.1
                0x0000000080852d3b        0x8 common/built-in.o
 .rodata.fit_image_get_os.str1.1
                0x0000000080852d3b        0x6 common/built-in.o
                                          0x3 (size before relaxing)
 .rodata.fit_image_get_type.str1.1
                0x0000000080852d3b        0x6 common/built-in.o
                                          0x5 (size before relaxing)
 .rodata.fit_image_hash_get_algo.str1.1
                0x0000000080852d3b        0x6 common/built-in.o
                                          0x5 (size before relaxing)
 .rodata.fit_image_hash_get_value.str1.1
                0x0000000080852d3b        0x6 common/built-in.o
 .rodata.fit_image_load.str1.1
                0x0000000080852d3b      0x21b common/built-in.o
                                        0x236 (size before relaxing)
 .rodata.fit_image_print.str1.1
                0x0000000080852f56       0xe5 common/built-in.o
                                         0xf2 (size before relaxing)
 .rodata.fit_image_print_data.str1.1
                0x000000008085303b       0x96 common/built-in.o
                                         0xa4 (size before relaxing)
 .rodata.fit_image_print_verification_data.str1.1
                0x00000000808530d1        0xa common/built-in.o
                                         0x19 (size before relaxing)
 .rodata.fit_image_setup_verify.str1.1
                0x00000000808530db       0x3a common/built-in.o
                                         0x73 (size before relaxing)
 .rodata.fit_image_verify.str1.1
                0x0000000080853115       0x1a common/built-in.o
                                         0x4b (size before relaxing)
 .rodata.fit_image_verify_required_sigs.str1.1
                0x000000008085312f       0x2a common/built-in.o
                                         0x98 (size before relaxing)
 .rodata.fit_image_verify_with_data.str1.1
                0x0000000080853159      0x104 common/built-in.o
                                        0x108 (size before relaxing)
 .rodata.fit_print_contents.str1.1
                0x000000008085325d      0x13b common/built-in.o
                                        0x172 (size before relaxing)
 .rodata.format_mac_pxe.constprop.6.str1.1
                0x0000000080853398       0x25 cmd/built-in.o
 .rodata.from_env.str1.1
                0x00000000808533bd       0x22 cmd/built-in.o
 .rodata.fs_devread.str1.1
                0x00000000808533df       0x98 fs/built-in.o
 .rodata.fs_ln.str1.1
                0x0000000080853477       0x26 fs/built-in.o
 .rodata.fs_ls_generic.str1.1
                0x000000008085349d       0x37 fs/built-in.o
 .rodata.fs_probe_unsupported.str1.1
                0x00000000808534d4       0x24 fs/built-in.o
 .rodata.fs_write.str1.1
                0x00000000808534f8       0x1f fs/built-in.o
 .rodata.g_dnl_bind.str1.1
                0x0000000080853517       0x15 drivers/usb/gadget/built-in.o
 .rodata.g_dnl_register.str1.1
                0x000000008085352c       0x18 drivers/usb/gadget/built-in.o
 .rodata.genimg_get_arch_id.str1.1
                0x0000000080853544        0xb common/built-in.o
                                          0x4 (size before relaxing)
 .rodata.genimg_get_arch_name.str1.1
                0x0000000080853544       0x15 common/built-in.o
 .rodata.genimg_get_comp_id.str1.1
                0x0000000080853559       0x15 common/built-in.o
                                          0xc (size before relaxing)
 .rodata.genimg_get_comp_name.str1.1
                0x0000000080853559       0x14 common/built-in.o
 .rodata.genimg_get_os_id.str1.1
                0x000000008085356d       0x14 common/built-in.o
                                          0x3 (size before relaxing)
 .rodata.genimg_get_os_name.str1.1
                0x000000008085356d        0xb common/built-in.o
 .rodata.genimg_get_type_id.str1.1
                0x0000000080853578        0xb common/built-in.o
                                          0x6 (size before relaxing)
 .rodata.genimg_get_type_name.str1.1
                0x0000000080853578        0xe common/built-in.o
 .rodata.genimg_print_size.str1.1
                0x0000000080853586        0xc common/built-in.o
                                          0xe (size before relaxing)
 .rodata.genimg_print_time.str1.1
                0x0000000080853592       0x22 common/built-in.o
 .rodata.genphy_update_link.str1.1
                0x00000000808535b4       0x54 drivers/net/phy/built-in.o
                                         0x56 (size before relaxing)
 .rodata.get_descriptor_len.str1.1
                0x0000000080853608       0x64 common/built-in.o
 .rodata.get_fatent.str1.1
                0x000000008085366c       0x22 fs/built-in.o
 .rodata.get_local_var.str1.1
                0x000000008085368e        0x3 common/built-in.o
 .rodata.get_phy_device_by_mask.str1.1
                0x0000000080853691       0x3f drivers/net/phy/built-in.o
 .rodata.get_pxe_file.str1.1
                0x00000000808536d0        0x9 cmd/built-in.o
 .rodata.get_pxelinux_path.str1.1
                0x00000000808536d0       0x3e cmd/built-in.o
 .rodata.get_relfile.str1.1
                0x000000008085370e       0x56 cmd/built-in.o
                                         0x63 (size before relaxing)
 .rodata.getvar_current_slot.str1.1
                0x0000000080853764       0x31 drivers/built-in.o
                                          0x2 (size before relaxing)
 .rodata.getvar_downloadsize.str1.1
                0x0000000080853764        0x7 drivers/built-in.o
                                          0xc (size before relaxing)
 .rodata.getvar_is_userspace.str1.1
                0x000000008085376b        0x3 drivers/built-in.o
 .rodata.getvar_platform.str1.1
                0x000000008085376b       0x1a drivers/built-in.o
 .rodata.getvar_product.str1.1
                0x0000000080853785        0xe drivers/built-in.o
                                         0x14 (size before relaxing)
 .rodata.getvar_serialno.str1.1
                0x0000000080853793        0xe drivers/built-in.o
                                         0x16 (size before relaxing)
 .rodata.getvar_version.str1.1
                0x00000000808537a1        0x4 drivers/built-in.o
 .rodata.getvar_version_baseband.str1.1
                0x00000000808537a5        0x4 drivers/built-in.o
 .rodata.getvar_version_bootloader.str1.1
                0x00000000808537a9        0xf drivers/built-in.o
 .rodata.gpio_direction_input.str1.1
                0x00000000808537b8        0xa drivers/gpio/built-in.o
 .rodata.gpio_direction_output.str1.1
                0x00000000808537c2        0xb drivers/gpio/built-in.o
 .rodata.gpio_get_description.str1.1
                0x00000000808537cd        0xa cmd/built-in.o
                                         0x18 (size before relaxing)
 .rodata.gpio_get_status.str1.1
                0x00000000808537d7       0x17 drivers/gpio/built-in.o
                                         0x19 (size before relaxing)
 .rodata.gpio_request_tail.str1.1
                0x00000000808537ee        0x8 drivers/gpio/built-in.o
                                          0xe (size before relaxing)
 .rodata.gpt_fill_header.str1.1
                0x00000000808537f6       0x24 disk/built-in.o
 .rodata.gpt_fill_pte.str1.1
                0x000000008085381a       0x5b disk/built-in.o
 .rodata.gpt_verify_partitions.str1.1
                0x0000000080853875       0xa3 disk/built-in.o
 .rodata.gzip_parse_header.str1.1
                0x0000000080853918       0x3e lib/built-in.o
 .rodata.handle_include.str1.1
                0x0000000080853956       0x33 cmd/built-in.o
 .rodata.handle_pxe_menu.str1.1
                0x0000000080853989       0x15 cmd/built-in.o
                                         0x18 (size before relaxing)
 .rodata.hang.str1.1
                0x000000008085399e       0x2a lib/built-in.o
 .rodata.hash_command.str1.1
                0x00000000808539c8       0x58 common/built-in.o
                                         0x5f (size before relaxing)
 .rodata.header_desc
                0x0000000080853a20        0x5 drivers/usb/gadget/built-in.o
 .rodata.hex_asc
                0x0000000080853a25       0x11 lib/built-in.o
                0x0000000080853a25                hex_asc
 .rodata.hex_dump_to_buffer.str1.1
                0x0000000080853a36       0x1c lib/built-in.o
                                         0x1f (size before relaxing)
 .rodata.hexport_r.str1.1
                0x0000000080853a52       0x30 lib/built-in.o
 .rodata.himport_r.str1.1
                0x0000000080853a82       0x99 lib/built-in.o
 .rodata.i2c_chip_ofdata_to_platdata.str1.1
                0x0000000080853b1b       0x16 drivers/i2c/built-in.o
                                         0x1a (size before relaxing)
 .rodata.i2c_deblock.str1.1
                0x0000000080853b31       0x16 drivers/i2c/built-in.o
                                          0x6 (size before relaxing)
 .rodata.i2c_get_chip.str1.1
                0x0000000080853b31       0x20 drivers/i2c/built-in.o
 .rodata.i2c_get_cur_bus.str1.1
                0x0000000080853b51       0x15 cmd/built-in.o
 .rodata.i2c_post_probe.str1.1
                0x0000000080853b66       0x10 drivers/i2c/built-in.o
 .rodata.i2c_pre_probe.str1.1
                0x0000000080853b66       0x1d drivers/i2c/built-in.o
 .rodata.i2c_uclass_init.str1.1
                0x0000000080853b83        0x4 drivers/i2c/built-in.o
 .rodata.illegal
                0x0000000080853b83       0x11 lib/built-in.o
 .rodata.image_decomp.str1.1
                0x0000000080853b94       0x2b common/built-in.o
                                         0x4e (size before relaxing)
 .rodata.image_info.str1.1
                0x0000000080853bbf       0x93 cmd/built-in.o
 .rodata.image_setup_libfdt.str1.1
                0x0000000080853c52       0x8f common/built-in.o
 .rodata.inflate.str1.1
                0x0000000080853ce1      0x158 lib/built-in.o
 .rodata.inflate_fast.str1.1
                0x0000000080853e39       0x50 lib/built-in.o
 .rodata.init_baud_rate.str1.1
                0x0000000080853e89        0x9 common/built-in.o
 .rodata.init_mmc_device.str1.1
                0x0000000080853e92       0x1a cmd/built-in.o
 .rodata.init_mmc_for_env.str1.1
                0x0000000080853eac       0x5b env/built-in.o
 .rodata.init_peripheral_ep.str1.1
                0x0000000080853f07        0x7 drivers/usb/musb-new/built-in.o
                                          0xf (size before relaxing)
 .rodata.initr_env.str1.1
                0x0000000080853f0e       0x11 common/built-in.o
                                         0x29 (size before relaxing)
 .rodata.initr_ethaddr.str1.1
                0x0000000080853f1f        0x8 common/built-in.o
 .rodata.initr_mmc.str1.1
                0x0000000080853f1f        0x8 common/built-in.o
 .rodata.initr_net.str1.1
                0x0000000080853f27        0x8 common/built-in.o
 .rodata.insert_var_value_sub.str1.1
                0x0000000080853f2f        0x6 common/built-in.o
 .rodata.ip_to_string.str1.1
                0x0000000080853f35        0xc net/built-in.o
 .rodata.is_gpt_valid.str1.1
                0x0000000080853f41       0xea disk/built-in.o
 .rodata.label_boot.str1.1
                0x000000008085402b      0x179 cmd/built-in.o
                                        0x1bc (size before relaxing)
 .rodata.label_print.str1.1
                0x00000000808541a4        0x8 cmd/built-in.o
 .rodata.list_sort.str1.1
                0x00000000808541ac       0x34 lib/built-in.o
 .rodata.lists_bind_drivers.str1.1
                0x00000000808541e0       0x1a drivers/built-in.o
 .rodata.lists_bind_fdt.str1.1
                0x00000000808541fa       0x4a drivers/built-in.o
 .rodata.lmb_alloc_base.str1.1
                0x0000000080854244       0x34 lib/built-in.o
 .rodata.load_serial.str1.1
                0x0000000080854278       0x65 cmd/built-in.o
 .rodata.load_serial_ymodem.str1.1
                0x00000000808542dd       0x28 cmd/built-in.o
                                         0x35 (size before relaxing)
 .rodata.lzop_magic
                0x0000000080854305        0x9 lib/built-in.o
 .rodata.main_loop.str1.1
                0x000000008085430e       0x11 common/built-in.o
                                         0x15 (size before relaxing)
 .rodata.manufacturer
                0x000000008085431f       0x12 drivers/usb/gadget/built-in.o
 .rodata.match.str1.1
                0x0000000080854331       0x18 lib/built-in.o
 .rodata.match_entry.str1.1
                0x0000000080854349       0x1b lib/built-in.o
 .rodata.match_string.str1.1
                0x0000000080854349       0x2c lib/built-in.o
 .rodata.mdio_list_devices.str1.1
                0x0000000080854375       0x12 common/built-in.o
                                         0x19 (size before relaxing)
 .rodata.mdio_phydev_for_ethname.str1.1
                0x0000000080854387       0x1c common/built-in.o
 .rodata.mdio_register.str1.1
                0x00000000808543a3       0x2c common/built-in.o
 .rodata.menu_get_choice.str1.1
                0x00000000808543cf       0x1d common/built-in.o
                                         0x2a (size before relaxing)
 .rodata.miiphy_duplex.str1.1
                0x00000000808543ec       0x5a common/built-in.o
                                         0x68 (size before relaxing)
 .rodata.miiphy_get_dev_by_name.str1.1
                0x0000000080854446       0x13 common/built-in.o
 .rodata.miiphy_is_1000base_x.str1.1
                0x0000000080854459       0x39 common/built-in.o
 .rodata.miiphy_listdev.str1.1
                0x0000000080854492       0x2a common/built-in.o
 .rodata.miiphy_set_current_dev.str1.1
                0x00000000808544bc       0x14 common/built-in.o
 .rodata.miiphy_speed.str1.1
                0x00000000808544d0       0x5b common/built-in.o
 .rodata.mmc_berase.str1.1
                0x000000008085452b       0x6f drivers/built-in.o
 .rodata.mmc_bind.str1.1
                0x000000008085459a        0x8 drivers/built-in.o
                                          0xc (size before relaxing)
 .rodata.mmc_block_op.str1.1
                0x00000000808545a2       0x57 drivers/built-in.o
 .rodata.mmc_bread.str1.1
                0x00000000808545f9       0x47 drivers/built-in.o
 .rodata.mmc_bwrite.str1.1
                0x0000000080854640       0x12 drivers/built-in.o
                                         0x59 (size before relaxing)
 .rodata.mmc_file_op.str1.1
                0x0000000080854652       0x82 drivers/built-in.o
                                         0x8c (size before relaxing)
 .rodata.mmc_get_env_addr.str1.1
                0x00000000808546d4       0x4f env/built-in.o
                                         0x55 (size before relaxing)
 .rodata.mmc_get_op_cond.str1.1
                0x0000000080854723       0x29 drivers/built-in.o
 .rodata.mmc_hwpart_config.str1.1
                0x000000008085474c      0x19f drivers/built-in.o
 .rodata.mmc_initialize.str1.1
                0x00000000808548eb       0x17 drivers/built-in.o
 .rodata.mmc_mode_name.str1.1
                0x0000000080854902        0xd drivers/built-in.o
 .rodata.mmc_of_parse.str1.1
                0x000000008085490f      0x121 drivers/built-in.o
                                        0x139 (size before relaxing)
 .rodata.mmc_poll_for_busy.str1.1
                0x0000000080854a30       0x32 drivers/built-in.o
 .rodata.mmc_reset_controller_fsm.str1.1
                0x0000000080854a62       0x2d drivers/built-in.o
 .rodata.mmc_start_init.str1.1
                0x0000000080854a8f       0x16 drivers/built-in.o
 .rodata.mmc_startup.str1.1
                0x0000000080854aa5       0x81 drivers/built-in.o
                                         0x87 (size before relaxing)
 .rodata.mod_i2c_mem.isra.1.str1.1
                0x0000000080854b26       0x21 cmd/built-in.o
                                         0x28 (size before relaxing)
 .rodata.mod_mem.isra.0.str1.1
                0x0000000080854b47        0xc cmd/built-in.o
                                         0x1d (size before relaxing)
 .rodata.mtd_arg_off.str1.1
                0x0000000080854b53       0x38 drivers/mtd/built-in.o
 .rodata.mtd_arg_off_size.str1.1
                0x0000000080854b8b       0x5b drivers/mtd/built-in.o
                                         0x71 (size before relaxing)
 .rodata.multipliers
                0x0000000080854be6       0x10 drivers/built-in.o
 .rodata.musb_create_int_queue.str1.1
                0x0000000080854bf6       0x83 drivers/usb/musb-new/built-in.o
 .rodata.musb_driver_name
                0x0000000080854c79        0xa drivers/usb/musb-new/built-in.o
                0x0000000080854c79                musb_driver_name
 .rodata.musb_g_ep0_irq.str1.1
                0x0000000080854c83       0xe4 drivers/usb/musb-new/built-in.o
                                         0xe6 (size before relaxing)
 .rodata.musb_h_ep0_irq.str1.1
                0x0000000080854d67       0x34 drivers/usb/musb-new/built-in.o
 .rodata.musb_h_tx_flush_fifo.str1.1
                0x0000000080854d9b       0x2b drivers/usb/musb-new/built-in.o
 .rodata.musb_host_rx.str1.1
                0x0000000080854dc6       0x2f drivers/usb/musb-new/built-in.o
 .rodata.musb_init_controller.str1.1
                0x0000000080854df5       0xf1 drivers/usb/musb-new/built-in.o
                                        0x10e (size before relaxing)
 .rodata.musb_lowlevel_init.str1.1
                0x0000000080854ee6       0x1d drivers/usb/musb-new/built-in.o
 .rodata.musb_start_urb.str1.1
                0x0000000080854f03       0x48 drivers/usb/musb-new/built-in.o
 .rodata.musb_test_packet
                0x0000000080854f4b       0x35 drivers/usb/musb-new/built-in.o
 .rodata.names.9420
                0x0000000080854f80        0x6 lib/built-in.o
 .rodata.net_auto_load.str1.1
                0x0000000080854f86       0x45 net/built-in.o
 .rodata.net_bcast_ethaddr
                0x0000000080854fcb        0x6 net/built-in.o
                0x0000000080854fcb                net_bcast_ethaddr
 .rodata.net_check_prereq.str1.1
                0x0000000080854fd1       0xbc net/built-in.o
 .rodata.net_loop.str1.1
                0x000000008085508d       0x29 net/built-in.o
                                         0x3b (size before relaxing)
 .rodata.net_process_received_packet.str1.1
                0x00000000808550b6       0x1d net/built-in.o
 .rodata.net_start_again.str1.1
                0x00000000808550d3        0xe net/built-in.o
                                         0x15 (size before relaxing)
 .rodata.netboot_common.str1.1
                0x00000000808550e1       0x1d cmd/built-in.o
                                         0x5a (size before relaxing)
 .rodata.nfs_handler.str1.1
                0x00000000808550fe       0x56 net/built-in.o
 .rodata.nfs_lookup_reply.str1.1
                0x0000000080855154       0x25 net/built-in.o
                                         0x27 (size before relaxing)
 .rodata.nfs_read_reply.str1.1
                0x0000000080855179        0x4 net/built-in.o
 .rodata.nfs_readlink_reply.str1.1
                0x000000008085517d        0x2 net/built-in.o
 .rodata.nfs_start.str1.1
                0x000000008085517d      0x104 net/built-in.o
                                        0x105 (size before relaxing)
 .rodata.nfs_timeout_handler.str1.1
                0x0000000080855281       0x2a net/built-in.o
 .rodata.normalize_longname.str1.1
                0x00000000808552ab        0xa fs/built-in.o
 .rodata.ns16550_serial_ofdata_to_platdata.str1.1
                0x00000000808552b5       0x22 drivers/serial/built-in.o
                                         0x32 (size before relaxing)
 .rodata.ofnode_get_chosen_prop.str1.1
                0x00000000808552d7        0x8 drivers/built-in.o
 .rodata.omap3_spi_probe.str1.1
                0x00000000808552d7       0x17 drivers/spi/built-in.o
 .rodata.omap3_spi_xfer.str1.1
                0x00000000808552ee       0x63 drivers/spi/built-in.o
 .rodata.omap_gpio_probe.str1.1
                0x0000000080855351        0xa drivers/gpio/built-in.o
 .rodata.omap_hsmmc_ofdata_to_platdata.str1.1
                0x000000008085535b        0xd drivers/built-in.o
                                         0x16 (size before relaxing)
 .rodata.omap_hsmmc_probe.str1.1
                0x0000000080855368       0x65 drivers/built-in.o
 .rodata.omap_hsmmc_send_cmd.str1.1
                0x00000000808553cd       0x70 drivers/built-in.o
 .rodata.omap_hsmmc_set_ios.str1.1
                0x000000008085543d       0x1f drivers/built-in.o
 .rodata.omap_i2c_ofdata_to_platdata.str1.1
                0x000000008085545c       0x10 drivers/i2c/built-in.o
 .rodata.omap_i2c_probe.str1.1
                0x000000008085545c       0x45 drivers/i2c/built-in.o
 .rodata.omap_i2c_probe_chip.str1.1
                0x00000000808554a1       0x3e drivers/i2c/built-in.o
 .rodata.omap_i2c_xfer.str1.1
                0x00000000808554df      0x191 drivers/i2c/built-in.o
 .rodata.omap_serial_ofdata_to_platdata.str1.1
                0x0000000080855670       0x1b drivers/serial/built-in.o
 .rodata.on_baudrate.str1.1
                0x0000000080855670       0x42 drivers/serial/built-in.o
                                         0x74 (size before relaxing)
 .rodata.on_callbacks.str1.1
                0x00000000808556b2      0x105 env/built-in.o
 .rodata.on_console.str1.1
                0x00000000808557b7        0x5 common/built-in.o
                                         0x27 (size before relaxing)
 .rodata.on_flags.str1.1
                0x00000000808557b7       0x50 env/built-in.o
 .rodata.overlay_adjust_node_phandles.str1.1
                0x0000000080855807        0xe lib/built-in.o
                                         0x16 (size before relaxing)
 .rodata.overlay_get_target.str1.1
                0x0000000080855815       0x13 lib/built-in.o
 .rodata.parse_attr.part.0.str1.1
                0x0000000080855828       0x17 lib/built-in.o
                                         0x26 (size before relaxing)
 .rodata.parse_integer.str1.1
                0x000000008085583f       0x17 cmd/built-in.o
 .rodata.parse_pxefile_top.str1.1
                0x0000000080855856       0x89 cmd/built-in.o
                                         0x8b (size before relaxing)
 .rodata.parse_sliteral.str1.1
                0x00000000808558df       0x1f cmd/built-in.o
 .rodata.parse_stream_outer.str1.1
                0x00000000808558fe       0x4d common/built-in.o
 .rodata.parse_string_outer.str1.1
                0x000000008085594b        0x2 common/built-in.o
 .rodata.part_get_info_efi.str1.1
                0x000000008085594b        0xa disk/built-in.o
 .rodata.part_get_info_extended.str1.1
                0x000000008085594b        0xa disk/built-in.o
                                         0x11 (size before relaxing)
 .rodata.part_get_info_iso_verb.str1.1
                0x0000000080855955      0x1bf disk/built-in.o
                                        0x1c6 (size before relaxing)
 .rodata.part_get_info_whole_disk.str1.1
                0x0000000080855b14        0xb disk/built-in.o
                                         0x12 (size before relaxing)
 .rodata.part_print.str1.1
                0x0000000080855b1f       0x8e disk/built-in.o
                                         0x97 (size before relaxing)
 .rodata.part_print_dos.str1.1
                0x0000000080855bad       0x2a disk/built-in.o
 .rodata.part_print_efi.str1.1
                0x0000000080855bd7       0x8d disk/built-in.o
 .rodata.part_print_iso.str1.1
                0x0000000080855c64       0x68 disk/built-in.o
 .rodata.part_set_generic_name.str1.1
                0x0000000080855ccc        0x7 disk/built-in.o
                                          0xa (size before relaxing)
 .rodata.phy_connect.str1.1
                0x0000000080855cd3       0x23 drivers/net/phy/built-in.o
 .rodata.phy_connect_dev.str1.1
                0x0000000080855cf6       0x2f drivers/net/phy/built-in.o
 .rodata.phy_reset.str1.1
                0x0000000080855d25       0x15 drivers/net/phy/built-in.o
 .rodata.ping_start.str1.1
                0x0000000080855d3a       0x11 net/built-in.o
 .rodata.print_buffer.str1.1
                0x0000000080855d3a        0x6 lib/built-in.o
                                         0x17 (size before relaxing)
 .rodata.print_cpuinfo.str1.1
                0x0000000080855d40       0x3b arch/arm/mach-omap2/built-in.o
                                         0x3d (size before relaxing)
 .rodata.print_data.str1.1
                0x0000000080855d7b       0x27 cmd/built-in.o
                                         0x32 (size before relaxing)
 .rodata.print_freq.str1.1
                0x0000000080855da2       0x1b lib/built-in.o
 .rodata.print_hex_dump.str1.1
                0x0000000080855dbd       0x16 lib/built-in.o
                                         0x1c (size before relaxing)
 .rodata.print_jrnl_status.str1.1
                0x0000000080855dd3       0x34 fs/built-in.o
 .rodata.print_mmc_devices.str1.1
                0x0000000080855e07        0xd drivers/built-in.o
                                         0x1c (size before relaxing)
 .rodata.print_num.str1.1
                0x0000000080855e14       0x10 cmd/built-in.o
 .rodata.print_partition_extended.str1.1
                0x0000000080855e24       0xb3 disk/built-in.o
                                         0xb4 (size before relaxing)
 .rodata.print_size.str1.1
                0x0000000080855ed7       0x15 lib/built-in.o
 .rodata.product
                0x0000000080855eec       0x14 drivers/usb/gadget/built-in.o
 .rodata.put_ext4.str1.1
                0x0000000080855f00       0x42 fs/built-in.o
 .rodata.quantifier.str1.1
                0x0000000080855f42       0x17 lib/built-in.o
 .rodata.read_allocated_block.str1.1
                0x0000000080855f59      0x240 fs/built-in.o
 .rodata.read_bootsectandvi.str1.1
                0x0000000080856199       0x1b fs/built-in.o
 .rodata.realloc.str1.1
                0x00000000808561b4       0x25 common/built-in.o
 .rodata.reboot_bootloader.str1.1
                0x00000000808561d9       0x17 drivers/built-in.o
 .rodata.reg_map_ip_v1
                0x00000000808561f0       0x11 drivers/i2c/built-in.o
 .rodata.reg_map_ip_v2
                0x0000000080856201       0x16 drivers/i2c/built-in.o
 .rodata.regex_callback.str1.1
                0x0000000080856217       0x20 env/built-in.o
 .rodata.request_and_set_gpio.str1.1
                0x0000000080856237       0x3b board/ti/am335x/built-in.o
 .rodata.rndis_command_complete.str1.1
                0x0000000080856272       0x19 drivers/usb/gadget/built-in.o
 .rodata.rndis_control_ack_complete.str1.1
                0x000000008085628b       0x17 drivers/usb/gadget/built-in.o
 .rodata.rndis_control_intf
                0x00000000808562a2        0x9 drivers/usb/gadget/built-in.o
 .rodata.rndis_data_intf
                0x00000000808562ab        0x9 drivers/usb/gadget/built-in.o
 .rodata.rsa_verify.str1.1
                0x00000000808562b4        0x7 lib/built-in.o
                                         0x11 (size before relaxing)
 .rodata.rsa_verify_with_keynode.str1.1
                0x00000000808562bb       0x6f lib/built-in.o
 .rodata.rtc_days_in_month
                0x000000008085632a        0xc drivers/built-in.o
 .rodata.run_list_real.str1.1
                0x0000000080856336       0x45 common/built-in.o
                                         0x4b (size before relaxing)
 .rodata.run_usb_dnl_gadget.str1.1
                0x000000008085637b       0x51 common/built-in.o
 .rodata.rx_handler_command.str1.1
                0x00000000808563cc       0x10 drivers/usb/gadget/built-in.o
                                         0x1a (size before relaxing)
 .rodata.rx_handler_dl_image.str1.1
                0x00000000808563dc       0x10 drivers/usb/gadget/built-in.o
 .rodata.rx_submit.constprop.10.str1.1
                0x00000000808563ec       0x11 drivers/usb/gadget/built-in.o
 .rodata.search_dir.str1.1
                0x00000000808563fd       0x1b fs/built-in.o
 .rodata.serial_init.str1.1
                0x0000000080856418       0x23 drivers/serial/built-in.o
                                         0x2b (size before relaxing)
 .rodata.set_board_info_env.str1.1
                0x000000008085643b       0x15 board/ti/common/built-in.o
                                         0x22 (size before relaxing)
 .rodata.set_contents.str1.1
                0x0000000080856450       0x3b fs/built-in.o
 .rodata.set_ether_config.isra.6.str1.1
                0x000000008085648b       0x15 drivers/usb/gadget/built-in.o
 .rodata.set_gpt_info.isra.0.constprop.1.str1.1
                0x00000000808564a0       0x8e cmd/built-in.o
                                         0xb0 (size before relaxing)
 .rodata.set_local_var.str1.1
                0x000000008085652e       0x59 common/built-in.o
 .rodata.set_working_fdt_addr.str1.1
                0x0000000080856587        0x8 cmd/built-in.o
 .rodata.setup_clock_synthesizer.str1.1
                0x000000008085658f       0x63 arch/arm/mach-omap2/built-in.o
 .rodata.sha1_der_prefix
                0x00000000808565f2        0xf lib/built-in.o
                0x00000000808565f2                sha1_der_prefix
 .rodata.sha1_padding
                0x0000000080856601       0x40 lib/built-in.o
 .rodata.sha256_der_prefix
                0x0000000080856641       0x13 lib/built-in.o
                0x0000000080856641                sha256_der_prefix
 .rodata.show_board_info.str1.1
                0x0000000080856654       0x11 common/built-in.o
 .rodata.show_bus.str1.1
                0x0000000080856665       0x3f cmd/built-in.o
                                         0x41 (size before relaxing)
 .rodata.show_devices.str1.1
                0x00000000808566a4       0x33 drivers/built-in.o
                                         0x3c (size before relaxing)
 .rodata.show_dram_config.str1.1
                0x00000000808566d7        0x1 common/built-in.o
 .rodata.show_regs.str1.1
                0x00000000808566d7      0x119 arch/arm/lib/built-in.o
                                        0x145 (size before relaxing)
 .rodata.simple_bus_post_bind.str1.1
                0x00000000808567f0        0x7 drivers/built-in.o
 .rodata.smbios_write_type0.str1.1
                0x00000000808567f0        0xb lib/built-in.o
                                         0x1a (size before relaxing)
 .rodata.smbios_write_type1.str1.1
                0x00000000808567fb        0x8 lib/built-in.o
 .rodata.smbios_write_type2.str1.1
                0x00000000808567fb        0xb lib/built-in.o
                                          0x7 (size before relaxing)
 .rodata.smbios_write_type3.str1.1
                0x00000000808567fb        0xb lib/built-in.o
                                          0x3 (size before relaxing)
 .rodata.smbios_write_type4.str1.1
                0x00000000808567fb        0x8 lib/built-in.o
 .rodata.source.str1.1
                0x00000000808567fb       0xb8 cmd/built-in.o
                                         0xd6 (size before relaxing)
 .rodata.spi_flash_probe_bus_cs.str1.1
                0x00000000808568b3       0x1e drivers/mtd/spi/built-in.o
 .rodata.spi_flash_std_erase.str1.1
                0x00000000808568d1       0x34 drivers/mtd/spi/built-in.o
 .rodata.spi_flash_std_probe.str1.1
                0x0000000080856905       0x1c drivers/mtd/spi/built-in.o
 .rodata.spi_get_bus_and_cs.str1.1
                0x0000000080856921       0x64 drivers/spi/built-in.o
 .rodata.spi_nor_3to4_erase.11261
                0x0000000080856985        0x6 drivers/mtd/spi/built-in.o
 .rodata.spi_nor_3to4_program.11257
                0x000000008085698b        0x6 drivers/mtd/spi/built-in.o
 .rodata.spi_nor_3to4_read.11253
                0x0000000080856991       0x12 drivers/mtd/spi/built-in.o
 .rodata.spi_nor_scan.str1.1
                0x00000000808569a3       0xa4 drivers/mtd/spi/built-in.o
                                         0xa7 (size before relaxing)
 .rodata.spi_nor_wait_till_ready_with_timeout.constprop.5.str1.1
                0x0000000080856a47       0x1b drivers/mtd/spi/built-in.o
 .rodata.spi_post_probe.str1.1
                0x0000000080856a62       0x12 drivers/spi/built-in.o
 .rodata.spi_set_speed_mode.str1.1
                0x0000000080856a74       0x35 drivers/spi/built-in.o
 .rodata.spi_slave_ofdata_to_platdata.str1.1
                0x0000000080856aa9       0xa0 drivers/spi/built-in.o
                                         0xa4 (size before relaxing)
 .rodata.split_filename.str1.1
                0x0000000080856b49        0x2 fs/built-in.o
 .rodata.state_dfu_manifest.str1.1
                0x0000000080856b49       0x24 drivers/usb/gadget/built-in.o
 .rodata.stdio_add_devices.str1.1
                0x0000000080856b6d        0x7 common/built-in.o
 .rodata.store_char_in_data.str1.1
                0x0000000080856b6d       0x1f lib/built-in.o
 .rodata.str1.1
                0x0000000080856b8c       0xeb arch/arm/lib/built-in.o
 .rodata.str1.1
                0x0000000080856c77       0x22 arch/arm/mach-omap2/built-in.o
 .rodata.str1.1
                0x0000000080856c99     0x4064 cmd/built-in.o
                                       0x43e6 (size before relaxing)
 .rodata.str1.1
                0x000000008085acfd      0x8f4 common/built-in.o
                                        0x984 (size before relaxing)
 .rodata.str1.1
                0x000000008085b5f1       0x1f disk/built-in.o
                                         0x22 (size before relaxing)
 .rodata.str1.1
                0x000000008085b610      0x2e9 drivers/built-in.o
                                        0x332 (size before relaxing)
 .rodata.str1.1
                0x000000008085b8f9       0x41 drivers/gpio/built-in.o
                                         0x5b (size before relaxing)
 .rodata.str1.1
                0x000000008085b93a       0x2f drivers/i2c/built-in.o
 .rodata.str1.1
                0x000000008085b969       0xf9 drivers/mtd/spi/built-in.o
                                        0x107 (size before relaxing)
 .rodata.str1.1
                0x000000008085ba62       0x20 drivers/net/built-in.o
 .rodata.str1.1
                0x000000008085ba82      0x100 drivers/net/phy/built-in.o
                                        0x119 (size before relaxing)
 .rodata.str1.1
                0x000000008085bb82       0xca drivers/serial/built-in.o
                                         0xda (size before relaxing)
 .rodata.str1.1
                0x000000008085bc4c       0x34 drivers/spi/built-in.o
                                         0x48 (size before relaxing)
 .rodata.str1.1
                0x000000008085bc80       0x39 drivers/usb/common/built-in.o
                                         0x52 (size before relaxing)
 .rodata.str1.1
                0x000000008085bcb9       0x2b drivers/usb/gadget/built-in.o
                                         0x51 (size before relaxing)
 .rodata.str1.1
                0x000000008085bce4        0x4 drivers/usb/gadget/udc/built-in.o
 .rodata.str1.1
                0x000000008085bce4       0x10 drivers/usb/host/built-in.o
                                         0x14 (size before relaxing)
 .rodata.str1.1
                0x000000008085bcf4       0x3d drivers/usb/musb-new/built-in.o
                                         0x4a (size before relaxing)
 .rodata.str1.1
                0x000000008085bd31      0x105 env/built-in.o
                                         0x18 (size before relaxing)
 .rodata.str1.1
                0x000000008085bd31        0xc fs/built-in.o
                                         0x15 (size before relaxing)
 .rodata.str1.1
                0x000000008085bd3d      0x4a2 lib/built-in.o
                                        0x4b8 (size before relaxing)
 .rodata.str1.1
                0x000000008085c1df        0x6 net/built-in.o
                                         0x35 (size before relaxing)
 .rodata.string.str1.1
                0x000000008085c1e5        0x7 lib/built-in.o
 .rodata.syntax_err.str1.1
                0x000000008085c1ec        0xe common/built-in.o
 .rodata.tab_seq
                0x000000008085c1fa        0x9 common/built-in.o
 .rodata.test_block_type.str1.1
                0x000000008085c203        0xa disk/built-in.o
 .rodata.tftp_handler.str1.1
                0x000000008085c20d       0x9a net/built-in.o
                                         0xa8 (size before relaxing)
 .rodata.tftp_send.str1.1
                0x000000008085c2a7       0x36 net/built-in.o
                                         0x42 (size before relaxing)
 .rodata.tftp_start.str1.1
                0x000000008085c2dd       0xe8 net/built-in.o
                                        0x181 (size before relaxing)
 .rodata.tftp_timeout_handler.str1.1
                0x000000008085c3c5       0x2a net/built-in.o
                                         0x2d (size before relaxing)
 .rodata.ti_cm_get_macid.str1.1
                0x000000008085c3ef       0x19 drivers/net/built-in.o
 .rodata.ti_cm_get_macid_addr.str1.1
                0x000000008085c408       0xd4 drivers/net/built-in.o
 .rodata.ti_musb_host_ofdata_to_platdata.str1.1
                0x000000008085c4dc       0x19 drivers/usb/musb-new/built-in.o
 .rodata.ti_musb_ofdata_to_platdata.str1.1
                0x000000008085c4f5       0x50 drivers/usb/musb-new/built-in.o
                                         0x59 (size before relaxing)
 .rodata.ti_musb_wrapper_bind.str1.1
                0x000000008085c545       0x79 drivers/usb/musb-new/built-in.o
 .rodata.timer_pre_probe.str1.1
                0x000000008085c5be       0x10 drivers/built-in.o
 .rodata.try_load_entry.str1.1
                0x000000008085c5ce       0x4a lib/built-in.o
 .rodata.u_boot_hush_start.str1.1
                0x000000008085c618       0x12 common/built-in.o
 .rodata.uclass_resolve_seq.str1.1
                0x000000008085c62a       0x27 drivers/built-in.o
 .rodata.union_desc
                0x000000008085c651        0x5 drivers/usb/gadget/built-in.o
 .rodata.us_direction
                0x000000008085c656       0x20 common/built-in.o
 .rodata.usb_child_post_bind.str1.1
                0x000000008085c676       0x25 drivers/usb/host/built-in.o
 .rodata.usb_composite_register.str1.1
                0x000000008085c69b        0xa drivers/usb/gadget/built-in.o
 .rodata.usb_del_gadget_udc.str1.1
                0x000000008085c6a5       0x18 drivers/usb/gadget/udc/built-in.o
 .rodata.usb_display_class_sub.str1.1
                0x000000008085c6bd       0xb6 cmd/built-in.o
                                         0xbc (size before relaxing)
 .rodata.usb_display_config.str1.1
                0x000000008085c773      0x105 cmd/built-in.o
                                        0x118 (size before relaxing)
 .rodata.usb_display_desc.str1.1
                0x000000008085c878       0xac cmd/built-in.o
                                         0xae (size before relaxing)
 .rodata.usb_display_string.str1.1
                0x000000008085c924        0xd cmd/built-in.o
 .rodata.usb_eth_probe.str1.1
                0x000000008085c931       0x21 drivers/usb/gadget/built-in.o
 .rodata.usb_eth_recv.str1.1
                0x000000008085c952       0x14 drivers/usb/gadget/built-in.o
 .rodata.usb_eth_send.str1.1
                0x000000008085c966       0x49 drivers/usb/gadget/built-in.o
 .rodata.usb_eth_start.str1.1
                0x000000008085c9af       0xab drivers/usb/gadget/built-in.o
 .rodata.usb_ether_init.str1.1
                0x000000008085ca5a       0x48 drivers/usb/gadget/built-in.o
 .rodata.usb_find_usb2_hub_address_port.str1.1
                0x000000008085caa2       0x36 common/built-in.o
 .rodata.usb_gadget_initialize.str1.1
                0x000000008085cad8       0x15 drivers/usb/gadget/udc/built-in.o
 .rodata.usb_gadget_probe_driver.str1.1
                0x000000008085cad8       0x38 drivers/usb/gadget/udc/built-in.o
 .rodata.usb_get_class_desc.str1.1
                0x000000008085cb10       0x64 cmd/built-in.o
                                         0x65 (size before relaxing)
 .rodata.usb_get_configuration_len.str1.1
                0x000000008085cb74       0x58 common/built-in.o
 .rodata.usb_get_dr_mode.str1.1
                0x000000008085cbcc       0x1f drivers/usb/common/built-in.o
 .rodata.usb_hub_configure.str1.1
                0x000000008085cbeb       0x5f common/built-in.o
 .rodata.usb_hub_port_connect_change.str1.1
                0x000000008085cc4a       0x18 common/built-in.o
 .rodata.usb_init.str1.1
                0x000000008085cc62       0x54 drivers/usb/host/built-in.o
 .rodata.usb_mass_storage_probe.str1.1
                0x000000008085ccb6       0x16 common/built-in.o
 .rodata.usb_scan_bus.isra.3.str1.1
                0x000000008085cccc       0x4d drivers/usb/host/built-in.o
                                         0x5f (size before relaxing)
 .rodata.usb_scan_device.str1.1
                0x000000008085cd19       0x2a drivers/usb/host/built-in.o
 .rodata.usb_select_config.str1.1
                0x000000008085cd43      0x220 common/built-in.o
 .rodata.usb_set_interface.str1.1
                0x000000008085cf63       0x1f common/built-in.o
 .rodata.usb_setup_descriptor.str1.1
                0x000000008085cf82       0x1d common/built-in.o
 .rodata.usb_setup_device.str1.1
                0x000000008085cf9f       0x68 common/built-in.o
 .rodata.usb_show_tree_graph.str1.1
                0x000000008085d007       0x2b cmd/built-in.o
                                         0x3a (size before relaxing)
 .rodata.usb_stor_CBI_get_status.isra.2.str1.1
                0x000000008085d032       0x1f common/built-in.o
 .rodata.usb_stor_CB_transport.str1.1
                0x000000008085d051       0x6e common/built-in.o
 .rodata.usb_stor_get_info.str1.1
                0x000000008085d0bf       0x5d common/built-in.o
 .rodata.usb_stor_info.str1.1
                0x000000008085d11c       0x32 common/built-in.o
                                         0x40 (size before relaxing)
 .rodata.usb_stor_scan.str1.1
                0x000000008085d14e       0x48 common/built-in.o
 .rodata.usb_storage_probe.str1.1
                0x000000008085d196       0x5c common/built-in.o
 .rodata.uuid_bin_to_str.str1.1
                0x000000008085d1f2        0xa lib/built-in.o
 .rodata.valid_elf_image.str1.1
                0x000000008085d1f2       0x52 cmd/built-in.o
 .rodata.validate_gpt_entries.str1.1
                0x000000008085d244       0x40 disk/built-in.o
 .rodata.validate_gpt_header.str1.1
                0x000000008085d284       0xe1 disk/built-in.o
 .rodata.var_complete.str1.1
                0x000000008085d365        0x1 common/built-in.o
 .rodata.version_string
                0x000000008085d365       0x2e cmd/built-in.o
                0x000000008085d365                version_string
 .rodata.wait_for_bb.str1.1
                0x000000008085d393       0x1e drivers/i2c/built-in.o
 .rodata.wait_for_event.str1.1
                0x000000008085d3b1       0x37 drivers/i2c/built-in.o
 .rodata.write_gpt_table.str1.1
                0x000000008085d3e8       0x55 disk/built-in.o
 .rodata.write_smbios_table.str1.1
                0x000000008085d43d        0xb lib/built-in.o
 .rodata.xmalloc.str1.1
                0x000000008085d448       0x1e common/built-in.o
 .rodata.xyzModem_error.str1.1
                0x000000008085d466        0xe common/built-in.o
 .rodata.xyzModem_stream_close.str1.1
                0x000000008085d474       0x47 common/built-in.o
                                         0x4b (size before relaxing)
 .rodata.xyzModem_stream_open.str1.1
                0x000000008085d4bb        0x2 common/built-in.o
 .rodata.zunzip.str1.1
                0x000000008085d4bb       0x47 lib/built-in.o
                0x000000008085d504                . = ALIGN (0x4)

.data           0x000000008085d508     0x3ef8
 *(.data*)
 .data.rel.ro   0x000000008085d508        0x0 arch/arm/cpu/armv7/start.o
 .data.cdce913_data
                0x000000008085d508       0x14 board/ti/am335x/built-in.o
 .data.cpu_revs
                0x000000008085d51c        0xc arch/arm/mach-omap2/built-in.o
 .data.cpu_revs_am43xx
                0x000000008085d528        0xc arch/arm/mach-omap2/built-in.o
 .data.ctrl     0x000000008085d534        0x4 arch/arm/mach-omap2/built-in.o
                0x000000008085d534                ctrl
 .data.bootm_help_text
                0x000000008085d538      0x4cf cmd/built-in.o
 *fill*         0x000000008085da07        0x1 
 .data.cmd_bootm_sub
                0x000000008085da08       0xfc cmd/built-in.o
 .data.source_help_text
                0x000000008085db04       0xac cmd/built-in.o
 .data.cmd_blkc_sub
                0x000000008085dbb0       0x38 cmd/built-in.o
 .data.bootefi_help_text
                0x000000008085dbe8      0x18b cmd/built-in.o
 .data.bootz_help_text
                0x000000008085dd73      0x208 cmd/built-in.o
 *fill*         0x000000008085df7b        0x1 
 .data.test_commands
                0x000000008085df7c       0x54 cmd/built-in.o
 .data.fdt_help_text
                0x000000008085dfd0      0x769 cmd/built-in.o
 .data.root.9387
                0x000000008085e739        0x2 cmd/built-in.o
 .data.tabs.9478
                0x000000008085e73b       0x21 cmd/built-in.o
 .data.cmd_i2c_sub
                0x000000008085e75c      0x1a4 cmd/built-in.o
 .data.i2c_dp_last_length
                0x000000008085e900        0x4 cmd/built-in.o
 .data.i2c_help_text
                0x000000008085e904      0x3ed cmd/built-in.o
 *fill*         0x000000008085ecf1        0x3 
 .data.do_echo  0x000000008085ecf4        0x4 cmd/built-in.o
 .data.dp_last_length
                0x000000008085ecf8        0x4 cmd/built-in.o
 .data.cmd_mmc  0x000000008085ecfc      0x118 cmd/built-in.o
 .data.curr_device
                0x000000008085ee14        0x4 cmd/built-in.o
 .data.cmd_pxe_sub
                0x000000008085ee18       0x38 cmd/built-in.o
 .data.pxe_default_paths
                0x000000008085ee50       0x14 cmd/built-in.o
                0x000000008085ee50                pxe_default_paths
 .data.usb_stor_curr_dev
                0x000000008085ee64        0x4 cmd/built-in.o
 .data.fastboot_help_text
                0x000000008085ee68       0xab cmd/built-in.o
 .data.imgextract_help_text
                0x000000008085ef13       0xb2 cmd/built-in.o
 *fill*         0x000000008085efc5        0x3 
 .data.__compound_literal.0
                0x000000008085efc8       0x20 cmd/built-in.o
 .data.__compound_literal.1
                0x000000008085efe8       0x1c cmd/built-in.o
 .data.cmd_spl_export_sub
                0x000000008085f004       0x38 cmd/built-in.o
 .data.cmd_spl_sub
                0x000000008085f03c       0x1c cmd/built-in.o
 .data.cmd_env_sub
                0x000000008085f058      0x134 cmd/built-in.o
 .data.env_help_text
                0x000000008085f18c      0x313 cmd/built-in.o
 *fill*         0x000000008085f49f        0x1 
 .data.env_id   0x000000008085f4a0        0x4 cmd/built-in.o
 .data.hash_algo
                0x000000008085f4a4       0x70 common/built-in.o
 .data.reserved_list
                0x000000008085f514       0x84 common/built-in.o
 .data.init_sequence_r
                0x000000008085f598       0x78 common/built-in.o
 .data.of_busses
                0x000000008085f610       0x18 common/built-in.o
 .data.usb_scan_list
                0x000000008085f628        0x8 common/built-in.o
 .data.hist_cur
                0x000000008085f630        0x4 common/built-in.o
 .data.av_      0x000000008085f634      0x408 common/built-in.o
 .data.sbrk_base
                0x000000008085fa3c        0x4 common/built-in.o
 .data.trim_threshold
                0x000000008085fa40        0x4 common/built-in.o
 .data.load_addr
                0x000000008085fa44        0x4 common/built-in.o
                0x000000008085fa44                load_addr
 .data.checksum_algos
                0x000000008085fa48       0x28 common/built-in.o
                0x000000008085fa48                checksum_algos
 .data.crypto_algos
                0x000000008085fa70       0x28 common/built-in.o
                0x000000008085fa70                crypto_algos
 .data.padding_algos
                0x000000008085fa98        0x8 common/built-in.o
                0x000000008085fa98                padding_algos
 .data.stdio_names
                0x000000008085faa0        0xc common/built-in.o
                0x000000008085faa0                stdio_names
 .data.dfu_list
                0x000000008085faac        0x8 drivers/built-in.o
 .data._stats   0x000000008085fab4       0x14 drivers/built-in.o
 .data.block_cache
                0x000000008085fac8        0x8 drivers/built-in.o
 .data.genphy_driver
                0x000000008085fad0       0x3c drivers/net/phy/built-in.o
 .data.phy_drivers
                0x000000008085fb0c        0x8 drivers/net/phy/built-in.o
 .data.AR8021_driver
                0x000000008085fb14       0x3c drivers/net/phy/built-in.o
 .data.AR8031_driver
                0x000000008085fb50       0x3c drivers/net/phy/built-in.o
 .data.AR8035_driver
                0x000000008085fb8c       0x3c drivers/net/phy/built-in.o
 .data.lan8700_driver
                0x000000008085fbc8       0x3c drivers/net/phy/built-in.o
 .data.lan8710_driver
                0x000000008085fc04       0x3c drivers/net/phy/built-in.o
 .data.lan8740_driver
                0x000000008085fc40       0x3c drivers/net/phy/built-in.o
 .data.lan8741_driver
                0x000000008085fc7c       0x3c drivers/net/phy/built-in.o
 .data.lan8742_driver
                0x000000008085fcb8       0x3c drivers/net/phy/built-in.o
 .data.lan911x_driver
                0x000000008085fcf4       0x3c drivers/net/phy/built-in.o
 .data.omap4_pdata
                0x000000008085fd30        0x4 drivers/spi/built-in.o
 .data.composite_driver
                0x000000008085fd34       0x24 drivers/usb/gadget/built-in.o
 .data.device_desc
                0x000000008085fd58       0x24 drivers/usb/gadget/built-in.o
 .data.g_dnl_composite_strings
                0x000000008085fd7c        0x8 drivers/usb/gadget/built-in.o
 .data.g_dnl_driver
                0x000000008085fd84       0x20 drivers/usb/gadget/built-in.o
 .data.g_dnl_string_defs
                0x000000008085fda4       0x20 drivers/usb/gadget/built-in.o
 .data.g_dnl_string_tab
                0x000000008085fdc4        0x8 drivers/usb/gadget/built-in.o
 .data.dfu_generic_strings
                0x000000008085fdcc        0x8 drivers/usb/gadget/built-in.o
 .data.dfu_intf_runtime
                0x000000008085fdd4        0x9 drivers/usb/gadget/built-in.o
 *fill*         0x000000008085fddd        0x3 
 .data.dfu_runtime_descs
                0x000000008085fde0        0x8 drivers/usb/gadget/built-in.o
 .data.dfu_strings
                0x000000008085fde8        0x8 drivers/usb/gadget/built-in.o
 .data.strings_dfu_generic
                0x000000008085fdf0       0x10 drivers/usb/gadget/built-in.o
 .data.stringtab_dfu
                0x000000008085fe00        0x8 drivers/usb/gadget/built-in.o
 .data.stringtab_dfu_generic
                0x000000008085fe08        0x8 drivers/usb/gadget/built-in.o
 .data.fastboot_string_defs
                0x000000008085fe10       0x10 drivers/usb/gadget/built-in.o
 .data.fastboot_strings
                0x000000008085fe20        0x8 drivers/usb/gadget/built-in.o
 .data.fb_fs_function
                0x000000008085fe28        0xc drivers/usb/gadget/built-in.o
 .data.fb_hs_function
                0x000000008085fe34       0x10 drivers/usb/gadget/built-in.o
 .data.fs_ep_in
                0x000000008085fe44        0x9 drivers/usb/gadget/built-in.o
 .data.fs_ep_out
                0x000000008085fe4d        0x9 drivers/usb/gadget/built-in.o
 .data.hs_ep_in
                0x000000008085fe56        0x9 drivers/usb/gadget/built-in.o
 .data.hs_ep_out
                0x000000008085fe5f        0x9 drivers/usb/gadget/built-in.o
 .data.interface_desc
                0x000000008085fe68        0x9 drivers/usb/gadget/built-in.o
 *fill*         0x000000008085fe71        0x3 
 .data.stringtab_fastboot
                0x000000008085fe74        0x8 drivers/usb/gadget/built-in.o
 .data.dev_qualifier
                0x000000008085fe7c        0xa drivers/usb/gadget/built-in.o
 .data.eth_config
                0x000000008085fe86        0x9 drivers/usb/gadget/built-in.o
 *fill*         0x000000008085fe8f        0x1 
 .data.fs_eth_function
                0x000000008085fe90       0x2c drivers/usb/gadget/built-in.o
 .data.fs_rndis_function
                0x000000008085febc       0x2c drivers/usb/gadget/built-in.o
 .data.fs_sink_desc
                0x000000008085fee8        0x9 drivers/usb/gadget/built-in.o
 .data.fs_source_desc
                0x000000008085fef1        0x9 drivers/usb/gadget/built-in.o
 .data.fs_status_desc
                0x000000008085fefa        0x9 drivers/usb/gadget/built-in.o
 *fill*         0x000000008085ff03        0x1 
 .data.hs_eth_function
                0x000000008085ff04       0x2c drivers/usb/gadget/built-in.o
 .data.hs_rndis_function
                0x000000008085ff30       0x2c drivers/usb/gadget/built-in.o
 .data.hs_sink_desc
                0x000000008085ff5c        0x9 drivers/usb/gadget/built-in.o
 .data.hs_source_desc
                0x000000008085ff65        0x9 drivers/usb/gadget/built-in.o
 .data.hs_status_desc
                0x000000008085ff6e        0x9 drivers/usb/gadget/built-in.o
 *fill*         0x000000008085ff77        0x1 
 .data.l_priv   0x000000008085ff78        0x4 drivers/usb/gadget/built-in.o
                0x000000008085ff78                l_priv
 .data.otg_descriptor
                0x000000008085ff7c        0x3 drivers/usb/gadget/built-in.o
 .data.product_desc
                0x000000008085ff7f       0x28 drivers/usb/gadget/built-in.o
 .data.rndis_config
                0x000000008085ffa7        0x9 drivers/usb/gadget/built-in.o
 .data.strings  0x000000008085ffb0       0x40 drivers/usb/gadget/built-in.o
 .data.stringtab
                0x000000008085fff0        0x8 drivers/usb/gadget/built-in.o
 .data.udc_list
                0x000000008085fff8        0x8 drivers/usb/gadget/udc/built-in.o
 .data.ep0_cfg  0x0000000080860000        0x6 drivers/usb/musb-new/built-in.o
 .data.fifo_mode
                0x0000000080860006        0x2 drivers/usb/musb-new/built-in.o
 .data.mode_0_cfg
                0x0000000080860008       0x1e drivers/usb/musb-new/built-in.o
 .data.mode_1_cfg
                0x0000000080860026       0x1e drivers/usb/musb-new/built-in.o
 .data.mode_2_cfg
                0x0000000080860044       0x24 drivers/usb/musb-new/built-in.o
 .data.mode_3_cfg
                0x0000000080860068       0x24 drivers/usb/musb-new/built-in.o
 .data.mode_4_cfg
                0x000000008086008c       0xa2 drivers/usb/musb-new/built-in.o
 .data.mode_5_cfg
                0x000000008086012e       0xa2 drivers/usb/musb-new/built-in.o
 .data.musb_usb_ops
                0x00000000808601d0       0x28 drivers/usb/musb-new/built-in.o
                0x00000000808601d0                musb_usb_ops
 .data.musb_dsps_ops
                0x00000000808601f8       0x2c drivers/usb/musb-new/built-in.o
                0x00000000808601f8                musb_dsps_ops
 .data.env_htab
                0x0000000080860224       0x10 env/built-in.o
                0x0000000080860224                env_htab
 .data.first_call
                0x0000000080860234        0x8 env/built-in.o
 .data.fstypes  0x000000008086023c       0xcc fs/built-in.o
 .data.ext4fs_indir1_blkno
                0x0000000080860308        0x4 fs/built-in.o
                0x0000000080860308                ext4fs_indir1_blkno
 .data.ext4fs_indir2_blkno
                0x000000008086030c        0x4 fs/built-in.o
                0x000000008086030c                ext4fs_indir2_blkno
 .data.ext4fs_indir3_blkno
                0x0000000080860310        0x4 fs/built-in.o
                0x0000000080860310                ext4fs_indir3_blkno
 .data.prev_bg_bitmap_index.10006
                0x0000000080860314        0x4 fs/built-in.o
 .data.prev_inode_bitmap_index.10030
                0x0000000080860318        0x4 fs/built-in.o
 .data.prev_bg_bmap_idx.9737
                0x000000008086031c        0x4 fs/built-in.o
 .data.prev_bg_bmap_idx.9752
                0x0000000080860320        0x4 fs/built-in.o
 .data.prev_bg_bmap_idx.9774
                0x0000000080860324        0x4 fs/built-in.o
 .data.prev_bg_bmap_idx.9809
                0x0000000080860328        0x4 fs/built-in.o
 .data.first_node
                0x000000008086032c        0x4 fs/built-in.o
 .data.efi_boot_services
                0x0000000080860330       0xc8 lib/built-in.o
 .data.efi_event_queue
                0x00000000808603f8        0x8 lib/built-in.o
                0x00000000808603f8                efi_event_queue
 .data.efi_obj_list
                0x0000000080860400        0x8 lib/built-in.o
                0x0000000080860400                efi_obj_list
 .data.efi_register_notify_events
                0x0000000080860408        0x8 lib/built-in.o
                0x0000000080860408                efi_register_notify_events
 .data.efi_tpl  0x0000000080860410        0x4 lib/built-in.o
 .data.entry_count
                0x0000000080860414        0x4 lib/built-in.o
 .data.timers_enabled
                0x0000000080860418        0x1 lib/built-in.o
 *fill*         0x0000000080860419        0x3 
 .data.cin_notify_functions
                0x000000008086041c        0x8 lib/built-in.o
 .data.efi_con_in
                0x0000000080860424        0xc lib/built-in.o
                0x0000000080860424                efi_con_in
 .data.efi_con_in_ex
                0x0000000080860430       0x18 lib/built-in.o
 .data.efi_con_mode
                0x0000000080860448       0x18 lib/built-in.o
 .data.efi_con_out
                0x0000000080860460       0x28 lib/built-in.o
                0x0000000080860460                efi_con_out
 .data.efi_cout_modes
                0x0000000080860488       0x24 lib/built-in.o
 .data.efi_keyboard_layout_list
                0x00000000808604ac        0x8 lib/built-in.o
 .data.efi_package_lists
                0x00000000808604b4        0x8 lib/built-in.o
 .data.efi_mem  0x00000000808604bc        0x8 lib/built-in.o
                0x00000000808604bc                efi_mem
 .data.lastoff.12104
                0x00000000808604c4        0x4 lib/built-in.o
 .data.efi_obj_list_initialized
                0x00000000808604c8        0x4 lib/built-in.o
 .data.capitalization_table
                0x00000000808604cc      0xed0 lib/built-in.o
 .data.sha256_padding
                0x000000008086139c       0x40 lib/built-in.o
 .data.y        0x00000000808613dc        0x4 lib/built-in.o
 .data.first_call.9493
                0x00000000808613e0        0x4 net/built-in.o
 .data.net_native_vlan
                0x00000000808613e4        0x2 net/built-in.o
                0x00000000808613e4                net_native_vlan
 .data.net_our_vlan
                0x00000000808613e6        0x2 net/built-in.o
                0x00000000808613e6                net_our_vlan
 .data.nfs_offset
                0x00000000808613e8        0x4 net/built-in.o
 .data.supported_nfs_versions
                0x00000000808613ec        0x1 net/built-in.o
 *fill*         0x00000000808613ed        0x1 
 .data.tftp_block_size
                0x00000000808613ee        0x2 net/built-in.o
 .data.tftp_block_size_option
                0x00000000808613f0        0x2 net/built-in.o
 *fill*         0x00000000808613f2        0x2 
 .data.tftp_timeout_count_max
                0x00000000808613f4        0x4 net/built-in.o
                0x00000000808613f4                tftp_timeout_count_max
 .data.timeout_count_max
                0x00000000808613f8        0x4 net/built-in.o
 .data.timeout_ms
                0x00000000808613fc        0x4 net/built-in.o

.got            0x0000000080861400        0x0
 .got           0x0000000080861400        0x0 arch/arm/cpu/armv7/start.o

.got.plt        0x0000000080861400        0xc
 .got.plt       0x0000000080861400        0xc arch/arm/cpu/armv7/start.o
                0x0000000080861400                _GLOBAL_OFFSET_TABLE_

.igot.plt       0x000000008086140c        0x0
 .igot.plt      0x000000008086140c        0x0 arch/arm/cpu/armv7/start.o
                0x000000008086140c                . = ALIGN (0x4)
                0x000000008086140c                . = .
                0x000000008086140c                . = ALIGN (0x4)

.u_boot_list    0x000000008086140c     0x1844
 *(SORT(.u_boot_list*))
 .u_boot_list_2_cmd_1
                0x000000008086140c        0x0 cmd/built-in.o
 .u_boot_list_2_cmd_1
                0x000000008086140c        0x0 common/built-in.o
 .u_boot_list_2_cmd_2_askenv
                0x000000008086140c       0x1c cmd/built-in.o
                0x000000008086140c                _u_boot_list_2_cmd_2_askenv
 .u_boot_list_2_cmd_2_base
                0x0000000080861428       0x1c cmd/built-in.o
                0x0000000080861428                _u_boot_list_2_cmd_2_base
 .u_boot_list_2_cmd_2_bdinfo
                0x0000000080861444       0x1c cmd/built-in.o
                0x0000000080861444                _u_boot_list_2_cmd_2_bdinfo
 .u_boot_list_2_cmd_2_blkcache
                0x0000000080861460       0x1c cmd/built-in.o
                0x0000000080861460                _u_boot_list_2_cmd_2_blkcache
 .u_boot_list_2_cmd_2_boot
                0x000000008086147c       0x1c cmd/built-in.o
                0x000000008086147c                _u_boot_list_2_cmd_2_boot
 .u_boot_list_2_cmd_2_bootd
                0x0000000080861498       0x1c cmd/built-in.o
                0x0000000080861498                _u_boot_list_2_cmd_2_bootd
 .u_boot_list_2_cmd_2_bootefi
                0x00000000808614b4       0x1c cmd/built-in.o
                0x00000000808614b4                _u_boot_list_2_cmd_2_bootefi
 .u_boot_list_2_cmd_2_bootelf
                0x00000000808614d0       0x1c cmd/built-in.o
                0x00000000808614d0                _u_boot_list_2_cmd_2_bootelf
 .u_boot_list_2_cmd_2_bootm
                0x00000000808614ec       0x1c cmd/built-in.o
                0x00000000808614ec                _u_boot_list_2_cmd_2_bootm
 .u_boot_list_2_cmd_2_bootp
                0x0000000080861508       0x1c cmd/built-in.o
                0x0000000080861508                _u_boot_list_2_cmd_2_bootp
 .u_boot_list_2_cmd_2_bootvx
                0x0000000080861524       0x1c cmd/built-in.o
                0x0000000080861524                _u_boot_list_2_cmd_2_bootvx
 .u_boot_list_2_cmd_2_bootz
                0x0000000080861540       0x1c cmd/built-in.o
                0x0000000080861540                _u_boot_list_2_cmd_2_bootz
 .u_boot_list_2_cmd_2_cmp
                0x000000008086155c       0x1c cmd/built-in.o
                0x000000008086155c                _u_boot_list_2_cmd_2_cmp
 .u_boot_list_2_cmd_2_coninfo
                0x0000000080861578       0x1c cmd/built-in.o
                0x0000000080861578                _u_boot_list_2_cmd_2_coninfo
 .u_boot_list_2_cmd_2_cp
                0x0000000080861594       0x1c cmd/built-in.o
                0x0000000080861594                _u_boot_list_2_cmd_2_cp
 .u_boot_list_2_cmd_2_crc32
                0x00000000808615b0       0x1c cmd/built-in.o
                0x00000000808615b0                _u_boot_list_2_cmd_2_crc32
 .u_boot_list_2_cmd_2_dfu
                0x00000000808615cc       0x1c cmd/built-in.o
                0x00000000808615cc                _u_boot_list_2_cmd_2_dfu
 .u_boot_list_2_cmd_2_dhcp
                0x00000000808615e8       0x1c cmd/built-in.o
                0x00000000808615e8                _u_boot_list_2_cmd_2_dhcp
 .u_boot_list_2_cmd_2_dm
                0x0000000080861604       0x1c cmd/built-in.o
                0x0000000080861604                _u_boot_list_2_cmd_2_dm
 .u_boot_list_2_cmd_2_echo
                0x0000000080861620       0x1c cmd/built-in.o
                0x0000000080861620                _u_boot_list_2_cmd_2_echo
 .u_boot_list_2_cmd_2_editenv
                0x000000008086163c       0x1c cmd/built-in.o
                0x000000008086163c                _u_boot_list_2_cmd_2_editenv
 .u_boot_list_2_cmd_2_eeprom
                0x0000000080861658       0x1c cmd/built-in.o
                0x0000000080861658                _u_boot_list_2_cmd_2_eeprom
 .u_boot_list_2_cmd_2_env
                0x0000000080861674       0x1c cmd/built-in.o
                0x0000000080861674                _u_boot_list_2_cmd_2_env
 .u_boot_list_2_cmd_2_exit
                0x0000000080861690       0x1c cmd/built-in.o
                0x0000000080861690                _u_boot_list_2_cmd_2_exit
 .u_boot_list_2_cmd_2_ext2load
                0x00000000808616ac       0x1c cmd/built-in.o
                0x00000000808616ac                _u_boot_list_2_cmd_2_ext2load
 .u_boot_list_2_cmd_2_ext2ls
                0x00000000808616c8       0x1c cmd/built-in.o
                0x00000000808616c8                _u_boot_list_2_cmd_2_ext2ls
 .u_boot_list_2_cmd_2_ext4load
                0x00000000808616e4       0x1c cmd/built-in.o
                0x00000000808616e4                _u_boot_list_2_cmd_2_ext4load
 .u_boot_list_2_cmd_2_ext4ls
                0x0000000080861700       0x1c cmd/built-in.o
                0x0000000080861700                _u_boot_list_2_cmd_2_ext4ls
 .u_boot_list_2_cmd_2_ext4size
                0x000000008086171c       0x1c cmd/built-in.o
                0x000000008086171c                _u_boot_list_2_cmd_2_ext4size
 .u_boot_list_2_cmd_2_ext4write
                0x0000000080861738       0x1c cmd/built-in.o
                0x0000000080861738                _u_boot_list_2_cmd_2_ext4write
 .u_boot_list_2_cmd_2_false
                0x0000000080861754       0x1c cmd/built-in.o
                0x0000000080861754                _u_boot_list_2_cmd_2_false
 .u_boot_list_2_cmd_2_fastboot
                0x0000000080861770       0x1c cmd/built-in.o
                0x0000000080861770                _u_boot_list_2_cmd_2_fastboot
 .u_boot_list_2_cmd_2_fatinfo
                0x000000008086178c       0x1c cmd/built-in.o
                0x000000008086178c                _u_boot_list_2_cmd_2_fatinfo
 .u_boot_list_2_cmd_2_fatload
                0x00000000808617a8       0x1c cmd/built-in.o
                0x00000000808617a8                _u_boot_list_2_cmd_2_fatload
 .u_boot_list_2_cmd_2_fatls
                0x00000000808617c4       0x1c cmd/built-in.o
                0x00000000808617c4                _u_boot_list_2_cmd_2_fatls
 .u_boot_list_2_cmd_2_fatmkdir
                0x00000000808617e0       0x1c cmd/built-in.o
                0x00000000808617e0                _u_boot_list_2_cmd_2_fatmkdir
 .u_boot_list_2_cmd_2_fatrm
                0x00000000808617fc       0x1c cmd/built-in.o
                0x00000000808617fc                _u_boot_list_2_cmd_2_fatrm
 .u_boot_list_2_cmd_2_fatsize
                0x0000000080861818       0x1c cmd/built-in.o
                0x0000000080861818                _u_boot_list_2_cmd_2_fatsize
 .u_boot_list_2_cmd_2_fatwrite
                0x0000000080861834       0x1c cmd/built-in.o
                0x0000000080861834                _u_boot_list_2_cmd_2_fatwrite
 .u_boot_list_2_cmd_2_fdt
                0x0000000080861850       0x1c cmd/built-in.o
                0x0000000080861850                _u_boot_list_2_cmd_2_fdt
 .u_boot_list_2_cmd_2_fstype
                0x000000008086186c       0x1c cmd/built-in.o
                0x000000008086186c                _u_boot_list_2_cmd_2_fstype
 .u_boot_list_2_cmd_2_go
                0x0000000080861888       0x1c cmd/built-in.o
                0x0000000080861888                _u_boot_list_2_cmd_2_go
 .u_boot_list_2_cmd_2_gpio
                0x00000000808618a4       0x1c cmd/built-in.o
                0x00000000808618a4                _u_boot_list_2_cmd_2_gpio
 .u_boot_list_2_cmd_2_gpt
                0x00000000808618c0       0x1c cmd/built-in.o
                0x00000000808618c0                _u_boot_list_2_cmd_2_gpt
 .u_boot_list_2_cmd_2_help
                0x00000000808618dc       0x1c cmd/built-in.o
                0x00000000808618dc                _u_boot_list_2_cmd_2_help
 .u_boot_list_2_cmd_2_i2c
                0x00000000808618f8       0x1c cmd/built-in.o
                0x00000000808618f8                _u_boot_list_2_cmd_2_i2c
 .u_boot_list_2_cmd_2_iminfo
                0x0000000080861914       0x1c cmd/built-in.o
                0x0000000080861914                _u_boot_list_2_cmd_2_iminfo
 .u_boot_list_2_cmd_2_imxtract
                0x0000000080861930       0x1c cmd/built-in.o
                0x0000000080861930                _u_boot_list_2_cmd_2_imxtract
 .u_boot_list_2_cmd_2_itest
                0x000000008086194c       0x1c cmd/built-in.o
                0x000000008086194c                _u_boot_list_2_cmd_2_itest
 .u_boot_list_2_cmd_2_ln
                0x0000000080861968       0x1c cmd/built-in.o
                0x0000000080861968                _u_boot_list_2_cmd_2_ln
 .u_boot_list_2_cmd_2_load
                0x0000000080861984       0x1c cmd/built-in.o
                0x0000000080861984                _u_boot_list_2_cmd_2_load
 .u_boot_list_2_cmd_2_loadb
                0x00000000808619a0       0x1c cmd/built-in.o
                0x00000000808619a0                _u_boot_list_2_cmd_2_loadb
 .u_boot_list_2_cmd_2_loads
                0x00000000808619bc       0x1c cmd/built-in.o
                0x00000000808619bc                _u_boot_list_2_cmd_2_loads
 .u_boot_list_2_cmd_2_loadx
                0x00000000808619d8       0x1c cmd/built-in.o
                0x00000000808619d8                _u_boot_list_2_cmd_2_loadx
 .u_boot_list_2_cmd_2_loady
                0x00000000808619f4       0x1c cmd/built-in.o
                0x00000000808619f4                _u_boot_list_2_cmd_2_loady
 .u_boot_list_2_cmd_2_loop
                0x0000000080861a10       0x1c cmd/built-in.o
                0x0000000080861a10                _u_boot_list_2_cmd_2_loop
 .u_boot_list_2_cmd_2_ls
                0x0000000080861a2c       0x1c cmd/built-in.o
                0x0000000080861a2c                _u_boot_list_2_cmd_2_ls
 .u_boot_list_2_cmd_2_md
                0x0000000080861a48       0x1c cmd/built-in.o
                0x0000000080861a48                _u_boot_list_2_cmd_2_md
 .u_boot_list_2_cmd_2_mdio
                0x0000000080861a64       0x1c cmd/built-in.o
                0x0000000080861a64                _u_boot_list_2_cmd_2_mdio
 .u_boot_list_2_cmd_2_mii
                0x0000000080861a80       0x1c cmd/built-in.o
                0x0000000080861a80                _u_boot_list_2_cmd_2_mii
 .u_boot_list_2_cmd_2_mm
                0x0000000080861a9c       0x1c cmd/built-in.o
                0x0000000080861a9c                _u_boot_list_2_cmd_2_mm
 .u_boot_list_2_cmd_2_mmc
                0x0000000080861ab8       0x1c cmd/built-in.o
                0x0000000080861ab8                _u_boot_list_2_cmd_2_mmc
 .u_boot_list_2_cmd_2_mmcinfo
                0x0000000080861ad4       0x1c cmd/built-in.o
                0x0000000080861ad4                _u_boot_list_2_cmd_2_mmcinfo
 .u_boot_list_2_cmd_2_mw
                0x0000000080861af0       0x1c cmd/built-in.o
                0x0000000080861af0                _u_boot_list_2_cmd_2_mw
 .u_boot_list_2_cmd_2_nfs
                0x0000000080861b0c       0x1c cmd/built-in.o
                0x0000000080861b0c                _u_boot_list_2_cmd_2_nfs
 .u_boot_list_2_cmd_2_nm
                0x0000000080861b28       0x1c cmd/built-in.o
                0x0000000080861b28                _u_boot_list_2_cmd_2_nm
 .u_boot_list_2_cmd_2_part
                0x0000000080861b44       0x1c cmd/built-in.o
                0x0000000080861b44                _u_boot_list_2_cmd_2_part
 .u_boot_list_2_cmd_2_ping
                0x0000000080861b60       0x1c cmd/built-in.o
                0x0000000080861b60                _u_boot_list_2_cmd_2_ping
 .u_boot_list_2_cmd_2_printenv
                0x0000000080861b7c       0x1c cmd/built-in.o
                0x0000000080861b7c                _u_boot_list_2_cmd_2_printenv
 .u_boot_list_2_cmd_2_pxe
                0x0000000080861b98       0x1c cmd/built-in.o
                0x0000000080861b98                _u_boot_list_2_cmd_2_pxe
 .u_boot_list_2_cmd_2_question_mark
                0x0000000080861bb4       0x1c cmd/built-in.o
                0x0000000080861bb4                _u_boot_list_2_cmd_2_question_mark
 .u_boot_list_2_cmd_2_random
                0x0000000080861bd0       0x1c cmd/built-in.o
                0x0000000080861bd0                _u_boot_list_2_cmd_2_random
 .u_boot_list_2_cmd_2_reset
                0x0000000080861bec       0x1c cmd/built-in.o
                0x0000000080861bec                _u_boot_list_2_cmd_2_reset
 .u_boot_list_2_cmd_2_run
                0x0000000080861c08       0x1c cmd/built-in.o
                0x0000000080861c08                _u_boot_list_2_cmd_2_run
 .u_boot_list_2_cmd_2_save
                0x0000000080861c24       0x1c cmd/built-in.o
                0x0000000080861c24                _u_boot_list_2_cmd_2_save
 .u_boot_list_2_cmd_2_saveenv
                0x0000000080861c40       0x1c cmd/built-in.o
                0x0000000080861c40                _u_boot_list_2_cmd_2_saveenv
 .u_boot_list_2_cmd_2_setenv
                0x0000000080861c5c       0x1c cmd/built-in.o
                0x0000000080861c5c                _u_boot_list_2_cmd_2_setenv
 .u_boot_list_2_cmd_2_sf
                0x0000000080861c78       0x1c cmd/built-in.o
                0x0000000080861c78                _u_boot_list_2_cmd_2_sf
 .u_boot_list_2_cmd_2_showvar
                0x0000000080861c94       0x1c common/built-in.o
                0x0000000080861c94                _u_boot_list_2_cmd_2_showvar
 .u_boot_list_2_cmd_2_size
                0x0000000080861cb0       0x1c cmd/built-in.o
                0x0000000080861cb0                _u_boot_list_2_cmd_2_size
 .u_boot_list_2_cmd_2_sleep
                0x0000000080861ccc       0x1c cmd/built-in.o
                0x0000000080861ccc                _u_boot_list_2_cmd_2_sleep
 .u_boot_list_2_cmd_2_source
                0x0000000080861ce8       0x1c cmd/built-in.o
                0x0000000080861ce8                _u_boot_list_2_cmd_2_source
 .u_boot_list_2_cmd_2_spl
                0x0000000080861d04       0x1c cmd/built-in.o
                0x0000000080861d04                _u_boot_list_2_cmd_2_spl
 .u_boot_list_2_cmd_2_sspi
                0x0000000080861d20       0x1c cmd/built-in.o
                0x0000000080861d20                _u_boot_list_2_cmd_2_sspi
 .u_boot_list_2_cmd_2_sysboot
                0x0000000080861d3c       0x1c cmd/built-in.o
                0x0000000080861d3c                _u_boot_list_2_cmd_2_sysboot
 .u_boot_list_2_cmd_2_test
                0x0000000080861d58       0x1c cmd/built-in.o
                0x0000000080861d58                _u_boot_list_2_cmd_2_test
 .u_boot_list_2_cmd_2_tftpboot
                0x0000000080861d74       0x1c cmd/built-in.o
                0x0000000080861d74                _u_boot_list_2_cmd_2_tftpboot
 .u_boot_list_2_cmd_2_time
                0x0000000080861d90       0x1c cmd/built-in.o
                0x0000000080861d90                _u_boot_list_2_cmd_2_time
 .u_boot_list_2_cmd_2_true
                0x0000000080861dac       0x1c cmd/built-in.o
                0x0000000080861dac                _u_boot_list_2_cmd_2_true
 .u_boot_list_2_cmd_2_usb
                0x0000000080861dc8       0x1c cmd/built-in.o
                0x0000000080861dc8                _u_boot_list_2_cmd_2_usb
 .u_boot_list_2_cmd_2_usbboot
                0x0000000080861de4       0x1c cmd/built-in.o
                0x0000000080861de4                _u_boot_list_2_cmd_2_usbboot
 .u_boot_list_2_cmd_2_version
                0x0000000080861e00       0x1c cmd/built-in.o
                0x0000000080861e00                _u_boot_list_2_cmd_2_version
 .u_boot_list_2_cmd_3
                0x0000000080861e1c        0x0 cmd/built-in.o
 .u_boot_list_2_cmd_3
                0x0000000080861e1c        0x0 common/built-in.o
 .u_boot_list_2_driver_1
                0x0000000080861e1c        0x0 drivers/built-in.o
 .u_boot_list_2_driver_1
                0x0000000080861e1c        0x0 lib/built-in.o
 .u_boot_list_2_driver_2_efi_blk
                0x0000000080861e1c       0x44 lib/built-in.o
                0x0000000080861e1c                _u_boot_list_2_driver_2_efi_blk
 .u_boot_list_2_driver_2_efi_block
                0x0000000080861e60       0x44 lib/built-in.o
                0x0000000080861e60                _u_boot_list_2_driver_2_efi_block
 .u_boot_list_2_driver_2_eth_cpsw
                0x0000000080861ea4       0x44 drivers/net/built-in.o
                0x0000000080861ea4                _u_boot_list_2_driver_2_eth_cpsw
 .u_boot_list_2_driver_2_eth_usb
                0x0000000080861ee8       0x44 drivers/usb/gadget/built-in.o
                0x0000000080861ee8                _u_boot_list_2_driver_2_eth_usb
 .u_boot_list_2_driver_2_gpio_omap
                0x0000000080861f2c       0x44 drivers/gpio/built-in.o
                0x0000000080861f2c                _u_boot_list_2_driver_2_gpio_omap
 .u_boot_list_2_driver_2_i2c_generic_chip_drv
                0x0000000080861f70       0x44 drivers/i2c/built-in.o
                0x0000000080861f70                _u_boot_list_2_driver_2_i2c_generic_chip_drv
 .u_boot_list_2_driver_2_i2c_omap
                0x0000000080861fb4       0x44 drivers/i2c/built-in.o
                0x0000000080861fb4                _u_boot_list_2_driver_2_i2c_omap
 .u_boot_list_2_driver_2_mmc_blk
                0x0000000080861ff8       0x44 drivers/built-in.o
                0x0000000080861ff8                _u_boot_list_2_driver_2_mmc_blk
 .u_boot_list_2_driver_2_mod_exp_sw
                0x000000008086203c       0x44 drivers/built-in.o
                0x000000008086203c                _u_boot_list_2_driver_2_mod_exp_sw
 .u_boot_list_2_driver_2_ns16550_serial
                0x0000000080862080       0x44 drivers/serial/built-in.o
                0x0000000080862080                _u_boot_list_2_driver_2_ns16550_serial
 .u_boot_list_2_driver_2_omap3_spi
                0x00000000808620c4       0x44 drivers/spi/built-in.o
                0x00000000808620c4                _u_boot_list_2_driver_2_omap3_spi
 .u_boot_list_2_driver_2_omap_hsmmc
                0x0000000080862108       0x44 drivers/built-in.o
                0x0000000080862108                _u_boot_list_2_driver_2_omap_hsmmc
 .u_boot_list_2_driver_2_omap_serial
                0x000000008086214c       0x44 drivers/serial/built-in.o
                0x000000008086214c                _u_boot_list_2_driver_2_omap_serial
 .u_boot_list_2_driver_2_omap_timer
                0x0000000080862190       0x44 drivers/built-in.o
                0x0000000080862190                _u_boot_list_2_driver_2_omap_timer
 .u_boot_list_2_driver_2_root_driver
                0x00000000808621d4       0x44 drivers/built-in.o
                0x00000000808621d4                _u_boot_list_2_driver_2_root_driver
 .u_boot_list_2_driver_2_simple_bus_drv
                0x0000000080862218       0x44 drivers/built-in.o
                0x0000000080862218                _u_boot_list_2_driver_2_simple_bus_drv
 .u_boot_list_2_driver_2_spi_flash_std
                0x000000008086225c       0x44 drivers/mtd/spi/built-in.o
                0x000000008086225c                _u_boot_list_2_driver_2_spi_flash_std
 .u_boot_list_2_driver_2_spi_generic_drv
                0x00000000808622a0       0x44 drivers/spi/built-in.o
                0x00000000808622a0                _u_boot_list_2_driver_2_spi_generic_drv
 .u_boot_list_2_driver_2_ti_musb_host
                0x00000000808622e4       0x44 drivers/usb/musb-new/built-in.o
                0x00000000808622e4                _u_boot_list_2_driver_2_ti_musb_host
 .u_boot_list_2_driver_2_ti_musb_peripheral
                0x0000000080862328       0x44 drivers/usb/musb-new/built-in.o
                0x0000000080862328                _u_boot_list_2_driver_2_ti_musb_peripheral
 .u_boot_list_2_driver_2_ti_musb_wrapper
                0x000000008086236c       0x44 drivers/usb/musb-new/built-in.o
                0x000000008086236c                _u_boot_list_2_driver_2_ti_musb_wrapper
 .u_boot_list_2_driver_2_usb_dev_generic_drv
                0x00000000808623b0       0x44 drivers/usb/host/built-in.o
                0x00000000808623b0                _u_boot_list_2_driver_2_usb_dev_generic_drv
 .u_boot_list_2_driver_2_usb_generic_hub
                0x00000000808623f4       0x44 common/built-in.o
                0x00000000808623f4                _u_boot_list_2_driver_2_usb_generic_hub
 .u_boot_list_2_driver_2_usb_mass_storage
                0x0000000080862438       0x44 common/built-in.o
                0x0000000080862438                _u_boot_list_2_driver_2_usb_mass_storage
 .u_boot_list_2_driver_2_usb_storage_blk
                0x000000008086247c       0x44 common/built-in.o
                0x000000008086247c                _u_boot_list_2_driver_2_usb_storage_blk
 .u_boot_list_2_driver_3
                0x00000000808624c0        0x0 drivers/built-in.o
 .u_boot_list_2_driver_3
                0x00000000808624c0        0x0 lib/built-in.o
 .u_boot_list_2_driver_info_1
                0x00000000808624c0        0x0 drivers/built-in.o
 .u_boot_list_2_driver_info_2_mod_exp_sw
                0x00000000808624c0        0x8 drivers/built-in.o
                0x00000000808624c0                _u_boot_list_2_driver_info_2_mod_exp_sw
 .u_boot_list_2_driver_info_3
                0x00000000808624c8        0x0 drivers/built-in.o
 .u_boot_list_2_env_clbk_1
                0x00000000808624c8        0x0 env/built-in.o
 .u_boot_list_2_env_clbk_2_baudrate
                0x00000000808624c8        0x8 drivers/serial/built-in.o
                0x00000000808624c8                _u_boot_list_2_env_clbk_2_baudrate
 .u_boot_list_2_env_clbk_2_callbacks
                0x00000000808624d0        0x8 env/built-in.o
                0x00000000808624d0                _u_boot_list_2_env_clbk_2_callbacks
 .u_boot_list_2_env_clbk_2_console
                0x00000000808624d8        0x8 common/built-in.o
                0x00000000808624d8                _u_boot_list_2_env_clbk_2_console
 .u_boot_list_2_env_clbk_2_ethaddr
                0x00000000808624e0        0x8 net/built-in.o
                0x00000000808624e0                _u_boot_list_2_env_clbk_2_ethaddr
 .u_boot_list_2_env_clbk_2_flags
                0x00000000808624e8        0x8 env/built-in.o
                0x00000000808624e8                _u_boot_list_2_env_clbk_2_flags
 .u_boot_list_2_env_clbk_2_gatewayip
                0x00000000808624f0        0x8 net/built-in.o
                0x00000000808624f0                _u_boot_list_2_env_clbk_2_gatewayip
 .u_boot_list_2_env_clbk_2_ipaddr
                0x00000000808624f8        0x8 net/built-in.o
                0x00000000808624f8                _u_boot_list_2_env_clbk_2_ipaddr
 .u_boot_list_2_env_clbk_2_loadaddr
                0x0000000080862500        0x8 common/built-in.o
                0x0000000080862500                _u_boot_list_2_env_clbk_2_loadaddr
 .u_boot_list_2_env_clbk_2_netmask
                0x0000000080862508        0x8 net/built-in.o
                0x0000000080862508                _u_boot_list_2_env_clbk_2_netmask
 .u_boot_list_2_env_clbk_2_nvlan
                0x0000000080862510        0x8 net/built-in.o
                0x0000000080862510                _u_boot_list_2_env_clbk_2_nvlan
 .u_boot_list_2_env_clbk_2_serialno
                0x0000000080862518        0x8 drivers/usb/gadget/built-in.o
                0x0000000080862518                _u_boot_list_2_env_clbk_2_serialno
 .u_boot_list_2_env_clbk_2_serverip
                0x0000000080862520        0x8 net/built-in.o
                0x0000000080862520                _u_boot_list_2_env_clbk_2_serverip
 .u_boot_list_2_env_clbk_2_vlan
                0x0000000080862528        0x8 net/built-in.o
                0x0000000080862528                _u_boot_list_2_env_clbk_2_vlan
 .u_boot_list_2_env_clbk_3
                0x0000000080862530        0x0 env/built-in.o
 .u_boot_list_2_env_driver_1
                0x0000000080862530        0x0 env/built-in.o
 .u_boot_list_2_env_driver_2_fat
                0x0000000080862530       0x18 env/built-in.o
                0x0000000080862530                _u_boot_list_2_env_driver_2_fat
 .u_boot_list_2_env_driver_2_mmc
                0x0000000080862548       0x18 env/built-in.o
                0x0000000080862548                _u_boot_list_2_env_driver_2_mmc
 .u_boot_list_2_env_driver_3
                0x0000000080862560        0x0 env/built-in.o
 .u_boot_list_2_fit_loadable_1
                0x0000000080862560        0x0 common/built-in.o
 .u_boot_list_2_fit_loadable_3
                0x0000000080862560        0x0 common/built-in.o
 .u_boot_list_2_g_dnl_bind_callbacks_1
                0x0000000080862560        0x0 drivers/usb/gadget/built-in.o
 .u_boot_list_2_g_dnl_bind_callbacks_2___usb_function_name_usb_dnl_dfu
                0x0000000080862560        0x8 drivers/usb/gadget/built-in.o
                0x0000000080862560                _u_boot_list_2_g_dnl_bind_callbacks_2___usb_function_name_usb_dnl_dfu
 .u_boot_list_2_g_dnl_bind_callbacks_2___usb_function_name_usb_dnl_fastboot
                0x0000000080862568        0x8 drivers/usb/gadget/built-in.o
                0x0000000080862568                _u_boot_list_2_g_dnl_bind_callbacks_2___usb_function_name_usb_dnl_fastboot
 .u_boot_list_2_part_driver_1
                0x0000000080862570        0x0 disk/built-in.o
 .u_boot_list_2_part_driver_2_a_efi
                0x0000000080862570       0x18 disk/built-in.o
                0x0000000080862570                _u_boot_list_2_part_driver_2_a_efi
 .u_boot_list_2_part_driver_2_dos
                0x0000000080862588       0x18 disk/built-in.o
                0x0000000080862588                _u_boot_list_2_part_driver_2_dos
 .u_boot_list_2_part_driver_2_iso
                0x00000000808625a0       0x18 disk/built-in.o
                0x00000000808625a0                _u_boot_list_2_part_driver_2_iso
 .u_boot_list_2_part_driver_3
                0x00000000808625b8        0x0 disk/built-in.o
 .u_boot_list_2_uclass_1
                0x00000000808625b8        0x0 drivers/built-in.o
 .u_boot_list_2_uclass_2_blk
                0x00000000808625b8       0x4c drivers/built-in.o
                0x00000000808625b8                _u_boot_list_2_uclass_2_blk
 .u_boot_list_2_uclass_2_efi
                0x0000000080862604       0x4c lib/built-in.o
                0x0000000080862604                _u_boot_list_2_uclass_2_efi
 .u_boot_list_2_uclass_2_eth
                0x0000000080862650       0x4c net/built-in.o
                0x0000000080862650                _u_boot_list_2_uclass_2_eth
 .u_boot_list_2_uclass_2_gpio
                0x000000008086269c       0x4c drivers/gpio/built-in.o
                0x000000008086269c                _u_boot_list_2_uclass_2_gpio
 .u_boot_list_2_uclass_2_i2c
                0x00000000808626e8       0x4c drivers/i2c/built-in.o
                0x00000000808626e8                _u_boot_list_2_uclass_2_i2c
 .u_boot_list_2_uclass_2_i2c_generic
                0x0000000080862734       0x4c drivers/i2c/built-in.o
                0x0000000080862734                _u_boot_list_2_uclass_2_i2c_generic
 .u_boot_list_2_uclass_2_misc
                0x0000000080862780       0x4c drivers/built-in.o
                0x0000000080862780                _u_boot_list_2_uclass_2_misc
 .u_boot_list_2_uclass_2_mmc
                0x00000000808627cc       0x4c drivers/built-in.o
                0x00000000808627cc                _u_boot_list_2_uclass_2_mmc
 .u_boot_list_2_uclass_2_mod_exp
                0x0000000080862818       0x4c drivers/built-in.o
                0x0000000080862818                _u_boot_list_2_uclass_2_mod_exp
 .u_boot_list_2_uclass_2_nop
                0x0000000080862864       0x4c drivers/built-in.o
                0x0000000080862864                _u_boot_list_2_uclass_2_nop
 .u_boot_list_2_uclass_2_root
                0x00000000808628b0       0x4c drivers/built-in.o
                0x00000000808628b0                _u_boot_list_2_uclass_2_root
 .u_boot_list_2_uclass_2_serial
                0x00000000808628fc       0x4c drivers/serial/built-in.o
                0x00000000808628fc                _u_boot_list_2_uclass_2_serial
 .u_boot_list_2_uclass_2_simple_bus
                0x0000000080862948       0x4c drivers/built-in.o
                0x0000000080862948                _u_boot_list_2_uclass_2_simple_bus
 .u_boot_list_2_uclass_2_spi
                0x0000000080862994       0x4c drivers/spi/built-in.o
                0x0000000080862994                _u_boot_list_2_uclass_2_spi
 .u_boot_list_2_uclass_2_spi_generic
                0x00000000808629e0       0x4c drivers/spi/built-in.o
                0x00000000808629e0                _u_boot_list_2_uclass_2_spi_generic
 .u_boot_list_2_uclass_2_spi_nor
                0x0000000080862a2c       0x4c drivers/mtd/spi/built-in.o
                0x0000000080862a2c                _u_boot_list_2_uclass_2_spi_nor
 .u_boot_list_2_uclass_2_timer
                0x0000000080862a78       0x4c drivers/built-in.o
                0x0000000080862a78                _u_boot_list_2_uclass_2_timer
 .u_boot_list_2_uclass_2_usb
                0x0000000080862ac4       0x4c drivers/usb/host/built-in.o
                0x0000000080862ac4                _u_boot_list_2_uclass_2_usb
 .u_boot_list_2_uclass_2_usb_dev_generic
                0x0000000080862b10       0x4c drivers/usb/host/built-in.o
                0x0000000080862b10                _u_boot_list_2_uclass_2_usb_dev_generic
 .u_boot_list_2_uclass_2_usb_gadget_generic
                0x0000000080862b5c       0x4c drivers/usb/gadget/udc/built-in.o
                0x0000000080862b5c                _u_boot_list_2_uclass_2_usb_gadget_generic
 .u_boot_list_2_uclass_2_usb_hub
                0x0000000080862ba8       0x4c common/built-in.o
                0x0000000080862ba8                _u_boot_list_2_uclass_2_usb_hub
 .u_boot_list_2_uclass_2_usb_mass_storage
                0x0000000080862bf4       0x4c common/built-in.o
                0x0000000080862bf4                _u_boot_list_2_uclass_2_usb_mass_storage
 .u_boot_list_2_uclass_3
                0x0000000080862c40        0x0 drivers/built-in.o
 .u_boot_list_2_usb_driver_entry_1
                0x0000000080862c40        0x0 drivers/usb/host/built-in.o
 .u_boot_list_2_usb_driver_entry_2_usb_generic_hub
                0x0000000080862c40        0x8 common/built-in.o
                0x0000000080862c40                _u_boot_list_2_usb_driver_entry_2_usb_generic_hub
 .u_boot_list_2_usb_driver_entry_2_usb_mass_storage
                0x0000000080862c48        0x8 common/built-in.o
                0x0000000080862c48                _u_boot_list_2_usb_driver_entry_2_usb_mass_storage
 .u_boot_list_2_usb_driver_entry_3
                0x0000000080862c50        0x0 drivers/usb/host/built-in.o
                0x0000000080862c50                . = ALIGN (0x4)

.efi_runtime_rel_start
                0x0000000080862c50        0x0
 *(.__efi_runtime_rel_start)
 .__efi_runtime_rel_start
                0x0000000080862c50        0x0 arch/arm/lib/built-in.o

.efi_runtime_rel
                0x0000000080862c50       0xa0
 *(.rel*.efi_runtime)
 .rel.text.efi_runtime
                0x0000000080862c50       0x10 arch/arm/cpu/armv7/start.o
 .rel.data.efi_runtime
                0x0000000080862c60       0x90 arch/arm/cpu/armv7/start.o
 *(.rel*.efi_runtime.*)

.efi_runtime_rel_stop
                0x0000000080862cf0        0x0
 *(.__efi_runtime_rel_stop)
 .__efi_runtime_rel_stop
                0x0000000080862cf0        0x0 arch/arm/lib/built-in.o
                0x0000000080862cf0                . = ALIGN (0x4)

.image_copy_end
                0x0000000080862cf0        0x0
 *(.__image_copy_end)
 .__image_copy_end
                0x0000000080862cf0        0x0 arch/arm/lib/built-in.o

.rel_dyn_start  0x0000000080862cf0        0x0
 *(.__rel_dyn_start)
 .__rel_dyn_start
                0x0000000080862cf0        0x0 arch/arm/lib/built-in.o

.rel.dyn        0x0000000080862cf0     0xd188
 *(.rel*)
 .rel.got       0x0000000080862cf0        0x0 arch/arm/cpu/armv7/start.o
 .rel.plt       0x0000000080862cf0        0x0 arch/arm/cpu/armv7/start.o
 .rel.bss       0x0000000080862cf0        0x0 arch/arm/cpu/armv7/start.o
 .rel.data.rel.ro
                0x0000000080862cf0        0x0 arch/arm/cpu/armv7/start.o
 .rel.iplt      0x0000000080862cf0        0x0 arch/arm/cpu/armv7/start.o
 .rel.text      0x0000000080862cf0       0x20 arch/arm/cpu/armv7/start.o
 .rel.text.request_and_set_gpio
                0x0000000080862d10       0x18 arch/arm/cpu/armv7/start.o
 .rel.text.do_board_detect
                0x0000000080862d28        0x0 arch/arm/cpu/armv7/start.o
 .rel.text.board_init
                0x0000000080862d28       0x60 arch/arm/cpu/armv7/start.o
 .rel.text.board_late_init
                0x0000000080862d88       0x90 arch/arm/cpu/armv7/start.o
 .rel.vectors   0x0000000080862e18       0x38 arch/arm/cpu/armv7/start.o
 .rel.text.relocate_vectors
                0x0000000080862e50       0x20 arch/arm/cpu/armv7/start.o
 .rel.text.setup_initrd_tag.isra.1
                0x0000000080862e70        0x8 arch/arm/cpu/armv7/start.o
 .rel.text.boot_jump_linux
                0x0000000080862e78       0x28 arch/arm/cpu/armv7/start.o
 .rel.text.boot_prep_linux
                0x0000000080862ea0       0x18 arch/arm/cpu/armv7/start.o
 .rel.text.boot_prep_vxworks
                0x0000000080862eb8       0x10 arch/arm/cpu/armv7/start.o
 .rel.text.interrupt_init
                0x0000000080862ec8        0x8 arch/arm/cpu/armv7/start.o
 .rel.text.bad_mode
                0x0000000080862ed0        0x8 arch/arm/cpu/armv7/start.o
 .rel.text.show_regs
                0x0000000080862ed8       0x88 arch/arm/cpu/armv7/start.o
 .rel.text.do_undefined_instruction
                0x0000000080862f60        0x8 arch/arm/cpu/armv7/start.o
 .rel.text.do_software_interrupt
                0x0000000080862f68        0x8 arch/arm/cpu/armv7/start.o
 .rel.text.do_prefetch_abort
                0x0000000080862f70        0x8 arch/arm/cpu/armv7/start.o
 .rel.text.do_data_abort
                0x0000000080862f78        0x8 arch/arm/cpu/armv7/start.o
 .rel.text.do_not_used
                0x0000000080862f80        0x8 arch/arm/cpu/armv7/start.o
 .rel.text.do_fiq
                0x0000000080862f88        0x8 arch/arm/cpu/armv7/start.o
 .rel.text.do_irq
                0x0000000080862f90        0x8 arch/arm/cpu/armv7/start.o
 .rel.text.do_reset
                0x0000000080862f98        0x8 arch/arm/cpu/armv7/start.o
 .rel.text.enable_caches
                0x0000000080862fa0        0x0 arch/arm/cpu/armv7/start.o
 .rel.text.check_cache_range
                0x0000000080862fa0        0x8 arch/arm/cpu/armv7/start.o
 .rel.rodata    0x0000000080862fa8      0x158 arch/arm/cpu/armv7/start.o
 .rel.text.get_dpll_mpu_params
                0x0000000080863100        0x0 arch/arm/cpu/armv7/start.o
 .rel.text.get_dpll_core_params
                0x0000000080863100        0x0 arch/arm/cpu/armv7/start.o
 .rel.text.get_dpll_per_params
                0x0000000080863100        0x0 arch/arm/cpu/armv7/start.o
 .rel.text.enable_basic_clocks
                0x0000000080863100        0x0 arch/arm/cpu/armv7/start.o
 .rel.text.set_mpu_spreadspectrum
                0x0000000080863100        0x0 arch/arm/cpu/armv7/start.o
 .rel.text.do_setup_dpll
                0x0000000080863100        0x0 arch/arm/cpu/armv7/start.o
 .rel.text.do_enable_clocks
                0x0000000080863100        0x0 arch/arm/cpu/armv7/start.o
 .rel.text.do_disable_clocks
                0x0000000080863100        0x0 arch/arm/cpu/armv7/start.o
 .rel.text.prcm_init
                0x0000000080863100        0x0 arch/arm/cpu/armv7/start.o
 .rel.text.rtc_only_prcm_init
                0x0000000080863100        0x0 arch/arm/cpu/armv7/start.o
 .rel.text.get_sysboot_value
                0x0000000080863100        0x0 arch/arm/cpu/armv7/start.o
 .rel.text.print_cpuinfo
                0x0000000080863100       0x48 arch/arm/cpu/armv7/start.o
 .rel.text.am335x_get_mpu_vdd
                0x0000000080863148        0x0 arch/arm/cpu/armv7/start.o
 .rel.text.configure_mr
                0x0000000080863148        0x0 arch/arm/cpu/armv7/start.o
 .rel.text.config_sdram_emif4d5
                0x0000000080863148        0x0 arch/arm/cpu/armv7/start.o
 .rel.text.config_sdram
                0x0000000080863148        0x0 arch/arm/cpu/armv7/start.o
 .rel.text.set_sdram_timings
                0x0000000080863148        0x0 arch/arm/cpu/armv7/start.o
 .rel.text.config_ddr_phy
                0x0000000080863148        0x0 arch/arm/cpu/armv7/start.o
 .rel.text.config_cmd_ctrl
                0x0000000080863148        0x0 arch/arm/cpu/armv7/start.o
 .rel.text.config_ddr_data
                0x0000000080863148        0x0 arch/arm/cpu/armv7/start.o
 .rel.text.arch_misc_init
                0x0000000080863148        0x8 arch/arm/cpu/armv7/start.o
 .rel.text.hw_data_init
                0x0000000080863150       0x10 arch/arm/cpu/armv7/start.o
 .rel.text.clk_synthesizer_reg_write
                0x0000000080863160        0x8 arch/arm/cpu/armv7/start.o
 .rel.text.setup_clock_synthesizer
                0x0000000080863168       0x10 arch/arm/cpu/armv7/start.o
 .rel.text.omap_die_id_serial
                0x0000000080863178        0x0 arch/arm/cpu/armv7/start.o
 .rel.text.omap_die_id_get_board_serial
                0x0000000080863178        0x0 arch/arm/cpu/armv7/start.o
 .rel.text.omap_die_id_usbethaddr
                0x0000000080863178        0x0 arch/arm/cpu/armv7/start.o
 .rel.text.omap_die_id_display
                0x0000000080863178        0x0 arch/arm/cpu/armv7/start.o
 .rel.text.get_device_type
                0x0000000080863178        0x8 arch/arm/cpu/armv7/start.o
 .rel.text.set_gpmc_cs0
                0x0000000080863180        0x0 arch/arm/cpu/armv7/start.o
 .rel.text.gpmc_init
                0x0000000080863180        0x0 arch/arm/cpu/armv7/start.o
 .rel.rodata.dev_types
                0x0000000080863180       0x20 arch/arm/cpu/armv7/start.o
 .rel.data.cpu_revs
                0x00000000808631a0       0x18 arch/arm/cpu/armv7/start.o
 .rel.data.cpu_revs_am43xx
                0x00000000808631b8       0x18 arch/arm/cpu/armv7/start.o
 .rel.text.ti_i2c_eeprom_am6_get.part.0
                0x00000000808631d0        0x0 arch/arm/cpu/armv7/start.o
 .rel.text.ti_i2c_eeprom_am_set
                0x00000000808631d0        0x0 arch/arm/cpu/armv7/start.o
 .rel.text.ti_i2c_eeprom_am_get
                0x00000000808631d0        0x0 arch/arm/cpu/armv7/start.o
 .rel.text.ti_i2c_eeprom_dra7_get
                0x00000000808631d0        0x0 arch/arm/cpu/armv7/start.o
 .rel.text.ti_i2c_eeprom_am6_get
                0x00000000808631d0        0x0 arch/arm/cpu/armv7/start.o
 .rel.text.set_board_info_env
                0x00000000808631d0       0x18 arch/arm/cpu/armv7/start.o
 .rel.text.set_board_info_env_am6
                0x00000000808631e8        0x0 arch/arm/cpu/armv7/start.o
 .rel.text.board_ti_set_ethaddr
                0x00000000808631e8        0x0 arch/arm/cpu/armv7/start.o
 .rel.text.board_ti_am6_set_ethaddr
                0x00000000808631e8        0x0 arch/arm/cpu/armv7/start.o
 .rel.text.do_go
                0x00000000808631e8       0x10 arch/arm/cpu/armv7/start.o
 .rel.text.do_bootm
                0x00000000808631f8       0x18 arch/arm/cpu/armv7/start.o
 .rel.text.do_bootd
                0x0000000080863210        0x8 arch/arm/cpu/armv7/start.o
 .rel.text.image_info
                0x0000000080863218       0x30 arch/arm/cpu/armv7/start.o
 .rel.text.do_iminfo
                0x0000000080863248        0x8 arch/arm/cpu/armv7/start.o
 .rel.text.bootm_maybe_autostart
                0x0000000080863250       0x20 arch/arm/cpu/armv7/start.o
 .rel.text.do_help
                0x0000000080863270       0x10 arch/arm/cpu/armv7/start.o
 .rel.text.do_version
                0x0000000080863280       0x10 arch/arm/cpu/armv7/start.o
 .rel.text.blk_common_cmd
                0x0000000080863290       0x70 arch/arm/cpu/armv7/start.o
 .rel.text.source
                0x0000000080863300       0x50 arch/arm/cpu/armv7/start.o
 .rel.text.do_source
                0x0000000080863350       0x10 arch/arm/cpu/armv7/start.o
 .rel.text.print_num
                0x0000000080863360        0x8 arch/arm/cpu/armv7/start.o
 .rel.text.do_bdinfo
                0x0000000080863368       0x68 arch/arm/cpu/armv7/start.o
 .rel.text.do_blkcache
                0x00000000808633d0        0x8 arch/arm/cpu/armv7/start.o
 .rel.text.blkc_configure
                0x00000000808633d8        0x8 arch/arm/cpu/armv7/start.o
 .rel.text.blkc_show
                0x00000000808633e0        0x8 arch/arm/cpu/armv7/start.o
 .rel.text.efi_install_fdt
                0x00000000808633e8       0x58 arch/arm/cpu/armv7/start.o
 .rel.text.do_bootefi_exec
                0x0000000080863440       0x38 arch/arm/cpu/armv7/start.o
 .rel.text.do_bootefi
                0x0000000080863478       0x40 arch/arm/cpu/armv7/start.o
 .rel.text.efi_set_bootdev
                0x00000000808634b8       0x10 arch/arm/cpu/armv7/start.o
 .rel.text.bootz_setup
                0x00000000808634c8        0x0 arch/arm/cpu/armv7/start.o
 .rel.text.do_bootz
                0x00000000808634c8       0x18 arch/arm/cpu/armv7/start.o
 .rel.text.do_coninfo
                0x00000000808634e0       0x28 arch/arm/cpu/armv7/start.o
 .rel.text.do_dm
                0x0000000080863508        0x8 arch/arm/cpu/armv7/start.o
 .rel.text.do_echo
                0x0000000080863510        0x8 arch/arm/cpu/armv7/start.o
 .rel.text.eeprom_rw
                0x0000000080863518       0x18 arch/arm/cpu/armv7/start.o
 .rel.text.eeprom_init
                0x0000000080863530        0x0 arch/arm/cpu/armv7/start.o
 .rel.text.do_eeprom
                0x0000000080863530       0x28 arch/arm/cpu/armv7/start.o
 .rel.text.valid_elf_image
                0x0000000080863558       0x10 arch/arm/cpu/armv7/start.o
 .rel.text.do_bootelf
                0x0000000080863568       0x28 arch/arm/cpu/armv7/start.o
 .rel.text.do_bootvx
                0x0000000080863590       0xe0 arch/arm/cpu/armv7/start.o
 .rel.text.do_fat_fswrite
                0x0000000080863670       0x18 arch/arm/cpu/armv7/start.o
 .rel.text.do_fat_fsinfo
                0x0000000080863688       0x10 arch/arm/cpu/armv7/start.o
 .rel.text.fdt_valid
                0x0000000080863698       0x28 arch/arm/cpu/armv7/start.o
 .rel.text.is_printable_string
                0x00000000808636c0        0x8 arch/arm/cpu/armv7/start.o
 .rel.text.print_data
                0x00000000808636c8       0x58 arch/arm/cpu/armv7/start.o
 .rel.text.set_working_fdt_addr
                0x0000000080863720       0x10 arch/arm/cpu/armv7/start.o
 .rel.text.do_fdt
                0x0000000080863730      0x288 arch/arm/cpu/armv7/start.o
 .rel.text.gpio_get_description
                0x00000000808639b8       0x18 arch/arm/cpu/armv7/start.o
 .rel.text.do_gpio
                0x00000000808639d0       0x50 arch/arm/cpu/armv7/start.o
 .rel.text.do_i2c
                0x0000000080863a20        0x8 arch/arm/cpu/armv7/start.o
 .rel.text.i2c_get_cur_bus
                0x0000000080863a28       0x10 arch/arm/cpu/armv7/start.o
 .rel.text.do_i2c_bus_speed
                0x0000000080863a38       0x18 arch/arm/cpu/armv7/start.o
 .rel.text.do_i2c_reset
                0x0000000080863a50        0x8 arch/arm/cpu/armv7/start.o
 .rel.text.do_i2c_olen
                0x0000000080863a58       0x18 arch/arm/cpu/armv7/start.o
 .rel.text.do_i2c_flags
                0x0000000080863a70       0x18 arch/arm/cpu/armv7/start.o
 .rel.text.do_i2c_probe
                0x0000000080863a88       0x10 arch/arm/cpu/armv7/start.o
 .rel.text.do_i2c_bus_num
                0x0000000080863a98       0x20 arch/arm/cpu/armv7/start.o
 .rel.text.show_bus
                0x0000000080863ab8       0x20 arch/arm/cpu/armv7/start.o
 .rel.text.do_i2c_show_bus
                0x0000000080863ad8        0x8 arch/arm/cpu/armv7/start.o
 .rel.text.do_i2c_crc
                0x0000000080863ae0       0x20 arch/arm/cpu/armv7/start.o
 .rel.text.mod_i2c_mem.isra.1
                0x0000000080863b00       0x60 arch/arm/cpu/armv7/start.o
 .rel.text.do_i2c_md
                0x0000000080863b60       0x58 arch/arm/cpu/armv7/start.o
 .rel.text.do_i2c_read
                0x0000000080863bb8       0x10 arch/arm/cpu/armv7/start.o
 .rel.text.do_i2c_mw
                0x0000000080863bc8       0x10 arch/arm/cpu/armv7/start.o
 .rel.text.do_i2c_write
                0x0000000080863bd8       0x18 arch/arm/cpu/armv7/start.o
 .rel.text.do_i2c_loop
                0x0000000080863bf0       0x18 arch/arm/cpu/armv7/start.o
 .rel.text.binary_test
                0x0000000080863c08       0x10 arch/arm/cpu/armv7/start.o
 .rel.text.do_itest
                0x0000000080863c18        0x8 arch/arm/cpu/armv7/start.o
 .rel.text.bin_data_init
                0x0000000080863c20       0x18 arch/arm/cpu/armv7/start.o
 .rel.text.k_data_save
                0x0000000080863c38       0x30 arch/arm/cpu/armv7/start.o
 .rel.text.k_data_restore
                0x0000000080863c68       0x30 arch/arm/cpu/armv7/start.o
 .rel.text.load_serial_ymodem
                0x0000000080863c98       0x20 arch/arm/cpu/armv7/start.o
 .rel.text.bin_data_char
                0x0000000080863cb8       0x10 arch/arm/cpu/armv7/start.o
 .rel.text.chk1.constprop.2
                0x0000000080863cc8        0x8 arch/arm/cpu/armv7/start.o
 .rel.text.s1_sendpacket.constprop.3
                0x0000000080863cd0       0x18 arch/arm/cpu/armv7/start.o
 .rel.text.load_serial
                0x0000000080863ce8       0x20 arch/arm/cpu/armv7/start.o
 .rel.text.do_load_serial
                0x0000000080863d08       0x30 arch/arm/cpu/armv7/start.o
 .rel.text.do_load_serial_bin
                0x0000000080863d38      0x108 arch/arm/cpu/armv7/start.o
 .rel.text.do_mem_mw
                0x0000000080863e40        0x8 arch/arm/cpu/armv7/start.o
 .rel.text.do_mem_md
                0x0000000080863e48       0x20 arch/arm/cpu/armv7/start.o
 .rel.text.do_mem_cmp
                0x0000000080863e68       0x38 arch/arm/cpu/armv7/start.o
 .rel.text.do_mem_base
                0x0000000080863ea0       0x10 arch/arm/cpu/armv7/start.o
 .rel.text.do_mem_cp
                0x0000000080863eb0       0x10 arch/arm/cpu/armv7/start.o
 .rel.text.do_mem_crc
                0x0000000080863ec0        0x8 arch/arm/cpu/armv7/start.o
 .rel.text.mod_mem.isra.0
                0x0000000080863ec8       0x48 arch/arm/cpu/armv7/start.o
 .rel.text.do_random
                0x0000000080863f10       0x18 arch/arm/cpu/armv7/start.o
 .rel.text.dump_field
                0x0000000080863f28       0x18 arch/arm/cpu/armv7/start.o
 .rel.text.do_mii
                0x0000000080863f40      0x150 arch/arm/cpu/armv7/start.o
 .rel.text.do_mdio
                0x0000000080864090       0xb8 arch/arm/cpu/armv7/start.o
 .rel.text.do_mmcops
                0x0000000080864148       0x20 arch/arm/cpu/armv7/start.o
 .rel.text.init_mmc_device
                0x0000000080864168        0x8 arch/arm/cpu/armv7/start.o
 .rel.text.do_mmc_rescan
                0x0000000080864170        0x8 arch/arm/cpu/armv7/start.o
 .rel.text.do_mmc_hwpartition
                0x0000000080864178       0xb0 arch/arm/cpu/armv7/start.o
 .rel.text.do_mmc_dev
                0x0000000080864228       0x38 arch/arm/cpu/armv7/start.o
 .rel.text.do_mmc_erase
                0x0000000080864260       0x30 arch/arm/cpu/armv7/start.o
 .rel.text.do_mmc_write
                0x0000000080864290       0x30 arch/arm/cpu/armv7/start.o
 .rel.text.do_mmc_read
                0x00000000808642c0       0x28 arch/arm/cpu/armv7/start.o
 .rel.text.do_mmcinfo
                0x00000000808642e8      0x110 arch/arm/cpu/armv7/start.o
 .rel.text.do_mmc_setdsr
                0x00000000808643f8       0x28 arch/arm/cpu/armv7/start.o
 .rel.text.do_mmc_part
                0x0000000080864420       0x10 arch/arm/cpu/armv7/start.o
 .rel.text.netboot_common
                0x0000000080864430       0xb8 arch/arm/cpu/armv7/start.o
 .rel.text.do_ping
                0x00000000808644e8       0x18 arch/arm/cpu/armv7/start.o
 .rel.text.efi_dump_single_var
                0x0000000080864500       0x28 arch/arm/cpu/armv7/start.o
 .rel.text.do_env_print_efi
                0x0000000080864528       0x10 arch/arm/cpu/armv7/start.o
 .rel.text.do_env_set_efi
                0x0000000080864538       0x60 arch/arm/cpu/armv7/start.o
 .rel.text.do_part_list
                0x0000000080864598       0x28 arch/arm/cpu/armv7/start.o
 .rel.text.do_part_info
                0x00000000808645c0       0x18 arch/arm/cpu/armv7/start.o
 .rel.text.do_part
                0x00000000808645d8       0x30 arch/arm/cpu/armv7/start.o
 .rel.text.do_pxe
                0x0000000080864608       0x10 arch/arm/cpu/armv7/start.o
 .rel.text.label_print
                0x0000000080864618        0x8 arch/arm/cpu/armv7/start.o
 .rel.text.do_get_tftp
                0x0000000080864620        0x8 arch/arm/cpu/armv7/start.o
 .rel.text.from_env
                0x0000000080864628        0x8 arch/arm/cpu/armv7/start.o
 .rel.text.get_string
                0x0000000080864630        0x8 arch/arm/cpu/armv7/start.o
 .rel.text.get_token
                0x0000000080864638        0x8 arch/arm/cpu/armv7/start.o
 .rel.text.parse_sliteral
                0x0000000080864640        0x8 arch/arm/cpu/armv7/start.o
 .rel.text.parse_integer
                0x0000000080864648        0x8 arch/arm/cpu/armv7/start.o
 .rel.text.do_get_any
                0x0000000080864650       0x10 arch/arm/cpu/armv7/start.o
 .rel.text.do_get_fat
                0x0000000080864660       0x10 arch/arm/cpu/armv7/start.o
 .rel.text.do_get_ext2
                0x0000000080864670       0x10 arch/arm/cpu/armv7/start.o
 .rel.text.format_mac_pxe.constprop.6
                0x0000000080864680       0x10 arch/arm/cpu/armv7/start.o
 .rel.text.get_relfile
                0x0000000080864690       0x38 arch/arm/cpu/armv7/start.o
 .rel.text.get_pxe_file
                0x00000000808646c8        0x8 arch/arm/cpu/armv7/start.o
 .rel.text.handle_include
                0x00000000808646d0       0x10 arch/arm/cpu/armv7/start.o
 .rel.text.parse_pxefile_top
                0x00000000808646e0      0x158 arch/arm/cpu/armv7/start.o
 .rel.text.get_pxelinux_path
                0x0000000080864838       0x18 arch/arm/cpu/armv7/start.o
 .rel.text.do_pxe_get
                0x0000000080864850       0x48 arch/arm/cpu/armv7/start.o
 .rel.text.label_boot
                0x0000000080864898      0x110 arch/arm/cpu/armv7/start.o
 .rel.text.handle_pxe_menu
                0x00000000808649a8       0x18 arch/arm/cpu/armv7/start.o
 .rel.text.do_pxe_boot
                0x00000000808649c0       0x38 arch/arm/cpu/armv7/start.o
 .rel.text.do_sysboot
                0x00000000808649f8       0x80 arch/arm/cpu/armv7/start.o
 .rel.text.do_spi_flash
                0x0000000080864a78       0xf8 arch/arm/cpu/armv7/start.o
 .rel.text.do_spi
                0x0000000080864b70       0x68 arch/arm/cpu/armv7/start.o
 .rel.text.do_time
                0x0000000080864bd8       0x18 arch/arm/cpu/armv7/start.o
 .rel.text.do_test
                0x0000000080864bf0        0x8 arch/arm/cpu/armv7/start.o
 .rel.text.usb_get_class_desc
                0x0000000080864bf8       0x50 arch/arm/cpu/armv7/start.o
 .rel.text.usb_display_class_sub
                0x0000000080864c48       0x98 arch/arm/cpu/armv7/start.o
 .rel.text.usb_display_desc
                0x0000000080864ce0       0x38 arch/arm/cpu/armv7/start.o
 .rel.text.usb_show_tree_graph
                0x0000000080864d18       0x48 arch/arm/cpu/armv7/start.o
 .rel.text.usb_display_string
                0x0000000080864d60        0x8 arch/arm/cpu/armv7/start.o
 .rel.text.usb_display_config
                0x0000000080864d68       0xa8 arch/arm/cpu/armv7/start.o
 .rel.text.do_usbboot
                0x0000000080864e10        0x8 arch/arm/cpu/armv7/start.o
 .rel.text.do_usb_start
                0x0000000080864e18        0x8 arch/arm/cpu/armv7/start.o
 .rel.text.usb_show_tree
                0x0000000080864e20        0x8 arch/arm/cpu/armv7/start.o
 .rel.text.do_usb
                0x0000000080864e28       0xf0 arch/arm/cpu/armv7/start.o
 .rel.text.common_diskboot
                0x0000000080864f18       0x30 arch/arm/cpu/armv7/start.o
 .rel.text.do_fastboot
                0x0000000080864f48       0x40 arch/arm/cpu/armv7/start.o
 .rel.text.do_imgextract
                0x0000000080864f88       0x90 arch/arm/cpu/armv7/start.o
 .rel.text.do_spl
                0x0000000080865018       0x60 arch/arm/cpu/armv7/start.o
 .rel.text.do_dfu
                0x0000000080865078       0x10 arch/arm/cpu/armv7/start.o
 .rel.text.extract_val
                0x0000000080865088       0x10 arch/arm/cpu/armv7/start.o
 .rel.text.extract_env
                0x0000000080865098        0x8 arch/arm/cpu/armv7/start.o
 .rel.text.set_gpt_info.isra.0.constprop.1
                0x00000000808650a0       0x80 arch/arm/cpu/armv7/start.o
 .rel.text.do_gpt
                0x0000000080865120       0x78 arch/arm/cpu/armv7/start.o
 .rel.text.do_env_delete
                0x0000000080865198       0x10 arch/arm/cpu/armv7/start.o
 .rel.text.do_env_exists
                0x00000000808651a8        0x8 arch/arm/cpu/armv7/start.o
 .rel.text._do_env_set
                0x00000000808651b0       0x30 arch/arm/cpu/armv7/start.o
 .rel.text.do_env_ask
                0x00000000808651e0       0x10 arch/arm/cpu/armv7/start.o
 .rel.text.do_env
                0x00000000808651f0        0x8 arch/arm/cpu/armv7/start.o
 .rel.text.env_print
                0x00000000808651f8       0x18 arch/arm/cpu/armv7/start.o
 .rel.text.do_env_print
                0x0000000080865210       0x10 arch/arm/cpu/armv7/start.o
 .rel.text.do_env_import
                0x0000000080865220       0x50 arch/arm/cpu/armv7/start.o
 .rel.text.do_env_default
                0x0000000080865270        0x8 arch/arm/cpu/armv7/start.o
 .rel.text.env_get_id
                0x0000000080865278        0x8 arch/arm/cpu/armv7/start.o
 .rel.text.env_set
                0x0000000080865280        0x8 arch/arm/cpu/armv7/start.o
 .rel.text.env_set_hex
                0x0000000080865288        0x8 arch/arm/cpu/armv7/start.o
 .rel.text.do_env_export
                0x0000000080865290       0x30 arch/arm/cpu/armv7/start.o
 .rel.text.env_get_f
                0x00000000808652c0        0x8 arch/arm/cpu/armv7/start.o
 .rel.text.env_get
                0x00000000808652c8        0x8 arch/arm/cpu/armv7/start.o
 .rel.text.eth_env_set_enetaddr
                0x00000000808652d0        0x8 arch/arm/cpu/armv7/start.o
 .rel.text.do_env_edit.part.2
                0x00000000808652d8       0x18 arch/arm/cpu/armv7/start.o
 .rel.rodata.fdt_member_table
                0x00000000808652f0       0x50 arch/arm/cpu/armv7/start.o
 .rel.rodata.op_table
                0x0000000080865340       0x68 arch/arm/cpu/armv7/start.o
 .rel.rodata.mii_reg_desc_tbl
                0x00000000808653a8       0x80 arch/arm/cpu/armv7/start.o
 .rel.rodata.reg_0_desc_tbl
                0x0000000080865428       0x50 arch/arm/cpu/armv7/start.o
 .rel.rodata.reg_10_desc_tbl
                0x0000000080865478       0x40 arch/arm/cpu/armv7/start.o
 .rel.rodata.reg_1_desc_tbl
                0x00000000808654b8       0x80 arch/arm/cpu/armv7/start.o
 .rel.rodata.reg_2_desc_tbl
                0x0000000080865538        0x8 arch/arm/cpu/armv7/start.o
 .rel.rodata.reg_3_desc_tbl
                0x0000000080865540       0x18 arch/arm/cpu/armv7/start.o
 .rel.rodata.reg_4_desc_tbl
                0x0000000080865558       0x60 arch/arm/cpu/armv7/start.o
 .rel.rodata.reg_5_desc_tbl
                0x00000000808655b8       0x60 arch/arm/cpu/armv7/start.o
 .rel.rodata.reg_9_desc_tbl
                0x0000000080865618       0x40 arch/arm/cpu/armv7/start.o
 .rel.rodata.efi_var_attrs
                0x0000000080865658       0x28 arch/arm/cpu/armv7/start.o
 .rel.rodata.keywords
                0x0000000080865680       0x98 arch/arm/cpu/armv7/start.o
 .rel.rodata.op_adv
                0x0000000080865718       0x80 arch/arm/cpu/armv7/start.o
 .rel.rodata.CSWTCH.45
                0x0000000080865798       0x28 arch/arm/cpu/armv7/start.o
 .rel.rodata.subcmd_list
                0x00000000808657c0       0x10 arch/arm/cpu/armv7/start.o
 .rel.u_boot_list_2_cmd_2_go
                0x00000000808657d0       0x28 arch/arm/cpu/armv7/start.o
 .rel.u_boot_list_2_cmd_2_reset
                0x00000000808657f8       0x28 arch/arm/cpu/armv7/start.o
 .rel.data.cmd_bootm_sub
                0x0000000080865820      0x120 arch/arm/cpu/armv7/start.o
 .rel.u_boot_list_2_cmd_2_boot
                0x0000000080865940       0x28 arch/arm/cpu/armv7/start.o
 .rel.u_boot_list_2_cmd_2_bootd
                0x0000000080865968       0x28 arch/arm/cpu/armv7/start.o
 .rel.u_boot_list_2_cmd_2_bootm
                0x0000000080865990       0x28 arch/arm/cpu/armv7/start.o
 .rel.u_boot_list_2_cmd_2_iminfo
                0x00000000808659b8       0x28 arch/arm/cpu/armv7/start.o
 .rel.u_boot_list_2_cmd_2_help
                0x00000000808659e0       0x28 arch/arm/cpu/armv7/start.o
 .rel.u_boot_list_2_cmd_2_question_mark
                0x0000000080865a08       0x28 arch/arm/cpu/armv7/start.o
 .rel.u_boot_list_2_cmd_2_version
                0x0000000080865a30       0x28 arch/arm/cpu/armv7/start.o
 .rel.u_boot_list_2_cmd_2_source
                0x0000000080865a58       0x28 arch/arm/cpu/armv7/start.o
 .rel.u_boot_list_2_cmd_2_bdinfo
                0x0000000080865a80       0x28 arch/arm/cpu/armv7/start.o
 .rel.data.cmd_blkc_sub
                0x0000000080865aa8       0x50 arch/arm/cpu/armv7/start.o
 .rel.u_boot_list_2_cmd_2_blkcache
                0x0000000080865af8       0x28 arch/arm/cpu/armv7/start.o
 .rel.u_boot_list_2_cmd_2_bootefi
                0x0000000080865b20       0x28 arch/arm/cpu/armv7/start.o
 .rel.u_boot_list_2_cmd_2_bootz
                0x0000000080865b48       0x28 arch/arm/cpu/armv7/start.o
 .rel.u_boot_list_2_cmd_2_coninfo
                0x0000000080865b70       0x28 arch/arm/cpu/armv7/start.o
 .rel.data.test_commands
                0x0000000080865b98       0x78 arch/arm/cpu/armv7/start.o
 .rel.u_boot_list_2_cmd_2_dm
                0x0000000080865c10       0x28 arch/arm/cpu/armv7/start.o
 .rel.u_boot_list_2_cmd_2_echo
                0x0000000080865c38       0x28 arch/arm/cpu/armv7/start.o
 .rel.u_boot_list_2_cmd_2_eeprom
                0x0000000080865c60       0x28 arch/arm/cpu/armv7/start.o
 .rel.u_boot_list_2_cmd_2_bootelf
                0x0000000080865c88       0x28 arch/arm/cpu/armv7/start.o
 .rel.u_boot_list_2_cmd_2_bootvx
                0x0000000080865cb0       0x28 arch/arm/cpu/armv7/start.o
 .rel.u_boot_list_2_cmd_2_exit
                0x0000000080865cd8       0x28 arch/arm/cpu/armv7/start.o
 .rel.u_boot_list_2_cmd_2_ext4load
                0x0000000080865d00       0x28 arch/arm/cpu/armv7/start.o
 .rel.u_boot_list_2_cmd_2_ext4ls
                0x0000000080865d28       0x28 arch/arm/cpu/armv7/start.o
 .rel.u_boot_list_2_cmd_2_ext4size
                0x0000000080865d50       0x28 arch/arm/cpu/armv7/start.o
 .rel.u_boot_list_2_cmd_2_ext4write
                0x0000000080865d78       0x28 arch/arm/cpu/armv7/start.o
 .rel.u_boot_list_2_cmd_2_ext2load
                0x0000000080865da0       0x28 arch/arm/cpu/armv7/start.o
 .rel.u_boot_list_2_cmd_2_ext2ls
                0x0000000080865dc8       0x28 arch/arm/cpu/armv7/start.o
 .rel.u_boot_list_2_cmd_2_fatinfo
                0x0000000080865df0       0x28 arch/arm/cpu/armv7/start.o
 .rel.u_boot_list_2_cmd_2_fatload
                0x0000000080865e18       0x28 arch/arm/cpu/armv7/start.o
 .rel.u_boot_list_2_cmd_2_fatls
                0x0000000080865e40       0x28 arch/arm/cpu/armv7/start.o
 .rel.u_boot_list_2_cmd_2_fatmkdir
                0x0000000080865e68       0x28 arch/arm/cpu/armv7/start.o
 .rel.u_boot_list_2_cmd_2_fatrm
                0x0000000080865e90       0x28 arch/arm/cpu/armv7/start.o
 .rel.u_boot_list_2_cmd_2_fatsize
                0x0000000080865eb8       0x28 arch/arm/cpu/armv7/start.o
 .rel.u_boot_list_2_cmd_2_fatwrite
                0x0000000080865ee0       0x28 arch/arm/cpu/armv7/start.o
 .rel.u_boot_list_2_cmd_2_fdt
                0x0000000080865f08       0x28 arch/arm/cpu/armv7/start.o
 .rel.u_boot_list_2_cmd_2_fstype
                0x0000000080865f30       0x28 arch/arm/cpu/armv7/start.o
 .rel.u_boot_list_2_cmd_2_ln
                0x0000000080865f58       0x28 arch/arm/cpu/armv7/start.o
 .rel.u_boot_list_2_cmd_2_load
                0x0000000080865f80       0x28 arch/arm/cpu/armv7/start.o
 .rel.u_boot_list_2_cmd_2_ls
                0x0000000080865fa8       0x28 arch/arm/cpu/armv7/start.o
 .rel.u_boot_list_2_cmd_2_save
                0x0000000080865fd0       0x28 arch/arm/cpu/armv7/start.o
 .rel.u_boot_list_2_cmd_2_size
                0x0000000080865ff8       0x28 arch/arm/cpu/armv7/start.o
 .rel.u_boot_list_2_cmd_2_gpio
                0x0000000080866020       0x28 arch/arm/cpu/armv7/start.o
 .rel.data.cmd_i2c_sub
                0x0000000080866048      0x258 arch/arm/cpu/armv7/start.o
 .rel.u_boot_list_2_cmd_2_i2c
                0x00000000808662a0       0x28 arch/arm/cpu/armv7/start.o
 .rel.u_boot_list_2_cmd_2_itest
                0x00000000808662c8       0x28 arch/arm/cpu/armv7/start.o
 .rel.u_boot_list_2_cmd_2_loadb
                0x00000000808662f0       0x28 arch/arm/cpu/armv7/start.o
 .rel.u_boot_list_2_cmd_2_loads
                0x0000000080866318       0x28 arch/arm/cpu/armv7/start.o
 .rel.u_boot_list_2_cmd_2_loadx
                0x0000000080866340       0x28 arch/arm/cpu/armv7/start.o
 .rel.u_boot_list_2_cmd_2_loady
                0x0000000080866368       0x28 arch/arm/cpu/armv7/start.o
 .rel.u_boot_list_2_cmd_2_base
                0x0000000080866390       0x28 arch/arm/cpu/armv7/start.o
 .rel.u_boot_list_2_cmd_2_cmp
                0x00000000808663b8       0x28 arch/arm/cpu/armv7/start.o
 .rel.u_boot_list_2_cmd_2_cp
                0x00000000808663e0       0x28 arch/arm/cpu/armv7/start.o
 .rel.u_boot_list_2_cmd_2_crc32
                0x0000000080866408       0x28 arch/arm/cpu/armv7/start.o
 .rel.u_boot_list_2_cmd_2_loop
                0x0000000080866430       0x28 arch/arm/cpu/armv7/start.o
 .rel.u_boot_list_2_cmd_2_md
                0x0000000080866458       0x28 arch/arm/cpu/armv7/start.o
 .rel.u_boot_list_2_cmd_2_mm
                0x0000000080866480       0x28 arch/arm/cpu/armv7/start.o
 .rel.u_boot_list_2_cmd_2_mw
                0x00000000808664a8       0x28 arch/arm/cpu/armv7/start.o
 .rel.u_boot_list_2_cmd_2_nm
                0x00000000808664d0       0x28 arch/arm/cpu/armv7/start.o
 .rel.u_boot_list_2_cmd_2_random
                0x00000000808664f8       0x28 arch/arm/cpu/armv7/start.o
 .rel.u_boot_list_2_cmd_2_mii
                0x0000000080866520       0x28 arch/arm/cpu/armv7/start.o
 .rel.u_boot_list_2_cmd_2_mdio
                0x0000000080866548       0x28 arch/arm/cpu/armv7/start.o
 .rel.u_boot_list_2_cmd_2_sleep
                0x0000000080866570       0x28 arch/arm/cpu/armv7/start.o
 .rel.data.cmd_mmc
                0x0000000080866598      0x190 arch/arm/cpu/armv7/start.o
 .rel.u_boot_list_2_cmd_2_mmc
                0x0000000080866728       0x28 arch/arm/cpu/armv7/start.o
 .rel.u_boot_list_2_cmd_2_mmcinfo
                0x0000000080866750       0x28 arch/arm/cpu/armv7/start.o
 .rel.u_boot_list_2_cmd_2_bootp
                0x0000000080866778       0x28 arch/arm/cpu/armv7/start.o
 .rel.u_boot_list_2_cmd_2_dhcp
                0x00000000808667a0       0x28 arch/arm/cpu/armv7/start.o
 .rel.u_boot_list_2_cmd_2_nfs
                0x00000000808667c8       0x28 arch/arm/cpu/armv7/start.o
 .rel.u_boot_list_2_cmd_2_ping
                0x00000000808667f0       0x28 arch/arm/cpu/armv7/start.o
 .rel.u_boot_list_2_cmd_2_tftpboot
                0x0000000080866818       0x28 arch/arm/cpu/armv7/start.o
 .rel.u_boot_list_2_cmd_2_part
                0x0000000080866840       0x28 arch/arm/cpu/armv7/start.o
 .rel.data.cmd_pxe_sub
                0x0000000080866868       0x50 arch/arm/cpu/armv7/start.o
 .rel.data.pxe_default_paths
                0x00000000808668b8       0x20 arch/arm/cpu/armv7/start.o
 .rel.u_boot_list_2_cmd_2_pxe
                0x00000000808668d8       0x28 arch/arm/cpu/armv7/start.o
 .rel.u_boot_list_2_cmd_2_sysboot
                0x0000000080866900       0x28 arch/arm/cpu/armv7/start.o
 .rel.u_boot_list_2_cmd_2_sf
                0x0000000080866928       0x28 arch/arm/cpu/armv7/start.o
 .rel.u_boot_list_2_cmd_2_sspi
                0x0000000080866950       0x28 arch/arm/cpu/armv7/start.o
 .rel.u_boot_list_2_cmd_2_time
                0x0000000080866978       0x28 arch/arm/cpu/armv7/start.o
 .rel.u_boot_list_2_cmd_2_false
                0x00000000808669a0       0x20 arch/arm/cpu/armv7/start.o
 .rel.u_boot_list_2_cmd_2_test
                0x00000000808669c0       0x28 arch/arm/cpu/armv7/start.o
 .rel.u_boot_list_2_cmd_2_true
                0x00000000808669e8       0x20 arch/arm/cpu/armv7/start.o
 .rel.u_boot_list_2_cmd_2_usb
                0x0000000080866a08       0x28 arch/arm/cpu/armv7/start.o
 .rel.u_boot_list_2_cmd_2_usbboot
                0x0000000080866a30       0x28 arch/arm/cpu/armv7/start.o
 .rel.u_boot_list_2_cmd_2_fastboot
                0x0000000080866a58       0x28 arch/arm/cpu/armv7/start.o
 .rel.u_boot_list_2_cmd_2_imxtract
                0x0000000080866a80       0x28 arch/arm/cpu/armv7/start.o
 .rel.data.__compound_literal.0
                0x0000000080866aa8       0x38 arch/arm/cpu/armv7/start.o
 .rel.data.__compound_literal.1
                0x0000000080866ae0       0x30 arch/arm/cpu/armv7/start.o
 .rel.data.cmd_spl_export_sub
                0x0000000080866b10       0x40 arch/arm/cpu/armv7/start.o
 .rel.data.cmd_spl_sub
                0x0000000080866b50       0x20 arch/arm/cpu/armv7/start.o
 .rel.u_boot_list_2_cmd_2_spl
                0x0000000080866b70       0x28 arch/arm/cpu/armv7/start.o
 .rel.u_boot_list_2_cmd_2_dfu
                0x0000000080866b98       0x28 arch/arm/cpu/armv7/start.o
 .rel.u_boot_list_2_cmd_2_gpt
                0x0000000080866bc0       0x28 arch/arm/cpu/armv7/start.o
 .rel.data.cmd_env_sub
                0x0000000080866be8      0x1b8 arch/arm/cpu/armv7/start.o
 .rel.u_boot_list_2_cmd_2_askenv
                0x0000000080866da0       0x28 arch/arm/cpu/armv7/start.o
 .rel.u_boot_list_2_cmd_2_editenv
                0x0000000080866dc8       0x30 arch/arm/cpu/armv7/start.o
 .rel.u_boot_list_2_cmd_2_env
                0x0000000080866df8       0x28 arch/arm/cpu/armv7/start.o
 .rel.u_boot_list_2_cmd_2_printenv
                0x0000000080866e20       0x30 arch/arm/cpu/armv7/start.o
 .rel.u_boot_list_2_cmd_2_run
                0x0000000080866e50       0x30 arch/arm/cpu/armv7/start.o
 .rel.u_boot_list_2_cmd_2_saveenv
                0x0000000080866e80       0x28 arch/arm/cpu/armv7/start.o
 .rel.u_boot_list_2_cmd_2_setenv
                0x0000000080866ea8       0x30 arch/arm/cpu/armv7/start.o
 .rel.text.main_loop
                0x0000000080866ed8       0x18 arch/arm/cpu/armv7/start.o
 .rel.text.jumptable_init
                0x0000000080866ef0       0xd8 arch/arm/cpu/armv7/start.o
 .rel.text.hash_lookup_algo
                0x0000000080866fc8        0x8 arch/arm/cpu/armv7/start.o
 .rel.text.hash_progressive_lookup_algo
                0x0000000080866fd0        0x8 arch/arm/cpu/armv7/start.o
 .rel.text.hash_command
                0x0000000080866fd8       0x28 arch/arm/cpu/armv7/start.o
 .rel.text.mapset
                0x0000000080867000        0x8 arch/arm/cpu/armv7/start.o
 .rel.text.syntax_err
                0x0000000080867008        0x8 arch/arm/cpu/armv7/start.o
 .rel.text.xmalloc
                0x0000000080867010        0x8 arch/arm/cpu/armv7/start.o
 .rel.text.xrealloc
                0x0000000080867018        0x8 arch/arm/cpu/armv7/start.o
 .rel.text.done_word
                0x0000000080867020        0x8 arch/arm/cpu/armv7/start.o
 .rel.text.is_assignment
                0x0000000080867028        0x8 arch/arm/cpu/armv7/start.o
 .rel.text.file_get
                0x0000000080867030       0x30 arch/arm/cpu/armv7/start.o
 .rel.text.do_showvar
                0x0000000080867060       0x20 arch/arm/cpu/armv7/start.o
 .rel.text.b_addqchr
                0x0000000080867080        0x8 arch/arm/cpu/armv7/start.o
 .rel.text.get_local_var
                0x0000000080867088       0x20 arch/arm/cpu/armv7/start.o
 .rel.text.set_local_var
                0x00000000808670a8       0x20 arch/arm/cpu/armv7/start.o
 .rel.text.insert_var_value_sub
                0x00000000808670c8        0x8 arch/arm/cpu/armv7/start.o
 .rel.text.unset_local_var
                0x00000000808670d0        0x0 arch/arm/cpu/armv7/start.o
 .rel.text.parse_string_outer
                0x00000000808670d0       0x18 arch/arm/cpu/armv7/start.o
 .rel.text.run_list_real
                0x00000000808670e8       0x50 arch/arm/cpu/armv7/start.o
 .rel.text.parse_stream_outer
                0x0000000080867138       0x70 arch/arm/cpu/armv7/start.o
 .rel.text.parse_file_outer
                0x00000000808671a8       0x10 arch/arm/cpu/armv7/start.o
 .rel.text.u_boot_hush_start
                0x00000000808671b8       0x18 arch/arm/cpu/armv7/start.o
 .rel.text.bootdelay_process
                0x00000000808671d0       0x68 arch/arm/cpu/armv7/start.o
 .rel.text.autoboot_command
                0x0000000080867238       0x30 arch/arm/cpu/armv7/start.o
 .rel.text.setup_mon_len
                0x0000000080867268       0x10 arch/arm/cpu/armv7/start.o
 .rel.text.announce_dram_init
                0x0000000080867278        0x8 arch/arm/cpu/armv7/start.o
 .rel.text.init_baud_rate
                0x0000000080867280        0x8 arch/arm/cpu/armv7/start.o
 .rel.text.show_dram_config
                0x0000000080867288        0x8 arch/arm/cpu/armv7/start.o
 .rel.text.board_init_f
                0x0000000080867290       0x10 arch/arm/cpu/armv7/start.o
 .rel.text.initr_net
                0x00000000808672a0        0x8 arch/arm/cpu/armv7/start.o
 .rel.text.initr_ethaddr
                0x00000000808672a8        0x8 arch/arm/cpu/armv7/start.o
 .rel.text.initr_env
                0x00000000808672b0       0x20 arch/arm/cpu/armv7/start.o
 .rel.text.initr_mmc
                0x00000000808672d0        0x8 arch/arm/cpu/armv7/start.o
 .rel.text.initr_reloc_global_data
                0x00000000808672d8       0x18 arch/arm/cpu/armv7/start.o
 .rel.text.board_init_r
                0x00000000808672f0       0x10 arch/arm/cpu/armv7/start.o
 .rel.text.show_board_info
                0x0000000080867300       0x10 arch/arm/cpu/armv7/start.o
 .rel.text.bootm_find_images
                0x0000000080867310       0x20 arch/arm/cpu/armv7/start.o
 .rel.text.do_bootm_states
                0x0000000080867330       0xc8 arch/arm/cpu/armv7/start.o
 .rel.text.do_bootm_rtems
                0x00000000808673f8       0x20 arch/arm/cpu/armv7/start.o
 .rel.text.do_bootm_vxworks
                0x0000000080867418       0x50 arch/arm/cpu/armv7/start.o
 .rel.text.do_bootm_plan9
                0x0000000080867468       0x30 arch/arm/cpu/armv7/start.o
 .rel.text.do_bootm_standalone
                0x0000000080867498       0x18 arch/arm/cpu/armv7/start.o
 .rel.text.do_bootm_qnxelf
                0x00000000808674b0       0x20 arch/arm/cpu/armv7/start.o
 .rel.text.do_bootm_netbsd
                0x00000000808674d0       0x30 arch/arm/cpu/armv7/start.o
 .rel.text.bootm_os_get_boot_func
                0x0000000080867500        0x8 arch/arm/cpu/armv7/start.o
 .rel.text.fdt_support_default_count_cells
                0x0000000080867508        0x8 arch/arm/cpu/armv7/start.o
 .rel.text.__of_translate_address
                0x0000000080867510       0x18 arch/arm/cpu/armv7/start.o
 .rel.text.fdt_find_or_add_subnode
                0x0000000080867528       0x10 arch/arm/cpu/armv7/start.o
 .rel.text.fdt_root
                0x0000000080867538       0x20 arch/arm/cpu/armv7/start.o
 .rel.text.fdt_initrd
                0x0000000080867558       0x30 arch/arm/cpu/armv7/start.o
 .rel.text.fdt_chosen
                0x0000000080867588       0x20 arch/arm/cpu/armv7/start.o
 .rel.text.do_fixup_by_path
                0x00000000808675a8        0x8 arch/arm/cpu/armv7/start.o
 .rel.text.fdt_fixup_memory_banks
                0x00000000808675b0       0x38 arch/arm/cpu/armv7/start.o
 .rel.text.fdt_fixup_ethernet
                0x00000000808675e8       0x30 arch/arm/cpu/armv7/start.o
 .rel.text.fdt_record_loadable
                0x0000000080867618        0x0 arch/arm/cpu/armv7/start.o
 .rel.text.fdt_del_node_and_alias
                0x0000000080867618        0x0 arch/arm/cpu/armv7/start.o
 .rel.text.fdt_translate_address
                0x0000000080867618        0x8 arch/arm/cpu/armv7/start.o
 .rel.text.fdt_translate_dma_address
                0x0000000080867620        0x0 arch/arm/cpu/armv7/start.o
 .rel.text.fdt_node_offset_by_compat_reg
                0x0000000080867620        0x0 arch/arm/cpu/armv7/start.o
 .rel.text.fdt_set_phandle
                0x0000000080867620        0x0 arch/arm/cpu/armv7/start.o
 .rel.text.fdt_create_phandle
                0x0000000080867620        0x0 arch/arm/cpu/armv7/start.o
 .rel.text.fdt_set_node_status
                0x0000000080867620        0x0 arch/arm/cpu/armv7/start.o
 .rel.text.fdt_verify_alias_address
                0x0000000080867620        0x0 arch/arm/cpu/armv7/start.o
 .rel.text.fdt_get_base_address
                0x0000000080867620        0x0 arch/arm/cpu/armv7/start.o
 .rel.text.fdt_read_range
                0x0000000080867620        0x0 arch/arm/cpu/armv7/start.o
 .rel.text.fdt_setup_simplefb_node
                0x0000000080867620        0x0 arch/arm/cpu/armv7/start.o
 .rel.text.fdt_fixup_display
                0x0000000080867620        0x0 arch/arm/cpu/armv7/start.o
 .rel.text.fdt_overlay_apply_verbose
                0x0000000080867620       0x20 arch/arm/cpu/armv7/start.o
 .rel.text.miiphy_get_dev_by_name
                0x0000000080867640       0x10 arch/arm/cpu/armv7/start.o
 .rel.text.miiphy_init
                0x0000000080867650       0x10 arch/arm/cpu/armv7/start.o
 .rel.text.mdio_register
                0x0000000080867660       0x18 arch/arm/cpu/armv7/start.o
 .rel.text.mdio_register_seq
                0x0000000080867678        0x0 arch/arm/cpu/armv7/start.o
 .rel.text.mdio_unregister
                0x0000000080867678        0x0 arch/arm/cpu/armv7/start.o
 .rel.text.mdio_list_devices
                0x0000000080867678       0x28 arch/arm/cpu/armv7/start.o
 .rel.text.miiphy_set_current_dev
                0x00000000808676a0       0x10 arch/arm/cpu/armv7/start.o
 .rel.text.miiphy_get_active_dev
                0x00000000808676b0        0x8 arch/arm/cpu/armv7/start.o
 .rel.text.mdio_get_current_dev
                0x00000000808676b8        0x8 arch/arm/cpu/armv7/start.o
 .rel.text.mdio_get_list_head
                0x00000000808676c0        0x0 arch/arm/cpu/armv7/start.o
 .rel.text.mdio_phydev_for_ethname
                0x00000000808676c0       0x10 arch/arm/cpu/armv7/start.o
 .rel.text.miiphy_get_current_dev
                0x00000000808676d0        0x8 arch/arm/cpu/armv7/start.o
 .rel.text.miiphy_listdev
                0x00000000808676d8       0x30 arch/arm/cpu/armv7/start.o
 .rel.text.miiphy_is_1000base_x
                0x0000000080867708        0x8 arch/arm/cpu/armv7/start.o
 .rel.text.miiphy_speed
                0x0000000080867710       0x28 arch/arm/cpu/armv7/start.o
 .rel.text.miiphy_duplex
                0x0000000080867738       0x30 arch/arm/cpu/armv7/start.o
 .rel.text.get_descriptor_len
                0x0000000080867768       0x10 arch/arm/cpu/armv7/start.o
 .rel.text.usb_setup_descriptor
                0x0000000080867778       0x10 arch/arm/cpu/armv7/start.o
 .rel.text.usb_string_sub
                0x0000000080867788        0x8 arch/arm/cpu/armv7/start.o
 .rel.text.usb_get_configuration_len
                0x0000000080867790       0x10 arch/arm/cpu/armv7/start.o
 .rel.text.usb_set_interface
                0x00000000808677a0        0x8 arch/arm/cpu/armv7/start.o
 .rel.text.usb_select_config
                0x00000000808677a8       0x70 arch/arm/cpu/armv7/start.o
 .rel.text.usb_setup_device
                0x0000000080867818       0x10 arch/arm/cpu/armv7/start.o
 .rel.text.usb_find_usb2_hub_address_port
                0x0000000080867828        0x8 arch/arm/cpu/armv7/start.o
 .rel.text.usb_hub_port_connect_change
                0x0000000080867830        0x8 arch/arm/cpu/armv7/start.o
 .rel.text.usb_hub_configure
                0x0000000080867838       0x28 arch/arm/cpu/armv7/start.o
 .rel.text.usb_stor_BBB_transport
                0x0000000080867860       0x10 arch/arm/cpu/armv7/start.o
 .rel.text.usb_stor_CB_comdat
                0x0000000080867870        0x8 arch/arm/cpu/armv7/start.o
 .rel.text.usb_stor_CBI_get_status.isra.2
                0x0000000080867878        0x8 arch/arm/cpu/armv7/start.o
 .rel.text.usb_stor_CB_transport
                0x0000000080867880       0x10 arch/arm/cpu/armv7/start.o
 .rel.text.usb_request_sense.constprop.11
                0x0000000080867890        0x8 arch/arm/cpu/armv7/start.o
 .rel.text.usb_stor_read
                0x0000000080867898        0x8 arch/arm/cpu/armv7/start.o
 .rel.text.usb_stor_write
                0x00000000808678a0        0x8 arch/arm/cpu/armv7/start.o
 .rel.text.usb_stor_info
                0x00000000808678a8       0x10 arch/arm/cpu/armv7/start.o
 .rel.text.usb_stor_reset
                0x00000000808678b8        0x8 arch/arm/cpu/armv7/start.o
 .rel.text.usb_stor_scan
                0x00000000808678c0       0x18 arch/arm/cpu/armv7/start.o
 .rel.text.usb_storage_probe
                0x00000000808678d8       0x38 arch/arm/cpu/armv7/start.o
 .rel.text.usb_stor_get_info
                0x0000000080867910       0x20 arch/arm/cpu/armv7/start.o
 .rel.text.usb_mass_storage_probe
                0x0000000080867930       0x18 arch/arm/cpu/armv7/start.o
 .rel.text.menu_get_choice
                0x0000000080867948       0x18 arch/arm/cpu/armv7/start.o
 .rel.text.delete_char.part.0
                0x0000000080867960       0x10 arch/arm/cpu/armv7/start.o
 .rel.text.cread_add_char
                0x0000000080867970        0x8 arch/arm/cpu/armv7/start.o
 .rel.text.cli_readline_into_buffer
                0x0000000080867978       0x90 arch/arm/cpu/armv7/start.o
 .rel.text.cli_readline
                0x0000000080867a08        0x8 arch/arm/cpu/armv7/start.o
 .rel.text.cli_simple_parse_line
                0x0000000080867a10        0x0 arch/arm/cpu/armv7/start.o
 .rel.text.cli_simple_run_command
                0x0000000080867a10        0x0 arch/arm/cpu/armv7/start.o
 .rel.text.cli_simple_loop
                0x0000000080867a10        0x0 arch/arm/cpu/armv7/start.o
 .rel.text.console_setfile
                0x0000000080867a10       0x30 arch/arm/cpu/armv7/start.o
 .rel.text.fgetc.part.0
                0x0000000080867a40        0x8 arch/arm/cpu/armv7/start.o
 .rel.text.ftstc
                0x0000000080867a48        0x8 arch/arm/cpu/armv7/start.o
 .rel.text.fputc
                0x0000000080867a50        0x8 arch/arm/cpu/armv7/start.o
 .rel.text.fputs
                0x0000000080867a58        0x8 arch/arm/cpu/armv7/start.o
 .rel.text.ctrlc
                0x0000000080867a60       0x10 arch/arm/cpu/armv7/start.o
 .rel.text.confirm_yesno
                0x0000000080867a70        0x0 arch/arm/cpu/armv7/start.o
 .rel.text.disable_ctrlc
                0x0000000080867a70        0x8 arch/arm/cpu/armv7/start.o
 .rel.text.had_ctrlc
                0x0000000080867a78        0x8 arch/arm/cpu/armv7/start.o
 .rel.text.clear_ctrlc
                0x0000000080867a80        0x8 arch/arm/cpu/armv7/start.o
 .rel.text.on_console
                0x0000000080867a88       0x20 arch/arm/cpu/armv7/start.o
 .rel.text.console_announce_r
                0x0000000080867aa8        0x0 arch/arm/cpu/armv7/start.o
 .rel.text.stdio_print_current_devices
                0x0000000080867aa8        0x0 arch/arm/cpu/armv7/start.o
 .rel.text.console_init_r
                0x0000000080867aa8       0x10 arch/arm/cpu/armv7/start.o
 .rel.text.sbrk
                0x0000000080867ab8       0x18 arch/arm/cpu/armv7/start.o
 .rel.text.mem_malloc_init
                0x0000000080867ad0       0x18 arch/arm/cpu/armv7/start.o
 .rel.text.malloc_trim
                0x0000000080867ae8       0x18 arch/arm/cpu/armv7/start.o
 .rel.text.free
                0x0000000080867b00       0x20 arch/arm/cpu/armv7/start.o
 .rel.text.malloc
                0x0000000080867b20       0x48 arch/arm/cpu/armv7/start.o
 .rel.text.calloc
                0x0000000080867b68        0x8 arch/arm/cpu/armv7/start.o
 .rel.text.realloc
                0x0000000080867b70       0x10 arch/arm/cpu/armv7/start.o
 .rel.text.mallopt
                0x0000000080867b80        0x0 arch/arm/cpu/armv7/start.o
 .rel.text.on_loadaddr
                0x0000000080867b80        0x8 arch/arm/cpu/armv7/start.o
 .rel.text.env_get_bootm_low
                0x0000000080867b88        0x8 arch/arm/cpu/armv7/start.o
 .rel.text.env_get_bootm_size
                0x0000000080867b90       0x10 arch/arm/cpu/armv7/start.o
 .rel.text.env_get_bootm_mapsize
                0x0000000080867ba0        0x8 arch/arm/cpu/armv7/start.o
 .rel.text.genimg_print_size
                0x0000000080867ba8       0x10 arch/arm/cpu/armv7/start.o
 .rel.text.genimg_print_time
                0x0000000080867bb8        0x8 arch/arm/cpu/armv7/start.o
 .rel.text.genimg_get_short_name
                0x0000000080867bc0        0x0 arch/arm/cpu/armv7/start.o
 .rel.text.genimg_get_cat_name
                0x0000000080867bc0        0x0 arch/arm/cpu/armv7/start.o
 .rel.text.genimg_get_cat_short_name
                0x0000000080867bc0        0x0 arch/arm/cpu/armv7/start.o
 .rel.text.genimg_get_cat_count
                0x0000000080867bc0        0x0 arch/arm/cpu/armv7/start.o
 .rel.text.genimg_get_cat_desc
                0x0000000080867bc0        0x0 arch/arm/cpu/armv7/start.o
 .rel.text.genimg_get_os_name
                0x0000000080867bc0       0x10 arch/arm/cpu/armv7/start.o
 .rel.text.genimg_get_arch_name
                0x0000000080867bd0       0x10 arch/arm/cpu/armv7/start.o
 .rel.text.genimg_get_type_name
                0x0000000080867be0       0x10 arch/arm/cpu/armv7/start.o
 .rel.text.image_decomp
                0x0000000080867bf0       0x28 arch/arm/cpu/armv7/start.o
 .rel.text.genimg_get_type_short_name
                0x0000000080867c18        0x0 arch/arm/cpu/armv7/start.o
 .rel.text.genimg_get_comp_name
                0x0000000080867c18       0x10 arch/arm/cpu/armv7/start.o
 .rel.text.image_print_contents
                0x0000000080867c28        0x0 arch/arm/cpu/armv7/start.o
 .rel.text.genimg_get_comp_short_name
                0x0000000080867c28        0x0 arch/arm/cpu/armv7/start.o
 .rel.text.genimg_get_os_short_name
                0x0000000080867c28        0x0 arch/arm/cpu/armv7/start.o
 .rel.text.genimg_get_arch_short_name
                0x0000000080867c28        0x0 arch/arm/cpu/armv7/start.o
 .rel.text.genimg_get_os_id
                0x0000000080867c28       0x10 arch/arm/cpu/armv7/start.o
 .rel.text.genimg_get_arch_id
                0x0000000080867c38       0x10 arch/arm/cpu/armv7/start.o
 .rel.text.genimg_get_type_id
                0x0000000080867c48       0x10 arch/arm/cpu/armv7/start.o
 .rel.text.genimg_get_comp_id
                0x0000000080867c58       0x10 arch/arm/cpu/armv7/start.o
 .rel.text.genimg_get_kernel_addr_fit
                0x0000000080867c68        0x8 arch/arm/cpu/armv7/start.o
 .rel.text.boot_get_ramdisk
                0x0000000080867c70       0x30 arch/arm/cpu/armv7/start.o
 .rel.text.boot_ramdisk_high
                0x0000000080867ca0       0x20 arch/arm/cpu/armv7/start.o
 .rel.text.boot_get_loadable
                0x0000000080867cc0       0x20 arch/arm/cpu/armv7/start.o
 .rel.text.android_image_get_kernel
                0x0000000080867ce0       0x38 arch/arm/cpu/armv7/start.o
 .rel.text.android_image_check_header
                0x0000000080867d18        0x8 arch/arm/cpu/armv7/start.o
 .rel.text.android_image_get_ramdisk
                0x0000000080867d20        0x8 arch/arm/cpu/armv7/start.o
 .rel.text.android_image_get_second
                0x0000000080867d28        0x8 arch/arm/cpu/armv7/start.o
 .rel.text.android_print_contents
                0x0000000080867d30       0x60 arch/arm/cpu/armv7/start.o
 .rel.text.fdt_error
                0x0000000080867d90       0x10 arch/arm/cpu/armv7/start.o
 .rel.text.boot_fdt_add_mem_rsv_regions
                0x0000000080867da0       0x20 arch/arm/cpu/armv7/start.o
 .rel.text.boot_relocate_fdt
                0x0000000080867dc0       0x40 arch/arm/cpu/armv7/start.o
 .rel.text.boot_get_fdt
                0x0000000080867e00       0x50 arch/arm/cpu/armv7/start.o
 .rel.text.image_setup_libfdt
                0x0000000080867e50       0x20 arch/arm/cpu/armv7/start.o
 .rel.text.fit_image_get_address
                0x0000000080867e70        0x8 arch/arm/cpu/armv7/start.o
 .rel.text.fit_get_desc
                0x0000000080867e78        0x8 arch/arm/cpu/armv7/start.o
 .rel.text.fit_get_timestamp
                0x0000000080867e80        0x8 arch/arm/cpu/armv7/start.o
 .rel.text.fit_image_get_node
                0x0000000080867e88        0x8 arch/arm/cpu/armv7/start.o
 .rel.text.fit_image_get_os
                0x0000000080867e90        0x8 arch/arm/cpu/armv7/start.o
 .rel.text.fit_image_get_arch
                0x0000000080867e98        0x8 arch/arm/cpu/armv7/start.o
 .rel.text.fit_image_get_type
                0x0000000080867ea0        0x8 arch/arm/cpu/armv7/start.o
 .rel.text.fit_image_get_comp
                0x0000000080867ea8        0x8 arch/arm/cpu/armv7/start.o
 .rel.text.fit_image_get_load
                0x0000000080867eb0        0x8 arch/arm/cpu/armv7/start.o
 .rel.text.fit_image_get_entry
                0x0000000080867eb8        0x8 arch/arm/cpu/armv7/start.o
 .rel.text.fit_image_get_data
                0x0000000080867ec0        0x8 arch/arm/cpu/armv7/start.o
 .rel.text.fit_image_get_data_offset
                0x0000000080867ec8        0x8 arch/arm/cpu/armv7/start.o
 .rel.text.fit_image_get_data_position
                0x0000000080867ed0        0x8 arch/arm/cpu/armv7/start.o
 .rel.text.fit_image_get_data_size
                0x0000000080867ed8        0x8 arch/arm/cpu/armv7/start.o
 .rel.text.fit_image_hash_get_algo
                0x0000000080867ee0        0x8 arch/arm/cpu/armv7/start.o
 .rel.text.fit_image_hash_get_value
                0x0000000080867ee8        0x8 arch/arm/cpu/armv7/start.o
 .rel.text.fit_image_print_data
                0x0000000080867ef0       0x70 arch/arm/cpu/armv7/start.o
 .rel.text.fit_image_print_verification_data
                0x0000000080867f60       0x20 arch/arm/cpu/armv7/start.o
 .rel.text.fit_image_print
                0x0000000080867f80       0x70 arch/arm/cpu/armv7/start.o
 .rel.text.fit_print_contents
                0x0000000080867ff0       0xd0 arch/arm/cpu/armv7/start.o
 .rel.text.fit_set_timestamp
                0x00000000808680c0        0x0 arch/arm/cpu/armv7/start.o
 .rel.text.calculate_hash
                0x00000000808680c0       0x20 arch/arm/cpu/armv7/start.o
 .rel.text.fit_image_verify_with_data
                0x00000000808680e0       0x80 arch/arm/cpu/armv7/start.o
 .rel.text.fit_image_verify
                0x0000000080868160       0x10 arch/arm/cpu/armv7/start.o
 .rel.text.fit_all_image_verify
                0x0000000080868170       0x28 arch/arm/cpu/armv7/start.o
 .rel.text.fit_check_format
                0x0000000080868198       0x18 arch/arm/cpu/armv7/start.o
 .rel.text.fit_conf_find_compat
                0x00000000808681b0        0x0 arch/arm/cpu/armv7/start.o
 .rel.text.fit_conf_get_node
                0x00000000808681b0       0x10 arch/arm/cpu/armv7/start.o
 .rel.text.fit_image_load
                0x00000000808681c0       0xa8 arch/arm/cpu/armv7/start.o
 .rel.text.boot_get_setup_fit
                0x0000000080868268        0x8 arch/arm/cpu/armv7/start.o
 .rel.text.boot_get_fdt_fit
                0x0000000080868270       0x20 arch/arm/cpu/armv7/start.o
 .rel.text.image_get_checksum_algo
                0x0000000080868290        0x8 arch/arm/cpu/armv7/start.o
 .rel.text.image_get_crypto_algo
                0x0000000080868298        0x8 arch/arm/cpu/armv7/start.o
 .rel.text.image_get_padding_algo
                0x00000000808682a0        0x8 arch/arm/cpu/armv7/start.o
 .rel.text.fit_image_setup_verify
                0x00000000808682a8       0x38 arch/arm/cpu/armv7/start.o
 .rel.text.fit_image_check_sig
                0x00000000808682e0       0x10 arch/arm/cpu/armv7/start.o
 .rel.text.fit_image_verify_required_sigs
                0x00000000808682f0       0x48 arch/arm/cpu/armv7/start.o
 .rel.text.fit_config_check_sig
                0x0000000080868338       0x58 arch/arm/cpu/armv7/start.o
 .rel.text.fit_config_verify_required_sigs
                0x0000000080868390       0x48 arch/arm/cpu/armv7/start.o
 .rel.text.stdio_get_list
                0x00000000808683d8        0x8 arch/arm/cpu/armv7/start.o
 .rel.text.stdio_get_by_name
                0x00000000808683e0        0x8 arch/arm/cpu/armv7/start.o
 .rel.text.stdio_register_dev
                0x00000000808683e8        0x8 arch/arm/cpu/armv7/start.o
 .rel.text.stdio_init_tables
                0x00000000808683f0        0x8 arch/arm/cpu/armv7/start.o
 .rel.text.stdio_add_devices
                0x00000000808683f8       0x28 arch/arm/cpu/armv7/start.o
 .rel.text.do_run
                0x0000000080868420        0x8 arch/arm/cpu/armv7/start.o
 .rel.text.cli_process_fdt
                0x0000000080868428       0x10 arch/arm/cpu/armv7/start.o
 .rel.text.cli_secure_boot_cmd
                0x0000000080868438       0x18 arch/arm/cpu/armv7/start.o
 .rel.text.run_usb_dnl_gadget
                0x0000000080868450       0x20 arch/arm/cpu/armv7/start.o
 .rel.text.find_cmd
                0x0000000080868470       0x10 arch/arm/cpu/armv7/start.o
 .rel.text.cmd_usage
                0x0000000080868480       0x18 arch/arm/cpu/armv7/start.o
 .rel.text._do_help
                0x0000000080868498       0x10 arch/arm/cpu/armv7/start.o
 .rel.text.var_complete
                0x00000000808684a8       0x10 arch/arm/cpu/armv7/start.o
 .rel.text.complete_subcmdv
                0x00000000808684b8        0x8 arch/arm/cpu/armv7/start.o
 .rel.text.cmd_auto_complete
                0x00000000808684c0       0x40 arch/arm/cpu/armv7/start.o
 .rel.text.cmd_get_data_size
                0x0000000080868500        0x8 arch/arm/cpu/armv7/start.o
 .rel.text.cmd_process
                0x0000000080868508       0x38 arch/arm/cpu/armv7/start.o
 .rel.text.cmd_process_error
                0x0000000080868540        0x8 arch/arm/cpu/armv7/start.o
 .rel.text.xyzModem_get_hdr
                0x0000000080868548       0x30 arch/arm/cpu/armv7/start.o
 .rel.text.xyzModem_stream_open
                0x0000000080868578       0x10 arch/arm/cpu/armv7/start.o
 .rel.text.xyzModem_stream_read
                0x0000000080868588        0x8 arch/arm/cpu/armv7/start.o
 .rel.text.xyzModem_stream_close
                0x0000000080868590       0x20 arch/arm/cpu/armv7/start.o
 .rel.text.xyzModem_stream_terminate
                0x00000000808685b0        0x8 arch/arm/cpu/armv7/start.o
 .rel.text.xyzModem_error
                0x00000000808685b8       0x10 arch/arm/cpu/armv7/start.o
 .rel.rodata.init_sequence_f
                0x00000000808685c8      0x160 arch/arm/cpu/armv7/start.o
 .rel.rodata.boot_os
                0x0000000080868728       0x38 arch/arm/cpu/armv7/start.o
 .rel.rodata.usb_hub_ids
                0x0000000080868760        0x8 arch/arm/cpu/armv7/start.o
 .rel.rodata.usb_mass_storage_ids
                0x0000000080868768        0x8 arch/arm/cpu/armv7/start.o
 .rel.rodata.usb_storage_ops
                0x0000000080868770       0x10 arch/arm/cpu/armv7/start.o
 .rel.rodata.table_info
                0x0000000080868780        0x0 arch/arm/cpu/armv7/start.o
 .rel.rodata.uimage_arch
                0x0000000080868780      0x1b0 arch/arm/cpu/armv7/start.o
 .rel.rodata.uimage_comp
                0x0000000080868930       0x70 arch/arm/cpu/armv7/start.o
 .rel.rodata.uimage_os
                0x00000000808689a0       0xd0 arch/arm/cpu/armv7/start.o
 .rel.rodata.uimage_type
                0x0000000080868a70      0x280 arch/arm/cpu/armv7/start.o
 .rel.rodata.CSWTCH.202
                0x0000000080868cf0       0xe8 arch/arm/cpu/armv7/start.o
 .rel.rodata.CSWTCH.32
                0x0000000080868dd8       0x40 arch/arm/cpu/armv7/start.o
 .rel.data.hash_algo
                0x0000000080868e18       0xa0 arch/arm/cpu/armv7/start.o
 .rel.data.reserved_list
                0x0000000080868eb8       0x58 arch/arm/cpu/armv7/start.o
 .rel.u_boot_list_2_cmd_2_showvar
                0x0000000080868f10       0x28 arch/arm/cpu/armv7/start.o
 .rel.data.init_sequence_r
                0x0000000080868f38       0xf0 arch/arm/cpu/armv7/start.o
 .rel.data.of_busses
                0x0000000080869028       0x28 arch/arm/cpu/armv7/start.o
 .rel.data.usb_scan_list
                0x0000000080869050       0x10 arch/arm/cpu/armv7/start.o
 .rel.u_boot_list_2_driver_2_usb_generic_hub
                0x0000000080869060       0x10 arch/arm/cpu/armv7/start.o
 .rel.u_boot_list_2_uclass_2_usb_hub
                0x0000000080869070       0x20 arch/arm/cpu/armv7/start.o
 .rel.u_boot_list_2_usb_driver_entry_2_usb_generic_hub
                0x0000000080869090       0x10 arch/arm/cpu/armv7/start.o
 .rel.u_boot_list_2_driver_2_usb_mass_storage
                0x00000000808690a0       0x18 arch/arm/cpu/armv7/start.o
 .rel.u_boot_list_2_driver_2_usb_storage_blk
                0x00000000808690b8       0x10 arch/arm/cpu/armv7/start.o
 .rel.u_boot_list_2_uclass_2_usb_mass_storage
                0x00000000808690c8        0x8 arch/arm/cpu/armv7/start.o
 .rel.u_boot_list_2_usb_driver_entry_2_usb_mass_storage
                0x00000000808690d0       0x10 arch/arm/cpu/armv7/start.o
 .rel.u_boot_list_2_env_clbk_2_console
                0x00000000808690e0       0x10 arch/arm/cpu/armv7/start.o
 .rel.data.av_  0x00000000808690f0      0x800 arch/arm/cpu/armv7/start.o
 .rel.u_boot_list_2_env_clbk_2_loadaddr
                0x00000000808698f0       0x10 arch/arm/cpu/armv7/start.o
 .rel.data.checksum_algos
                0x0000000080869900       0x30 arch/arm/cpu/armv7/start.o
 .rel.data.crypto_algos
                0x0000000080869930       0x40 arch/arm/cpu/armv7/start.o
 .rel.data.padding_algos
                0x0000000080869970       0x10 arch/arm/cpu/armv7/start.o
 .rel.data.stdio_names
                0x0000000080869980       0x18 arch/arm/cpu/armv7/start.o
 .rel.text.part_driver_lookup_type
                0x0000000080869998       0x10 arch/arm/cpu/armv7/start.o
 .rel.text.dev_print
                0x00000000808699a8       0x90 arch/arm/cpu/armv7/start.o
 .rel.text.part_init
                0x0000000080869a38       0x10 arch/arm/cpu/armv7/start.o
 .rel.text.part_print
                0x0000000080869a48       0x70 arch/arm/cpu/armv7/start.o
 .rel.text.part_get_info_whole_disk
                0x0000000080869ab8       0x10 arch/arm/cpu/armv7/start.o
 .rel.text.blk_get_device_by_str
                0x0000000080869ac8       0x10 arch/arm/cpu/armv7/start.o
 .rel.text.blk_get_device_part_str
                0x0000000080869ad8       0x58 arch/arm/cpu/armv7/start.o
 .rel.text.part_get_info_by_dev_and_name_or_num
                0x0000000080869b30        0x0 arch/arm/cpu/armv7/start.o
 .rel.text.part_set_generic_name
                0x0000000080869b30       0x18 arch/arm/cpu/armv7/start.o
 .rel.text.test_block_type
                0x0000000080869b48       0x10 arch/arm/cpu/armv7/start.o
 .rel.text.print_partition_extended
                0x0000000080869b58       0x38 arch/arm/cpu/armv7/start.o
 .rel.text.part_print_dos
                0x0000000080869b90        0x8 arch/arm/cpu/armv7/start.o
 .rel.text.part_get_info_extended
                0x0000000080869b98       0x28 arch/arm/cpu/armv7/start.o
 .rel.text.write_mbr_partition
                0x0000000080869bc0        0x0 arch/arm/cpu/armv7/start.o
 .rel.text.part_get_info_iso_verb
                0x0000000080869bc0       0x78 arch/arm/cpu/armv7/start.o
 .rel.text.part_print_iso
                0x0000000080869c38       0x18 arch/arm/cpu/armv7/start.o
 .rel.text.print_efiname
                0x0000000080869c50       0x10 arch/arm/cpu/armv7/start.o
 .rel.text.validate_gpt_entries
                0x0000000080869c60       0x10 arch/arm/cpu/armv7/start.o
 .rel.text.validate_gpt_header
                0x0000000080869c70       0x30 arch/arm/cpu/armv7/start.o
 .rel.text.is_gpt_valid
                0x0000000080869ca0       0x40 arch/arm/cpu/armv7/start.o
 .rel.text.is_pte_valid
                0x0000000080869ce0       0x10 arch/arm/cpu/armv7/start.o
 .rel.text.find_valid_gpt
                0x0000000080869cf0       0x20 arch/arm/cpu/armv7/start.o
 .rel.text.part_print_efi
                0x0000000080869d10       0x40 arch/arm/cpu/armv7/start.o
 .rel.text.part_get_info_efi
                0x0000000080869d50       0x28 arch/arm/cpu/armv7/start.o
 .rel.text.write_gpt_table
                0x0000000080869d78       0x20 arch/arm/cpu/armv7/start.o
 .rel.text.gpt_fill_pte
                0x0000000080869d98       0x20 arch/arm/cpu/armv7/start.o
 .rel.text.gpt_fill_header
                0x0000000080869db8        0x8 arch/arm/cpu/armv7/start.o
 .rel.text.gpt_restore
                0x0000000080869dc0       0x10 arch/arm/cpu/armv7/start.o
 .rel.text.gpt_verify_headers
                0x0000000080869dd0       0x18 arch/arm/cpu/armv7/start.o
 .rel.text.gpt_verify_partitions
                0x0000000080869de8       0x20 arch/arm/cpu/armv7/start.o
 .rel.text.write_mbr_and_gpt_partitions
                0x0000000080869e08        0x0 arch/arm/cpu/armv7/start.o
 .rel.rodata.CSWTCH.40
                0x0000000080869e08       0x40 arch/arm/cpu/armv7/start.o
 .rel.u_boot_list_2_part_driver_2_dos
                0x0000000080869e48       0x20 arch/arm/cpu/armv7/start.o
 .rel.u_boot_list_2_part_driver_2_iso
                0x0000000080869e68       0x20 arch/arm/cpu/armv7/start.o
 .rel.u_boot_list_2_part_driver_2_a_efi
                0x0000000080869e88       0x20 arch/arm/cpu/armv7/start.o
 .rel.text.device_bind_common.isra.0
                0x0000000080869ea8       0x10 arch/arm/cpu/armv7/start.o
 .rel.text.device_probe
                0x0000000080869eb8       0x10 arch/arm/cpu/armv7/start.o
 .rel.text.dev_get_platdata
                0x0000000080869ec8       0x10 arch/arm/cpu/armv7/start.o
 .rel.text.dev_get_parent_platdata
                0x0000000080869ed8       0x10 arch/arm/cpu/armv7/start.o
 .rel.text.dev_get_uclass_platdata
                0x0000000080869ee8       0x10 arch/arm/cpu/armv7/start.o
 .rel.text.dev_get_priv
                0x0000000080869ef8       0x10 arch/arm/cpu/armv7/start.o
 .rel.text.dev_get_uclass_priv
                0x0000000080869f08       0x10 arch/arm/cpu/armv7/start.o
 .rel.text.dev_get_parent_priv
                0x0000000080869f18       0x10 arch/arm/cpu/armv7/start.o
 .rel.text.devfdt_get_addr_index
                0x0000000080869f28        0x8 arch/arm/cpu/armv7/start.o
 .rel.text.devfdt_get_addr_size_index
                0x0000000080869f30        0x0 arch/arm/cpu/armv7/start.o
 .rel.text.devfdt_get_addr_name
                0x0000000080869f30        0x0 arch/arm/cpu/armv7/start.o
 .rel.text.devfdt_get_addr_size_name
                0x0000000080869f30        0x0 arch/arm/cpu/armv7/start.o
 .rel.text.lists_driver_lookup_name
                0x0000000080869f30       0x10 arch/arm/cpu/armv7/start.o
 .rel.text.lists_uclass_lookup
                0x0000000080869f40       0x10 arch/arm/cpu/armv7/start.o
 .rel.text.lists_bind_drivers
                0x0000000080869f50       0x18 arch/arm/cpu/armv7/start.o
 .rel.text.lists_bind_fdt
                0x0000000080869f68       0x28 arch/arm/cpu/armv7/start.o
 .rel.text.dm_scan_fdt_node
                0x0000000080869f90       0x18 arch/arm/cpu/armv7/start.o
 .rel.text.dm_root
                0x0000000080869fa8        0x8 arch/arm/cpu/armv7/start.o
 .rel.text.dm_init
                0x0000000080869fb0       0x10 arch/arm/cpu/armv7/start.o
 .rel.text.dm_scan_platdata
                0x0000000080869fc0        0x8 arch/arm/cpu/armv7/start.o
 .rel.text.dm_extended_scan_fdt
                0x0000000080869fc8       0x10 arch/arm/cpu/armv7/start.o
 .rel.text.uclass_resolve_seq
                0x0000000080869fd8        0x8 arch/arm/cpu/armv7/start.o
 .rel.text.dm_ofnode_pre_reloc
                0x0000000080869fe0       0x20 arch/arm/cpu/armv7/start.o
 .rel.text.device_remove
                0x000000008086a000       0x20 arch/arm/cpu/armv7/start.o
 .rel.text.simple_bus_post_bind
                0x000000008086a020        0x8 arch/arm/cpu/armv7/start.o
 .rel.text.show_devices
                0x000000008086a028       0x30 arch/arm/cpu/armv7/start.o
 .rel.text.dm_dump_all
                0x000000008086a058       0x10 arch/arm/cpu/armv7/start.o
 .rel.text.dm_dump_uclass
                0x000000008086a068       0x20 arch/arm/cpu/armv7/start.o
 .rel.text.ofnode_read_fmap_entry
                0x000000008086a088        0x0 arch/arm/cpu/armv7/start.o
 .rel.text.ofnode_decode_memory_region
                0x000000008086a088        0x0 arch/arm/cpu/armv7/start.o
 .rel.text.ofnode_get_chosen_prop
                0x000000008086a088        0x8 arch/arm/cpu/armv7/start.o
 .rel.text.ofnode_decode_display_timing
                0x000000008086a090        0x0 arch/arm/cpu/armv7/start.o
 .rel.text.ofnode_read_pci_vendev
                0x000000008086a090        0x0 arch/arm/cpu/armv7/start.o
 .rel.text.ofnode_get_addr_size_index
                0x000000008086a090        0x0 arch/arm/cpu/armv7/start.o
 .rel.text.ofnode_pre_reloc
                0x000000008086a090        0x0 arch/arm/cpu/armv7/start.o
 .rel.text.ofnode_read_resource
                0x000000008086a090        0x0 arch/arm/cpu/armv7/start.o
 .rel.text.ofnode_read_resource_byname
                0x000000008086a090        0x0 arch/arm/cpu/armv7/start.o
 .rel.text.dfu_write_buffer_drain
                0x000000008086a090       0x10 arch/arm/cpu/armv7/start.o
 .rel.text.dfu_free_buf
                0x000000008086a0a0        0x8 arch/arm/cpu/armv7/start.o
 .rel.text.dfu_get_buf_size
                0x000000008086a0a8        0x8 arch/arm/cpu/armv7/start.o
 .rel.text.dfu_get_buf
                0x000000008086a0b0       0x28 arch/arm/cpu/armv7/start.o
 .rel.text.dfu_transaction_initiate
                0x000000008086a0d8        0x8 arch/arm/cpu/armv7/start.o
 .rel.text.dfu_flush
                0x000000008086a0e0       0x10 arch/arm/cpu/armv7/start.o
 .rel.text.dfu_write
                0x000000008086a0f0       0x18 arch/arm/cpu/armv7/start.o
 .rel.text.dfu_read
                0x000000008086a108       0x30 arch/arm/cpu/armv7/start.o
 .rel.text.dfu_free_entities
                0x000000008086a138       0x10 arch/arm/cpu/armv7/start.o
 .rel.text.dfu_config_entities
                0x000000008086a148       0x90 arch/arm/cpu/armv7/start.o
 .rel.text.dfu_init_env_entities
                0x000000008086a1d8       0x20 arch/arm/cpu/armv7/start.o
 .rel.text.dfu_get_dev_type
                0x000000008086a1f8        0x8 arch/arm/cpu/armv7/start.o
 .rel.text.dfu_get_layout
                0x000000008086a200        0x8 arch/arm/cpu/armv7/start.o
 .rel.text.dfu_show_entities
                0x000000008086a208       0x18 arch/arm/cpu/armv7/start.o
 .rel.text.dfu_get_alt_number
                0x000000008086a220        0x8 arch/arm/cpu/armv7/start.o
 .rel.text.dfu_get_entity
                0x000000008086a228        0x8 arch/arm/cpu/armv7/start.o
 .rel.text.dfu_get_alt
                0x000000008086a230        0x0 arch/arm/cpu/armv7/start.o
 .rel.text.dfu_write_from_mem_addr
                0x000000008086a230        0x0 arch/arm/cpu/armv7/start.o
 .rel.text.mmc_block_op
                0x000000008086a230       0x18 arch/arm/cpu/armv7/start.o
 .rel.text.mmc_file_op
                0x000000008086a248       0x40 arch/arm/cpu/armv7/start.o
 .rel.text.dfu_free_entity_mmc
                0x000000008086a288        0x8 arch/arm/cpu/armv7/start.o
 .rel.text.dfu_write_medium_mmc
                0x000000008086a290       0x20 arch/arm/cpu/armv7/start.o
 .rel.text.dfu_flush_medium_mmc
                0x000000008086a2b0       0x10 arch/arm/cpu/armv7/start.o
 .rel.text.dfu_get_medium_size_mmc
                0x000000008086a2c0       0x18 arch/arm/cpu/armv7/start.o
 .rel.text.dfu_read_medium_mmc
                0x000000008086a2d8       0x20 arch/arm/cpu/armv7/start.o
 .rel.text.dfu_fill_entity_mmc
                0x000000008086a2f8       0x90 arch/arm/cpu/armv7/start.o
 .rel.text.dfu_write_medium_ram
                0x000000008086a388       0x10 arch/arm/cpu/armv7/start.o
 .rel.text.dfu_read_medium_ram
                0x000000008086a398       0x10 arch/arm/cpu/armv7/start.o
 .rel.text.dfu_fill_entity_ram
                0x000000008086a3a8       0x38 arch/arm/cpu/armv7/start.o
 .rel.text._input_send_keycodes
                0x000000008086a3e0        0x0 arch/arm/cpu/armv7/start.o
 .rel.text.input_add_tables
                0x000000008086a3e0        0x0 arch/arm/cpu/armv7/start.o
 .rel.text.input_stdio_register
                0x000000008086a3e0        0x0 arch/arm/cpu/armv7/start.o
 .rel.text.key_matrix_decode_fdt
                0x000000008086a3e0        0x0 arch/arm/cpu/armv7/start.o
 .rel.text.timer_pre_probe
                0x000000008086a3e0        0x8 arch/arm/cpu/armv7/start.o
 .rel.text.dm_timer_init
                0x000000008086a3e8        0x8 arch/arm/cpu/armv7/start.o
 .rel.text.blk_get_if_type_name
                0x000000008086a3f0        0x8 arch/arm/cpu/armv7/start.o
 .rel.text.blk_get_devnum_by_typename
                0x000000008086a3f8       0x10 arch/arm/cpu/armv7/start.o
 .rel.text.blk_list_devices
                0x000000008086a408        0x8 arch/arm/cpu/armv7/start.o
 .rel.text.blk_print_device_num
                0x000000008086a410        0x8 arch/arm/cpu/armv7/start.o
 .rel.text.blk_show_device
                0x000000008086a418       0x10 arch/arm/cpu/armv7/start.o
 .rel.text.blk_create_devicef
                0x000000008086a428        0x8 arch/arm/cpu/armv7/start.o
 .rel.text.blkcache_read
                0x000000008086a430       0x10 arch/arm/cpu/armv7/start.o
 .rel.text.blkcache_fill
                0x000000008086a440       0x10 arch/arm/cpu/armv7/start.o
 .rel.text.blkcache_invalidate
                0x000000008086a450       0x10 arch/arm/cpu/armv7/start.o
 .rel.text.blkcache_configure
                0x000000008086a460       0x10 arch/arm/cpu/armv7/start.o
 .rel.text.blkcache_stats
                0x000000008086a470        0x8 arch/arm/cpu/armv7/start.o
 .rel.text.fastboot_fail
                0x000000008086a478       0x10 arch/arm/cpu/armv7/start.o
 .rel.text.fastboot_okay
                0x000000008086a488       0x10 arch/arm/cpu/armv7/start.o
 .rel.text.fastboot_get_progress_callback
                0x000000008086a498        0x0 arch/arm/cpu/armv7/start.o
 .rel.text.fastboot_boot
                0x000000008086a498       0x30 arch/arm/cpu/armv7/start.o
 .rel.text.fastboot_set_progress_callback
                0x000000008086a4c8        0x0 arch/arm/cpu/armv7/start.o
 .rel.text.fastboot_init
                0x000000008086a4c8       0x18 arch/arm/cpu/armv7/start.o
 .rel.text.getvar_downloadsize
                0x000000008086a4e0       0x18 arch/arm/cpu/armv7/start.o
 .rel.text.getvar_is_userspace
                0x000000008086a4f8        0x8 arch/arm/cpu/armv7/start.o
 .rel.text.getvar_current_slot
                0x000000008086a500        0x8 arch/arm/cpu/armv7/start.o
 .rel.text.getvar_platform
                0x000000008086a508       0x10 arch/arm/cpu/armv7/start.o
 .rel.text.getvar_product
                0x000000008086a518       0x10 arch/arm/cpu/armv7/start.o
 .rel.text.getvar_version_baseband
                0x000000008086a528        0x8 arch/arm/cpu/armv7/start.o
 .rel.text.getvar_serialno
                0x000000008086a530       0x10 arch/arm/cpu/armv7/start.o
 .rel.text.getvar_version_bootloader
                0x000000008086a540        0x8 arch/arm/cpu/armv7/start.o
 .rel.text.getvar_version
                0x000000008086a548        0x8 arch/arm/cpu/armv7/start.o
 .rel.text.fastboot_getvar
                0x000000008086a550       0x38 arch/arm/cpu/armv7/start.o
 .rel.text.reboot_bootloader
                0x000000008086a588        0x8 arch/arm/cpu/armv7/start.o
 .rel.text.download
                0x000000008086a590       0x40 arch/arm/cpu/armv7/start.o
 .rel.text.fastboot_handle_command
                0x000000008086a5d0       0x20 arch/arm/cpu/armv7/start.o
 .rel.text.fastboot_data_remaining
                0x000000008086a5f0       0x10 arch/arm/cpu/armv7/start.o
 .rel.text.fastboot_data_download
                0x000000008086a600       0x20 arch/arm/cpu/armv7/start.o
 .rel.text.fastboot_data_complete
                0x000000008086a620       0x20 arch/arm/cpu/armv7/start.o
 .rel.text.mmc_mode_name
                0x000000008086a640       0x10 arch/arm/cpu/armv7/start.o
 .rel.text.mmc_poll_for_busy
                0x000000008086a650       0x10 arch/arm/cpu/armv7/start.o
 .rel.text.mmc_bread
                0x000000008086a660       0x10 arch/arm/cpu/armv7/start.o
 .rel.text.mmc_startup_v4
                0x000000008086a670        0x8 arch/arm/cpu/armv7/start.o
 .rel.text.mmc_hwpart_config
                0x000000008086a678       0x48 arch/arm/cpu/armv7/start.o
 .rel.text.mmc_startup
                0x000000008086a6c0       0xa8 arch/arm/cpu/armv7/start.o
 .rel.text.mmc_get_op_cond
                0x000000008086a768        0x8 arch/arm/cpu/armv7/start.o
 .rel.text.mmc_start_init
                0x000000008086a770        0x8 arch/arm/cpu/armv7/start.o
 .rel.text.mmc_initialize
                0x000000008086a778       0x10 arch/arm/cpu/armv7/start.o
 .rel.text.mmc_of_parse
                0x000000008086a788       0xa8 arch/arm/cpu/armv7/start.o
 .rel.text.find_mmc_device
                0x000000008086a830        0x8 arch/arm/cpu/armv7/start.o
 .rel.text.print_mmc_devices
                0x000000008086a838       0x38 arch/arm/cpu/armv7/start.o
 .rel.text.mmc_bind
                0x000000008086a870       0x10 arch/arm/cpu/armv7/start.o
 .rel.text.mmc_berase
                0x000000008086a880       0x10 arch/arm/cpu/armv7/start.o
 .rel.text.mmc_bwrite
                0x000000008086a890       0x18 arch/arm/cpu/armv7/start.o
 .rel.text.mmc_reset_controller_fsm
                0x000000008086a8a8       0x10 arch/arm/cpu/armv7/start.o
 .rel.text.omap_hsmmc_ofdata_to_platdata
                0x000000008086a8b8       0x10 arch/arm/cpu/armv7/start.o
 .rel.text.omap_hsmmc_send_cmd
                0x000000008086a8c8       0x30 arch/arm/cpu/armv7/start.o
 .rel.text.omap_hsmmc_set_ios
                0x000000008086a8f8       0x10 arch/arm/cpu/armv7/start.o
 .rel.text.omap_hsmmc_probe
                0x000000008086a908       0x38 arch/arm/cpu/armv7/start.o
 .rel.text.mmc_init_stream
                0x000000008086a940        0x0 arch/arm/cpu/armv7/start.o
 .rel.text.rtc_calc_weekday
                0x000000008086a940        0x0 arch/arm/cpu/armv7/start.o
 .rel.text.rtc_month_days
                0x000000008086a940        0x8 arch/arm/cpu/armv7/start.o
 .rel.rodata.root_info
                0x000000008086a948        0x8 arch/arm/cpu/armv7/start.o
 .rel.rodata.generic_simple_bus_ids
                0x000000008086a950       0x10 arch/arm/cpu/armv7/start.o
 .rel.rodata.kbd_to_ansi364
                0x000000008086a960        0x0 arch/arm/cpu/armv7/start.o
 .rel.rodata.omap_timer_ids
                0x000000008086a960       0x18 arch/arm/cpu/armv7/start.o
 .rel.rodata.omap_timer_ops
                0x000000008086a978        0x8 arch/arm/cpu/armv7/start.o
 .rel.rodata.if_typename_str
                0x000000008086a980       0x60 arch/arm/cpu/armv7/start.o
 .rel.rodata.mod_exp_ops_sw
                0x000000008086a9e0        0x8 arch/arm/cpu/armv7/start.o
 .rel.rodata.bootm_args.9201
                0x000000008086a9e8       0x10 arch/arm/cpu/armv7/start.o
 .rel.rodata.getvar_dispatch
                0x000000008086a9f8       0xa0 arch/arm/cpu/armv7/start.o
 .rel.rodata.commands
                0x000000008086aa98       0x70 arch/arm/cpu/armv7/start.o
 .rel.rodata.names.10692
                0x000000008086ab08       0x70 arch/arm/cpu/armv7/start.o
 .rel.rodata.mmc_blk_ops
                0x000000008086ab78       0x20 arch/arm/cpu/armv7/start.o
 .rel.rodata.omap_hsmmc_ids
                0x000000008086ab98       0x28 arch/arm/cpu/armv7/start.o
 .rel.rodata.omap_hsmmc_ops
                0x000000008086abc0       0x28 arch/arm/cpu/armv7/start.o
 .rel.u_boot_list_2_driver_2_root_driver
                0x000000008086abe8        0x8 arch/arm/cpu/armv7/start.o
 .rel.u_boot_list_2_uclass_2_root
                0x000000008086abf0        0x8 arch/arm/cpu/armv7/start.o
 .rel.u_boot_list_2_uclass_2_nop
                0x000000008086abf8        0x8 arch/arm/cpu/armv7/start.o
 .rel.u_boot_list_2_driver_2_simple_bus_drv
                0x000000008086ac00       0x10 arch/arm/cpu/armv7/start.o
 .rel.u_boot_list_2_uclass_2_simple_bus
                0x000000008086ac10       0x10 arch/arm/cpu/armv7/start.o
 .rel.data.dfu_list
                0x000000008086ac20       0x10 arch/arm/cpu/armv7/start.o
 .rel.data.kbd_entry
                0x000000008086ac30        0x0 arch/arm/cpu/armv7/start.o
 .rel.u_boot_list_2_uclass_2_timer
                0x000000008086ac30       0x18 arch/arm/cpu/armv7/start.o
 .rel.u_boot_list_2_driver_2_omap_timer
                0x000000008086ac48       0x28 arch/arm/cpu/armv7/start.o
 .rel.u_boot_list_2_uclass_2_blk
                0x000000008086ac70       0x10 arch/arm/cpu/armv7/start.o
 .rel.data.block_cache
                0x000000008086ac80       0x10 arch/arm/cpu/armv7/start.o
 .rel.u_boot_list_2_uclass_2_mod_exp
                0x000000008086ac90        0x8 arch/arm/cpu/armv7/start.o
 .rel.u_boot_list_2_driver_2_mod_exp_sw
                0x000000008086ac98       0x10 arch/arm/cpu/armv7/start.o
 .rel.u_boot_list_2_driver_info_2_mod_exp_sw
                0x000000008086aca8        0x8 arch/arm/cpu/armv7/start.o
 .rel.u_boot_list_2_uclass_2_misc
                0x000000008086acb0       0x10 arch/arm/cpu/armv7/start.o
 .rel.u_boot_list_2_driver_2_mmc_blk
                0x000000008086acc0       0x18 arch/arm/cpu/armv7/start.o
 .rel.u_boot_list_2_uclass_2_mmc
                0x000000008086acd8        0x8 arch/arm/cpu/armv7/start.o
 .rel.u_boot_list_2_driver_2_omap_hsmmc
                0x000000008086ace0       0x30 arch/arm/cpu/armv7/start.o
 .rel.text.check_reserved
                0x000000008086ad10       0x10 arch/arm/cpu/armv7/start.o
 .rel.text.dm_gpio_lookup_name
                0x000000008086ad20        0x8 arch/arm/cpu/armv7/start.o
 .rel.text.gpio_direction_input
                0x000000008086ad28        0x8 arch/arm/cpu/armv7/start.o
 .rel.text.gpio_direction_output
                0x000000008086ad30        0x8 arch/arm/cpu/armv7/start.o
 .rel.text.dm_gpio_get_value
                0x000000008086ad38        0x8 arch/arm/cpu/armv7/start.o
 .rel.text.dm_gpio_set_value
                0x000000008086ad40        0x8 arch/arm/cpu/armv7/start.o
 .rel.text.dm_gpio_get_open_drain
                0x000000008086ad48        0x0 arch/arm/cpu/armv7/start.o
 .rel.text.dm_gpio_set_open_drain
                0x000000008086ad48        0x0 arch/arm/cpu/armv7/start.o
 .rel.text.dm_gpio_set_dir_flags
                0x000000008086ad48        0x8 arch/arm/cpu/armv7/start.o
 .rel.text.gpio_request_tail
                0x000000008086ad50       0x10 arch/arm/cpu/armv7/start.o
 .rel.text._gpio_request_by_name_nodev
                0x000000008086ad60        0x8 arch/arm/cpu/armv7/start.o
 .rel.text.gpio_get_status
                0x000000008086ad68       0x28 arch/arm/cpu/armv7/start.o
 .rel.text.gpio_request_by_name
                0x000000008086ad90        0x8 arch/arm/cpu/armv7/start.o
 .rel.text.gpio_get_list_count
                0x000000008086ad98        0x8 arch/arm/cpu/armv7/start.o
 .rel.text.omap_gpio_probe
                0x000000008086ada0        0x8 arch/arm/cpu/armv7/start.o
 .rel.rodata.gpio_function
                0x000000008086ada8       0x28 arch/arm/cpu/armv7/start.o
 .rel.rodata.gpio_omap_ops
                0x000000008086add0       0x28 arch/arm/cpu/armv7/start.o
 .rel.rodata.omap_gpio_ids
                0x000000008086adf8       0x18 arch/arm/cpu/armv7/start.o
 .rel.u_boot_list_2_uclass_2_gpio
                0x000000008086ae10       0x20 arch/arm/cpu/armv7/start.o
 .rel.u_boot_list_2_driver_2_gpio_omap
                0x000000008086ae30       0x28 arch/arm/cpu/armv7/start.o
 .rel.text.i2c_uclass_init
                0x000000008086ae58        0x8 arch/arm/cpu/armv7/start.o
 .rel.text.i2c_pre_probe
                0x000000008086ae60        0x8 arch/arm/cpu/armv7/start.o
 .rel.text.i2c_dump_msgs
                0x000000008086ae68        0x0 arch/arm/cpu/armv7/start.o
 .rel.text.i2c_get_chip
                0x000000008086ae68       0x10 arch/arm/cpu/armv7/start.o
 .rel.text.i2c_post_probe
                0x000000008086ae78        0x8 arch/arm/cpu/armv7/start.o
 .rel.text.i2c_deblock
                0x000000008086ae80        0x8 arch/arm/cpu/armv7/start.o
 .rel.text.i2c_chip_ofdata_to_platdata
                0x000000008086ae88       0x10 arch/arm/cpu/armv7/start.o
 .rel.text.__omap24_i2c_setspeed
                0x000000008086ae98       0x20 arch/arm/cpu/armv7/start.o
 .rel.text.wait_for_bb
                0x000000008086aeb8       0x20 arch/arm/cpu/armv7/start.o
 .rel.text.wait_for_event
                0x000000008086aed8       0x28 arch/arm/cpu/armv7/start.o
 .rel.text.flush_fifo
                0x000000008086af00       0x10 arch/arm/cpu/armv7/start.o
 .rel.text.omap_i2c_probe_chip
                0x000000008086af10       0x18 arch/arm/cpu/armv7/start.o
 .rel.text.omap_i2c_ofdata_to_platdata
                0x000000008086af28        0x8 arch/arm/cpu/armv7/start.o
 .rel.text.omap_i2c_xfer
                0x000000008086af30       0x60 arch/arm/cpu/armv7/start.o
 .rel.text.omap_i2c_probe
                0x000000008086af90       0x20 arch/arm/cpu/armv7/start.o
 .rel.rodata.omap_i2c_ids
                0x000000008086afb0       0x10 arch/arm/cpu/armv7/start.o
 .rel.rodata.omap_i2c_ops
                0x000000008086afc0       0x18 arch/arm/cpu/armv7/start.o
 .rel.u_boot_list_2_driver_2_i2c_generic_chip_drv
                0x000000008086afd8        0x8 arch/arm/cpu/armv7/start.o
 .rel.u_boot_list_2_uclass_2_i2c
                0x000000008086afe0       0x30 arch/arm/cpu/armv7/start.o
 .rel.u_boot_list_2_uclass_2_i2c_generic
                0x000000008086b010        0x8 arch/arm/cpu/armv7/start.o
 .rel.u_boot_list_2_driver_2_i2c_omap
                0x000000008086b018       0x28 arch/arm/cpu/armv7/start.o
 .rel.text.__mtd_next_device
                0x000000008086b040        0x0 arch/arm/cpu/armv7/start.o
 .rel.text.mtd_dev_list_updated
                0x000000008086b040        0x0 arch/arm/cpu/armv7/start.o
 .rel.text.del_mtd_device
                0x000000008086b040        0x0 arch/arm/cpu/armv7/start.o
 .rel.text.get_mtd_device
                0x000000008086b040        0x0 arch/arm/cpu/armv7/start.o
 .rel.text.__put_mtd_device
                0x000000008086b040        0x0 arch/arm/cpu/armv7/start.o
 .rel.text.mtd_ooblayout_find_eccregion
                0x000000008086b040        0x0 arch/arm/cpu/armv7/start.o
 .rel.text.mtd_ooblayout_get_eccbytes
                0x000000008086b040        0x0 arch/arm/cpu/armv7/start.o
 .rel.text.mtd_ooblayout_set_eccbytes
                0x000000008086b040        0x0 arch/arm/cpu/armv7/start.o
 .rel.text.mtd_ooblayout_get_databytes
                0x000000008086b040        0x0 arch/arm/cpu/armv7/start.o
 .rel.text.mtd_ooblayout_set_databytes
                0x000000008086b040        0x0 arch/arm/cpu/armv7/start.o
 .rel.text.add_mtd_device
                0x000000008086b040        0x0 arch/arm/cpu/armv7/start.o
 .rel.text.mtd_search_alternate_name
                0x000000008086b040        0x0 arch/arm/cpu/armv7/start.o
 .rel.text.mtd_arg_off
                0x000000008086b040       0x10 arch/arm/cpu/armv7/start.o
 .rel.text.mtd_arg_off_size
                0x000000008086b050       0x28 arch/arm/cpu/armv7/start.o
 .rel.text.spi_flash_probe_bus_cs
                0x000000008086b078       0x10 arch/arm/cpu/armv7/start.o
 .rel.text.spi_flash_std_erase
                0x000000008086b088        0x8 arch/arm/cpu/armv7/start.o
 .rel.text.spi_flash_std_probe
                0x000000008086b090        0x8 arch/arm/cpu/armv7/start.o
 .rel.text.spi_nor_wait_till_ready_with_timeout.constprop.5
                0x000000008086b098        0x8 arch/arm/cpu/armv7/start.o
 .rel.text.spi_nor_scan
                0x000000008086b0a0       0xc8 arch/arm/cpu/armv7/start.o
 .rel.rodata.spi_flash_std_ids
                0x000000008086b168        0x8 arch/arm/cpu/armv7/start.o
 .rel.rodata.spi_flash_std_ops
                0x000000008086b170       0x20 arch/arm/cpu/armv7/start.o
 .rel.rodata.spi_nor_ids
                0x000000008086b190       0xd8 arch/arm/cpu/armv7/start.o
 .rel.u_boot_list_2_uclass_2_spi_nor
                0x000000008086b268       0x10 arch/arm/cpu/armv7/start.o
 .rel.u_boot_list_2_driver_2_spi_flash_std
                0x000000008086b278       0x28 arch/arm/cpu/armv7/start.o
 .rel.text.cpsw_eth_ofdata_to_platdata
                0x000000008086b2a0       0xc0 arch/arm/cpu/armv7/start.o
 .rel.text.cpsw_gmii_sel_am3352.isra.4
                0x000000008086b360       0x10 arch/arm/cpu/armv7/start.o
 .rel.text.cpsw_ale_add_mcast.constprop.9
                0x000000008086b370       0x10 arch/arm/cpu/armv7/start.o
 .rel.text.cpsw_eth_start
                0x000000008086b380       0x30 arch/arm/cpu/armv7/start.o
 .rel.text.cpsw_eth_send
                0x000000008086b3b0        0x8 arch/arm/cpu/armv7/start.o
 .rel.text._cpsw_register
                0x000000008086b3b8        0x8 arch/arm/cpu/armv7/start.o
 .rel.text.cpsw_eth_probe
                0x000000008086b3c0       0x28 arch/arm/cpu/armv7/start.o
 .rel.text.ti_cm_get_macid
                0x000000008086b3e8       0x10 arch/arm/cpu/armv7/start.o
 .rel.text.ti_cm_get_macid_addr
                0x000000008086b3f8       0x60 arch/arm/cpu/armv7/start.o
 .rel.text.cpsw_mdio_init
                0x000000008086b458       0x18 arch/arm/cpu/armv7/start.o
 .rel.rodata.cpsw_eth_ids
                0x000000008086b470       0x10 arch/arm/cpu/armv7/start.o
 .rel.rodata.cpsw_eth_ops
                0x000000008086b480       0x28 arch/arm/cpu/armv7/start.o
 .rel.u_boot_list_2_driver_2_eth_cpsw
                0x000000008086b4a8       0x28 arch/arm/cpu/armv7/start.o
 .rel.text.genphy_update_link
                0x000000008086b4d0       0x28 arch/arm/cpu/armv7/start.o
 .rel.text.phy_register
                0x000000008086b4f8        0x8 arch/arm/cpu/armv7/start.o
 .rel.text.get_phy_device_by_mask
                0x000000008086b500       0x28 arch/arm/cpu/armv7/start.o
 .rel.text.phy_reset
                0x000000008086b528        0x8 arch/arm/cpu/armv7/start.o
 .rel.text.phy_connect_dev
                0x000000008086b530        0x8 arch/arm/cpu/armv7/start.o
 .rel.text.phy_connect
                0x000000008086b538        0x8 arch/arm/cpu/armv7/start.o
 .rel.text.phy_get_interface_by_name
                0x000000008086b540        0x8 arch/arm/cpu/armv7/start.o
 .rel.text.phy_atheros_init
                0x000000008086b548       0x18 arch/arm/cpu/armv7/start.o
 .rel.text.phy_smsc_init
                0x000000008086b560       0x30 arch/arm/cpu/armv7/start.o
 .rel.rodata.phy_interface_strings
                0x000000008086b590       0xb0 arch/arm/cpu/armv7/start.o
 .rel.data.genphy_driver
                0x000000008086b640       0x20 arch/arm/cpu/armv7/start.o
 .rel.data.phy_drivers
                0x000000008086b660       0x10 arch/arm/cpu/armv7/start.o
 .rel.data.AR8021_driver
                0x000000008086b670       0x20 arch/arm/cpu/armv7/start.o
 .rel.data.AR8031_driver
                0x000000008086b690       0x20 arch/arm/cpu/armv7/start.o
 .rel.data.AR8035_driver
                0x000000008086b6b0       0x20 arch/arm/cpu/armv7/start.o
 .rel.data.lan8700_driver
                0x000000008086b6d0       0x20 arch/arm/cpu/armv7/start.o
 .rel.data.lan8710_driver
                0x000000008086b6f0       0x20 arch/arm/cpu/armv7/start.o
 .rel.data.lan8740_driver
                0x000000008086b710       0x20 arch/arm/cpu/armv7/start.o
 .rel.data.lan8741_driver
                0x000000008086b730       0x20 arch/arm/cpu/armv7/start.o
 .rel.data.lan8742_driver
                0x000000008086b750       0x20 arch/arm/cpu/armv7/start.o
 .rel.data.lan911x_driver
                0x000000008086b770       0x20 arch/arm/cpu/armv7/start.o
 .rel.text.tps65217_reg_read
                0x000000008086b790        0x0 arch/arm/cpu/armv7/start.o
 .rel.text.tps65217_reg_write
                0x000000008086b790        0x0 arch/arm/cpu/armv7/start.o
 .rel.text.power_tps65217_init
                0x000000008086b790        0x0 arch/arm/cpu/armv7/start.o
 .rel.text.power_tps65910_init
                0x000000008086b790        0x0 arch/arm/cpu/armv7/start.o
 .rel.text.tps65910_set_i2c_control
                0x000000008086b790        0x0 arch/arm/cpu/armv7/start.o
 .rel.text.tps65910_voltage_update
                0x000000008086b790        0x0 arch/arm/cpu/armv7/start.o
 .rel.text.serial_post_probe
                0x000000008086b790       0x20 arch/arm/cpu/armv7/start.o
 .rel.text.serial_init
                0x000000008086b7b0       0x18 arch/arm/cpu/armv7/start.o
 .rel.text.on_baudrate
                0x000000008086b7c8       0x18 arch/arm/cpu/armv7/start.o
 .rel.text.ns16550_serial_ofdata_to_platdata
                0x000000008086b7e0       0x20 arch/arm/cpu/armv7/start.o
 .rel.text.omap_serial_ofdata_to_platdata
                0x000000008086b800       0x10 arch/arm/cpu/armv7/start.o
 .rel.rodata.ns16550_serial_ids
                0x000000008086b810       0x28 arch/arm/cpu/armv7/start.o
 .rel.rodata.ns16550_serial_ops
                0x000000008086b838       0x30 arch/arm/cpu/armv7/start.o
 .rel.rodata.omap_serial_ids
                0x000000008086b868       0x38 arch/arm/cpu/armv7/start.o
 .rel.u_boot_list_2_env_clbk_2_baudrate
                0x000000008086b8a0       0x10 arch/arm/cpu/armv7/start.o
 .rel.u_boot_list_2_uclass_2_serial
                0x000000008086b8b0       0x18 arch/arm/cpu/armv7/start.o
 .rel.u_boot_list_2_driver_2_ns16550_serial
                0x000000008086b8c8       0x28 arch/arm/cpu/armv7/start.o
 .rel.u_boot_list_2_driver_2_omap_serial
                0x000000008086b8f0       0x28 arch/arm/cpu/armv7/start.o
 .rel.text.spi_set_speed_mode
                0x000000008086b918       0x10 arch/arm/cpu/armv7/start.o
 .rel.text.spi_post_probe
                0x000000008086b928        0x8 arch/arm/cpu/armv7/start.o
 .rel.text.spi_get_bus_and_cs
                0x000000008086b930       0x18 arch/arm/cpu/armv7/start.o
 .rel.text.spi_slave_ofdata_to_platdata
                0x000000008086b948       0x58 arch/arm/cpu/armv7/start.o
 .rel.text.omap3_spi_xfer
                0x000000008086b9a0       0x18 arch/arm/cpu/armv7/start.o
 .rel.text.omap3_spi_probe
                0x000000008086b9b8        0x8 arch/arm/cpu/armv7/start.o
 .rel.rodata.omap3_spi_ids
                0x000000008086b9c0       0x20 arch/arm/cpu/armv7/start.o
 .rel.rodata.omap3_spi_ops
                0x000000008086b9e0       0x30 arch/arm/cpu/armv7/start.o
 .rel.u_boot_list_2_driver_2_spi_generic_drv
                0x000000008086ba10        0x8 arch/arm/cpu/armv7/start.o
 .rel.u_boot_list_2_uclass_2_spi
                0x000000008086ba18       0x28 arch/arm/cpu/armv7/start.o
 .rel.u_boot_list_2_uclass_2_spi_generic
                0x000000008086ba40        0x8 arch/arm/cpu/armv7/start.o
 .rel.u_boot_list_2_driver_2_omap3_spi
                0x000000008086ba48       0x20 arch/arm/cpu/armv7/start.o
 .rel.text.usb_get_dr_mode
                0x000000008086ba68       0x18 arch/arm/cpu/armv7/start.o
 .rel.text.usb_get_maximum_speed
                0x000000008086ba80        0x0 arch/arm/cpu/armv7/start.o
 .rel.rodata.speed_names
                0x000000008086ba80        0x0 arch/arm/cpu/armv7/start.o
 .rel.rodata.usb_dr_modes
                0x000000008086ba80       0x20 arch/arm/cpu/armv7/start.o
 .rel.text.usb_ep_autoconfig
                0x000000008086baa0        0x8 arch/arm/cpu/armv7/start.o
 .rel.text.usb_ep_autoconfig_reset
                0x000000008086baa8        0x8 arch/arm/cpu/armv7/start.o
 .rel.text.composite_suspend
                0x000000008086bab0        0x8 arch/arm/cpu/armv7/start.o
 .rel.text.composite_resume
                0x000000008086bab8        0x8 arch/arm/cpu/armv7/start.o
 .rel.text.composite_unbind
                0x000000008086bac0       0x28 arch/arm/cpu/armv7/start.o
 .rel.text.composite_bind
                0x000000008086bae8       0x10 arch/arm/cpu/armv7/start.o
 .rel.text.g_dnl_do_config
                0x000000008086baf8        0x8 arch/arm/cpu/armv7/start.o
 .rel.text.composite_disconnect
                0x000000008086bb00        0x8 arch/arm/cpu/armv7/start.o
 .rel.text.composite_setup
                0x000000008086bb08       0x10 arch/arm/cpu/armv7/start.o
 .rel.text.usb_composite_register
                0x000000008086bb18       0x18 arch/arm/cpu/armv7/start.o
 .rel.text.usb_composite_unregister
                0x000000008086bb30       0x10 arch/arm/cpu/armv7/start.o
 .rel.text.g_dnl_set_serialnumber
                0x000000008086bb40        0x8 arch/arm/cpu/armv7/start.o
 .rel.text.g_dnl_bind
                0x000000008086bb48       0x30 arch/arm/cpu/armv7/start.o
 .rel.text.g_dnl_detach
                0x000000008086bb78        0x8 arch/arm/cpu/armv7/start.o
 .rel.text.g_dnl_trigger_detach
                0x000000008086bb80        0x8 arch/arm/cpu/armv7/start.o
 .rel.text.g_dnl_clear_detach
                0x000000008086bb88        0x8 arch/arm/cpu/armv7/start.o
 .rel.text.g_dnl_register
                0x000000008086bb90       0x18 arch/arm/cpu/armv7/start.o
 .rel.text.g_dnl_unregister
                0x000000008086bba8        0x8 arch/arm/cpu/armv7/start.o
 .rel.text.dfu_add
                0x000000008086bbb0       0x58 arch/arm/cpu/armv7/start.o
 .rel.text.dfu_handle
                0x000000008086bc08       0x10 arch/arm/cpu/armv7/start.o
 .rel.text.dnload_request_flush
                0x000000008086bc18        0x8 arch/arm/cpu/armv7/start.o
 .rel.text.dfu_bind
                0x000000008086bc20       0x28 arch/arm/cpu/armv7/start.o
 .rel.text.state_dfu_manifest_sync
                0x000000008086bc48        0x8 arch/arm/cpu/armv7/start.o
 .rel.text.state_dfu_dnload_idle
                0x000000008086bc50        0x8 arch/arm/cpu/armv7/start.o
 .rel.text.state_app_idle
                0x000000008086bc58        0x8 arch/arm/cpu/armv7/start.o
 .rel.text.state_dfu_manifest
                0x000000008086bc60        0x8 arch/arm/cpu/armv7/start.o
 .rel.text.state_dfu_idle
                0x000000008086bc68       0x10 arch/arm/cpu/armv7/start.o
 .rel.text.fastboot_unbind
                0x000000008086bc78        0x8 arch/arm/cpu/armv7/start.o
 .rel.text.fastboot_add
                0x000000008086bc80       0x38 arch/arm/cpu/armv7/start.o
 .rel.text.fastboot_set_alt
                0x000000008086bcb8       0x50 arch/arm/cpu/armv7/start.o
 .rel.text.fastboot_complete
                0x000000008086bd08        0x8 arch/arm/cpu/armv7/start.o
 .rel.text.fastboot_tx_write_str
                0x000000008086bd10       0x10 arch/arm/cpu/armv7/start.o
 .rel.text.rx_handler_command
                0x000000008086bd20       0x40 arch/arm/cpu/armv7/start.o
 .rel.text.rx_handler_dl_image
                0x000000008086bd60       0x10 arch/arm/cpu/armv7/start.o
 .rel.text.fastboot_bind
                0x000000008086bd70       0x48 arch/arm/cpu/armv7/start.o
 .rel.text.tx_complete
                0x000000008086bdb8        0x8 arch/arm/cpu/armv7/start.o
 .rel.text.usb_eth_recv
                0x000000008086bdc0       0x18 arch/arm/cpu/armv7/start.o
 .rel.text.rx_complete
                0x000000008086bdd8        0x8 arch/arm/cpu/armv7/start.o
 .rel.text.usb_eth_send
                0x000000008086bde0       0x20 arch/arm/cpu/armv7/start.o
 .rel.text.rndis_command_complete
                0x000000008086be00       0x10 arch/arm/cpu/armv7/start.o
 .rel.text.rndis_control_ack_complete
                0x000000008086be10        0x8 arch/arm/cpu/armv7/start.o
 .rel.text.rndis_control_ack
                0x000000008086be18       0x10 arch/arm/cpu/armv7/start.o
 .rel.text.nibble
                0x000000008086be28        0x8 arch/arm/cpu/armv7/start.o
 .rel.text.set_ether_config.isra.6
                0x000000008086be30       0x38 arch/arm/cpu/armv7/start.o
 .rel.text.rx_submit.constprop.10
                0x000000008086be68       0x18 arch/arm/cpu/armv7/start.o
 .rel.text.usb_eth_free_pkt
                0x000000008086be80        0x8 arch/arm/cpu/armv7/start.o
 .rel.text.eth_setup
                0x000000008086be88       0x98 arch/arm/cpu/armv7/start.o
 .rel.text.usb_eth_probe
                0x000000008086bf20       0x18 arch/arm/cpu/armv7/start.o
 .rel.text.eth_bind
                0x000000008086bf38      0x128 arch/arm/cpu/armv7/start.o
 .rel.text.usb_eth_start
                0x000000008086c060       0x88 arch/arm/cpu/armv7/start.o
 .rel.text.usb_ether_init
                0x000000008086c0e8       0x18 arch/arm/cpu/armv7/start.o
 .rel.text.rndis_add_response
                0x000000008086c100        0x8 arch/arm/cpu/armv7/start.o
 .rel.text.rndis_signal_connect
                0x000000008086c108        0x8 arch/arm/cpu/armv7/start.o
 .rel.text.rndis_signal_disconnect
                0x000000008086c110        0x8 arch/arm/cpu/armv7/start.o
 .rel.text.rndis_set_host_mac
                0x000000008086c118        0x8 arch/arm/cpu/armv7/start.o
 .rel.text.rndis_get_state
                0x000000008086c120        0x8 arch/arm/cpu/armv7/start.o
 .rel.text.rndis_msg_parser
                0x000000008086c128       0x18 arch/arm/cpu/armv7/start.o
 .rel.text.rndis_register
                0x000000008086c140        0x8 arch/arm/cpu/armv7/start.o
 .rel.text.rndis_deregister
                0x000000008086c148        0x8 arch/arm/cpu/armv7/start.o
 .rel.text.rndis_set_param_dev
                0x000000008086c150        0x8 arch/arm/cpu/armv7/start.o
 .rel.text.rndis_set_param_vendor
                0x000000008086c158        0x8 arch/arm/cpu/armv7/start.o
 .rel.text.rndis_set_param_medium
                0x000000008086c160        0x8 arch/arm/cpu/armv7/start.o
 .rel.text.rndis_free_response
                0x000000008086c168        0x8 arch/arm/cpu/armv7/start.o
 .rel.text.rndis_get_next_response
                0x000000008086c170        0x8 arch/arm/cpu/armv7/start.o
 .rel.text.rndis_uninit
                0x000000008086c178        0x8 arch/arm/cpu/armv7/start.o
 .rel.text.rndis_init
                0x000000008086c180        0x8 arch/arm/cpu/armv7/start.o
 .rel.rodata.dfu_state
                0x000000008086c188       0x50 arch/arm/cpu/armv7/start.o
 .rel.rodata.usb_eth_ops
                0x000000008086c1d8       0x28 arch/arm/cpu/armv7/start.o
 .rel.data.composite_driver
                0x000000008086c200       0x38 arch/arm/cpu/armv7/start.o
 .rel.data.g_dnl_composite_strings
                0x000000008086c238        0x8 arch/arm/cpu/armv7/start.o
 .rel.data.g_dnl_driver
                0x000000008086c240       0x20 arch/arm/cpu/armv7/start.o
 .rel.data.g_dnl_string_defs
                0x000000008086c260       0x18 arch/arm/cpu/armv7/start.o
 .rel.data.g_dnl_string_tab
                0x000000008086c278        0x8 arch/arm/cpu/armv7/start.o
 .rel.u_boot_list_2_env_clbk_2_serialno
                0x000000008086c280       0x10 arch/arm/cpu/armv7/start.o
 .rel.data.dfu_generic_strings
                0x000000008086c290        0x8 arch/arm/cpu/armv7/start.o
 .rel.data.dfu_runtime_descs
                0x000000008086c298        0x8 arch/arm/cpu/armv7/start.o
 .rel.data.dfu_strings
                0x000000008086c2a0        0x8 arch/arm/cpu/armv7/start.o
 .rel.data.strings_dfu_generic
                0x000000008086c2a8        0x8 arch/arm/cpu/armv7/start.o
 .rel.data.stringtab_dfu_generic
                0x000000008086c2b0        0x8 arch/arm/cpu/armv7/start.o
 .rel.u_boot_list_2_g_dnl_bind_callbacks_2___usb_function_name_usb_dnl_dfu
                0x000000008086c2b8       0x10 arch/arm/cpu/armv7/start.o
 .rel.data.fastboot_string_defs
                0x000000008086c2c8        0x8 arch/arm/cpu/armv7/start.o
 .rel.data.fastboot_strings
                0x000000008086c2d0        0x8 arch/arm/cpu/armv7/start.o
 .rel.data.fb_fs_function
                0x000000008086c2d8       0x18 arch/arm/cpu/armv7/start.o
 .rel.data.fb_hs_function
                0x000000008086c2f0       0x18 arch/arm/cpu/armv7/start.o
 .rel.data.stringtab_fastboot
                0x000000008086c308        0x8 arch/arm/cpu/armv7/start.o
 .rel.u_boot_list_2_g_dnl_bind_callbacks_2___usb_function_name_usb_dnl_fastboot
                0x000000008086c310       0x10 arch/arm/cpu/armv7/start.o
 .rel.data.fs_eth_function
                0x000000008086c320        0x8 arch/arm/cpu/armv7/start.o
 .rel.data.fs_rndis_function
                0x000000008086c328       0x50 arch/arm/cpu/armv7/start.o
 .rel.data.hs_eth_function
                0x000000008086c378        0x8 arch/arm/cpu/armv7/start.o
 .rel.data.hs_rndis_function
                0x000000008086c380       0x50 arch/arm/cpu/armv7/start.o
 .rel.data.l_priv
                0x000000008086c3d0        0x8 arch/arm/cpu/armv7/start.o
 .rel.data.strings
                0x000000008086c3d8       0x38 arch/arm/cpu/armv7/start.o
 .rel.data.stringtab
                0x000000008086c410        0x8 arch/arm/cpu/armv7/start.o
 .rel.u_boot_list_2_driver_2_eth_usb
                0x000000008086c418       0x18 arch/arm/cpu/armv7/start.o
 .rel.text.usb_add_gadget_udc_release
                0x000000008086c430       0x10 arch/arm/cpu/armv7/start.o
 .rel.text.usb_del_gadget_udc
                0x000000008086c440       0x10 arch/arm/cpu/armv7/start.o
 .rel.text.usb_gadget_probe_driver
                0x000000008086c450       0x18 arch/arm/cpu/armv7/start.o
 .rel.text.usb_gadget_unregister_driver
                0x000000008086c468        0x8 arch/arm/cpu/armv7/start.o
 .rel.text.usb_gadget_initialize
                0x000000008086c470       0x10 arch/arm/cpu/armv7/start.o
 .rel.text.usb_gadget_release
                0x000000008086c480        0x8 arch/arm/cpu/armv7/start.o
 .rel.text.usb_gadget_handle_interrupts
                0x000000008086c488        0x8 arch/arm/cpu/armv7/start.o
 .rel.data.udc_list
                0x000000008086c490       0x10 arch/arm/cpu/armv7/start.o
 .rel.u_boot_list_2_uclass_2_usb_gadget_generic
                0x000000008086c4a0        0x8 arch/arm/cpu/armv7/start.o
 .rel.text.usb_child_post_bind
                0x000000008086c4a8       0x10 arch/arm/cpu/armv7/start.o
 .rel.text.usb_disable_asynch
                0x000000008086c4b8        0x8 arch/arm/cpu/armv7/start.o
 .rel.text.usb_stop
                0x000000008086c4c0        0x8 arch/arm/cpu/armv7/start.o
 .rel.text.usb_scan_device
                0x000000008086c4c8       0x20 arch/arm/cpu/armv7/start.o
 .rel.text.usb_scan_bus.isra.3
                0x000000008086c4e8       0x20 arch/arm/cpu/armv7/start.o
 .rel.text.usb_init
                0x000000008086c508       0x30 arch/arm/cpu/armv7/start.o
 .rel.u_boot_list_2_driver_2_usb_dev_generic_drv
                0x000000008086c538        0x8 arch/arm/cpu/armv7/start.o
 .rel.u_boot_list_2_uclass_2_usb
                0x000000008086c540       0x20 arch/arm/cpu/armv7/start.o
 .rel.u_boot_list_2_uclass_2_usb_dev_generic
                0x000000008086c560        0x8 arch/arm/cpu/armv7/start.o
 .rel.text.init_peripheral_ep
                0x000000008086c568       0x30 arch/arm/cpu/armv7/start.o
 .rel.text.musb_gadget_setup
                0x000000008086c598       0x10 arch/arm/cpu/armv7/start.o
 .rel.text.musb_g_ep0_irq
                0x000000008086c5a8       0x88 arch/arm/cpu/armv7/start.o
 .rel.text.musb_load_testpacket
                0x000000008086c630        0x8 arch/arm/cpu/armv7/start.o
 .rel.text.musb_init_controller
                0x000000008086c638       0xc0 arch/arm/cpu/armv7/start.o
 .rel.text.construct_urb
                0x000000008086c6f8        0x8 arch/arm/cpu/armv7/start.o
 .rel.text.musb_create_int_queue
                0x000000008086c700       0x18 arch/arm/cpu/armv7/start.o
 .rel.text.submit_urb
                0x000000008086c718        0x8 arch/arm/cpu/armv7/start.o
 .rel.text.musb_lowlevel_init
                0x000000008086c720        0x8 arch/arm/cpu/armv7/start.o
 .rel.text.musb_h_tx_flush_fifo
                0x000000008086c728        0x8 arch/arm/cpu/armv7/start.o
 .rel.text.musb_h_ep0_flush_fifo
                0x000000008086c730        0x8 arch/arm/cpu/armv7/start.o
 .rel.text.musb_start_urb
                0x000000008086c738       0x20 arch/arm/cpu/armv7/start.o
 .rel.text.musb_h_ep0_irq
                0x000000008086c758       0x20 arch/arm/cpu/armv7/start.o
 .rel.text.musb_host_rx
                0x000000008086c778       0x10 arch/arm/cpu/armv7/start.o
 .rel.text.dsps_musb_init
                0x000000008086c788        0x8 arch/arm/cpu/armv7/start.o
 .rel.text.ti_musb_ofdata_to_platdata
                0x000000008086c790       0x48 arch/arm/cpu/armv7/start.o
 .rel.text.ti_musb_host_ofdata_to_platdata
                0x000000008086c7d8        0x8 arch/arm/cpu/armv7/start.o
 .rel.text.ti_musb_peripheral_ofdata_to_platdata
                0x000000008086c7e0        0x8 arch/arm/cpu/armv7/start.o
 .rel.text.ti_musb_wrapper_bind
                0x000000008086c7e8       0x28 arch/arm/cpu/armv7/start.o
 .rel.rodata.musb_ep_ops
                0x000000008086c810       0x48 arch/arm/cpu/armv7/start.o
 .rel.rodata.musb_gadget_operations
                0x000000008086c858       0x38 arch/arm/cpu/armv7/start.o
 .rel.rodata.CSWTCH.18
                0x000000008086c890       0x38 arch/arm/cpu/armv7/start.o
 .rel.rodata.musb_g_ep0_ops
                0x000000008086c8c8       0x38 arch/arm/cpu/armv7/start.o
 .rel.rodata.ti_musb_ids
                0x000000008086c900        0x8 arch/arm/cpu/armv7/start.o
 .rel.data.musb_usb_ops
                0x000000008086c908       0x38 arch/arm/cpu/armv7/start.o
 .rel.data.musb_dsps_ops
                0x000000008086c940       0x20 arch/arm/cpu/armv7/start.o
 .rel.u_boot_list_2_driver_2_ti_musb_host
                0x000000008086c960       0x28 arch/arm/cpu/armv7/start.o
 .rel.u_boot_list_2_driver_2_ti_musb_peripheral
                0x000000008086c988       0x28 arch/arm/cpu/armv7/start.o
 .rel.u_boot_list_2_driver_2_ti_musb_wrapper
                0x000000008086c9b0       0x18 arch/arm/cpu/armv7/start.o
 .rel.text.env_set_default
                0x000000008086c9c8       0x28 arch/arm/cpu/armv7/start.o
 .rel.text.env_set_default_vars
                0x000000008086c9f0       0x10 arch/arm/cpu/armv7/start.o
 .rel.text.env_import
                0x000000008086ca00       0x28 arch/arm/cpu/armv7/start.o
 .rel.text.env_import_redund
                0x000000008086ca28       0x30 arch/arm/cpu/armv7/start.o
 .rel.text.env_export
                0x000000008086ca58       0x20 arch/arm/cpu/armv7/start.o
 .rel.text.env_relocate
                0x000000008086ca78        0x8 arch/arm/cpu/armv7/start.o
 .rel.text.env_complete
                0x000000008086ca80       0x30 arch/arm/cpu/armv7/start.o
 .rel.text.env_get_location
                0x000000008086cab0        0x8 arch/arm/cpu/armv7/start.o
 .rel.text.env_driver_lookup
                0x000000008086cab8       0x10 arch/arm/cpu/armv7/start.o
 .rel.text.env_get_char
                0x000000008086cac8        0x8 arch/arm/cpu/armv7/start.o
 .rel.text.env_load
                0x000000008086cad0       0x10 arch/arm/cpu/armv7/start.o
 .rel.text.env_save
                0x000000008086cae0       0x18 arch/arm/cpu/armv7/start.o
 .rel.text.env_erase
                0x000000008086caf8        0x0 arch/arm/cpu/armv7/start.o
 .rel.text.env_init
                0x000000008086caf8        0x8 arch/arm/cpu/armv7/start.o
 .rel.text.regex_callback
                0x000000008086cb00       0x10 arch/arm/cpu/armv7/start.o
 .rel.text.env_attr_lookup
                0x000000008086cb10        0x8 arch/arm/cpu/armv7/start.o
 .rel.text.find_env_callback
                0x000000008086cb18       0x10 arch/arm/cpu/armv7/start.o
 .rel.text.on_callbacks
                0x000000008086cb28       0x20 arch/arm/cpu/armv7/start.o
 .rel.text.set_callback
                0x000000008086cb48        0x8 arch/arm/cpu/armv7/start.o
 .rel.text.env_callback_init
                0x000000008086cb50       0x20 arch/arm/cpu/armv7/start.o
 .rel.text.skip_num
                0x000000008086cb70        0x8 arch/arm/cpu/armv7/start.o
 .rel.text.on_flags
                0x000000008086cb78       0x20 arch/arm/cpu/armv7/start.o
 .rel.text.env_flags_parse_vartype
                0x000000008086cb98       0x10 arch/arm/cpu/armv7/start.o
 .rel.text.env_flags_parse_varaccess
                0x000000008086cba8       0x10 arch/arm/cpu/armv7/start.o
 .rel.text.set_flags
                0x000000008086cbb8       0x10 arch/arm/cpu/armv7/start.o
 .rel.text.env_flags_parse_varaccess_from_binflags
                0x000000008086cbc8        0x0 arch/arm/cpu/armv7/start.o
 .rel.text.env_flags_init
                0x000000008086cbc8       0x30 arch/arm/cpu/armv7/start.o
 .rel.text.env_flags_validate
                0x000000008086cbf8       0x38 arch/arm/cpu/armv7/start.o
 .rel.text.mmc_get_env_addr
                0x000000008086cc30       0x28 arch/arm/cpu/armv7/start.o
 .rel.text.fini_mmc_for_env.isra.0
                0x000000008086cc58        0x8 arch/arm/cpu/armv7/start.o
 .rel.text.init_mmc_for_env
                0x000000008086cc60       0x28 arch/arm/cpu/armv7/start.o
 .rel.text.env_mmc_save
                0x000000008086cc88       0x28 arch/arm/cpu/armv7/start.o
 .rel.text.env_fat_save
                0x000000008086ccb0       0x28 arch/arm/cpu/armv7/start.o
 .rel.text.env_fat_load
                0x000000008086ccd8       0x28 arch/arm/cpu/armv7/start.o
 .rel.data.env_htab
                0x000000008086cd00        0x8 arch/arm/cpu/armv7/start.o
 .rel.u_boot_list_2_env_clbk_2_callbacks
                0x000000008086cd08       0x10 arch/arm/cpu/armv7/start.o
 .rel.u_boot_list_2_env_clbk_2_flags
                0x000000008086cd18       0x10 arch/arm/cpu/armv7/start.o
 .rel.u_boot_list_2_env_driver_2_mmc
                0x000000008086cd28       0x18 arch/arm/cpu/armv7/start.o
 .rel.u_boot_list_2_env_driver_2_fat
                0x000000008086cd40       0x18 arch/arm/cpu/armv7/start.o
 .rel.text.fs_probe_unsupported
                0x000000008086cd58        0x8 arch/arm/cpu/armv7/start.o
 .rel.text.fs_get_info
                0x000000008086cd60        0x8 arch/arm/cpu/armv7/start.o
 .rel.text.fs_close
                0x000000008086cd68        0x8 arch/arm/cpu/armv7/start.o
 .rel.text.fs_get_type_name
                0x000000008086cd70        0x0 arch/arm/cpu/armv7/start.o
 .rel.text.fs_set_blk_dev
                0x000000008086cd70       0x28 arch/arm/cpu/armv7/start.o
 .rel.text.fs_set_blk_dev_with_part
                0x000000008086cd98       0x28 arch/arm/cpu/armv7/start.o
 .rel.text.fs_uuid
                0x000000008086cdc0        0x0 arch/arm/cpu/armv7/start.o
 .rel.text.fs_ls
                0x000000008086cdc0        0x8 arch/arm/cpu/armv7/start.o
 .rel.text.fs_exists
                0x000000008086cdc8        0x8 arch/arm/cpu/armv7/start.o
 .rel.text.fs_size
                0x000000008086cdd0        0x8 arch/arm/cpu/armv7/start.o
 .rel.text.fs_read
                0x000000008086cdd8        0x8 arch/arm/cpu/armv7/start.o
 .rel.text.fs_write
                0x000000008086cde0       0x10 arch/arm/cpu/armv7/start.o
 .rel.text.fs_opendir
                0x000000008086cdf0       0x20 arch/arm/cpu/armv7/start.o
 .rel.text.fs_readdir
                0x000000008086ce10       0x10 arch/arm/cpu/armv7/start.o
 .rel.text.fs_closedir
                0x000000008086ce20        0x8 arch/arm/cpu/armv7/start.o
 .rel.text.fs_ls_generic
                0x000000008086ce28       0x20 arch/arm/cpu/armv7/start.o
 .rel.text.fs_unlink
                0x000000008086ce48        0x8 arch/arm/cpu/armv7/start.o
 .rel.text.fs_mkdir
                0x000000008086ce50        0x8 arch/arm/cpu/armv7/start.o
 .rel.text.fs_ln
                0x000000008086ce58       0x10 arch/arm/cpu/armv7/start.o
 .rel.text.do_size
                0x000000008086ce68        0x8 arch/arm/cpu/armv7/start.o
 .rel.text.do_load
                0x000000008086ce70       0x68 arch/arm/cpu/armv7/start.o
 .rel.text.do_ls
                0x000000008086ced8        0x8 arch/arm/cpu/armv7/start.o
 .rel.text.do_save
                0x000000008086cee0       0x28 arch/arm/cpu/armv7/start.o
 .rel.text.do_fs_uuid
                0x000000008086cf08        0x0 arch/arm/cpu/armv7/start.o
 .rel.text.do_fs_type
                0x000000008086cf08       0x10 arch/arm/cpu/armv7/start.o
 .rel.text.do_mkdir
                0x000000008086cf18        0x8 arch/arm/cpu/armv7/start.o
 .rel.text.get_fs
                0x000000008086cf20        0x8 arch/arm/cpu/armv7/start.o
 .rel.text.ext4fs_free_node
                0x000000008086cf28        0x8 arch/arm/cpu/armv7/start.o
 .rel.text.ext4fs_ls
                0x000000008086cf30       0x10 arch/arm/cpu/armv7/start.o
 .rel.text.ext4fs_uuid
                0x000000008086cf40        0x8 arch/arm/cpu/armv7/start.o
 .rel.text.ext4fs_read_file
                0x000000008086cf48        0x8 arch/arm/cpu/armv7/start.o
 .rel.text.ext4fs_read
                0x000000008086cf50       0x10 arch/arm/cpu/armv7/start.o
 .rel.text.ext4_read_file
                0x000000008086cf60        0x8 arch/arm/cpu/armv7/start.o
 .rel.text.put_ext4
                0x000000008086cf68       0x20 arch/arm/cpu/armv7/start.o
 .rel.text.ext4fs_set_block_bmap
                0x000000008086cf88        0x8 arch/arm/cpu/armv7/start.o
 .rel.text.ext4fs_reset_block_bmap
                0x000000008086cf90        0x8 arch/arm/cpu/armv7/start.o
 .rel.text.ext4fs_set_inode_bmap
                0x000000008086cf98        0x8 arch/arm/cpu/armv7/start.o
 .rel.text.ext4fs_reset_inode_bmap
                0x000000008086cfa0        0x8 arch/arm/cpu/armv7/start.o
 .rel.text.ext4fs_get_new_blk_no
                0x000000008086cfa8       0x10 arch/arm/cpu/armv7/start.o
 .rel.text.ext4fs_get_new_inode_no
                0x000000008086cfb8       0x10 arch/arm/cpu/armv7/start.o
 .rel.text.ext4fs_allocate_blocks
                0x000000008086cfc8       0x30 arch/arm/cpu/armv7/start.o
 .rel.text.ext4fs_iget
                0x000000008086cff8        0x8 arch/arm/cpu/armv7/start.o
 .rel.text.read_allocated_block
                0x000000008086d000       0xc8 arch/arm/cpu/armv7/start.o
 .rel.text.ext4fs_update_parent_dentry
                0x000000008086d0c8       0x48 arch/arm/cpu/armv7/start.o
 .rel.text.search_dir
                0x000000008086d110       0x10 arch/arm/cpu/armv7/start.o
 .rel.text.ext4fs_get_parent_inode_num
                0x000000008086d120       0x28 arch/arm/cpu/armv7/start.o
 .rel.text.ext4fs_filename_unlink
                0x000000008086d148       0x20 arch/arm/cpu/armv7/start.o
 .rel.text.ext4fs_reinit_global
                0x000000008086d168       0x48 arch/arm/cpu/armv7/start.o
 .rel.text.ext4fs_close
                0x000000008086d1b0       0x10 arch/arm/cpu/armv7/start.o
 .rel.text.ext4fs_iterate_dir
                0x000000008086d1c0       0x30 arch/arm/cpu/armv7/start.o
 .rel.text.ext4fs_find_file1
                0x000000008086d1f0       0x10 arch/arm/cpu/armv7/start.o
 .rel.text.ext4fs_find_file
                0x000000008086d200        0x8 arch/arm/cpu/armv7/start.o
 .rel.text.ext4fs_open
                0x000000008086d208       0x10 arch/arm/cpu/armv7/start.o
 .rel.text.ext4fs_mount
                0x000000008086d218       0x10 arch/arm/cpu/armv7/start.o
 .rel.text.ext4fs_set_blk_dev
                0x000000008086d228       0x10 arch/arm/cpu/armv7/start.o
 .rel.text.ext4fs_devread
                0x000000008086d238        0x8 arch/arm/cpu/armv7/start.o
 .rel.text.ext4fs_update
                0x000000008086d240       0x10 arch/arm/cpu/armv7/start.o
 .rel.text.ext4fs_get_bgdtable
                0x000000008086d250        0x8 arch/arm/cpu/armv7/start.o
 .rel.text.ext4fs_deinit
                0x000000008086d258        0x8 arch/arm/cpu/armv7/start.o
 .rel.text.ext4fs_init
                0x000000008086d260       0x10 arch/arm/cpu/armv7/start.o
 .rel.text.ext4fs_write
                0x000000008086d270       0x80 arch/arm/cpu/armv7/start.o
 .rel.text.ext4_write_file
                0x000000008086d2f0       0x10 arch/arm/cpu/armv7/start.o
 .rel.text.ext4fs_dump_metadata
                0x000000008086d300        0x8 arch/arm/cpu/armv7/start.o
 .rel.text.ext4fs_free_journal
                0x000000008086d308       0x28 arch/arm/cpu/armv7/start.o
 .rel.text.ext4fs_log_gdt
                0x000000008086d330       0x10 arch/arm/cpu/armv7/start.o
 .rel.text.ext4fs_log_journal
                0x000000008086d340       0x20 arch/arm/cpu/armv7/start.o
 .rel.text.ext4fs_put_metadata
                0x000000008086d360       0x20 arch/arm/cpu/armv7/start.o
 .rel.text.print_revoke_blks
                0x000000008086d380        0x0 arch/arm/cpu/armv7/start.o
 .rel.text.ext4fs_push_revoke_blk
                0x000000008086d380       0x28 arch/arm/cpu/armv7/start.o
 .rel.text.ext4fs_free_revoke_blks
                0x000000008086d3a8       0x18 arch/arm/cpu/armv7/start.o
 .rel.text.check_blknr_for_revoke
                0x000000008086d3c0        0x8 arch/arm/cpu/armv7/start.o
 .rel.text.recover_transaction
                0x000000008086d3c8       0x10 arch/arm/cpu/armv7/start.o
 .rel.text.print_jrnl_status
                0x000000008086d3d8       0x10 arch/arm/cpu/armv7/start.o
 .rel.text.ext4fs_check_journal_state
                0x000000008086d3e8       0x18 arch/arm/cpu/armv7/start.o
 .rel.text.ext4fs_init_journal
                0x000000008086d400       0x40 arch/arm/cpu/armv7/start.o
 .rel.text.ext4fs_update_journal
                0x000000008086d440       0x20 arch/arm/cpu/armv7/start.o
 .rel.text.ext2fs_crc16
                0x000000008086d460        0x8 arch/arm/cpu/armv7/start.o
 .rel.text.downcase
                0x000000008086d468        0x8 arch/arm/cpu/armv7/start.o
 .rel.text.disk_read
                0x000000008086d470       0x10 arch/arm/cpu/armv7/start.o
 .rel.text.read_bootsectandvi
                0x000000008086d480       0x20 arch/arm/cpu/armv7/start.o
 .rel.text.fat_itr_root
                0x000000008086d4a0       0x20 arch/arm/cpu/armv7/start.o
 .rel.text.split_filename
                0x000000008086d4c0        0x8 arch/arm/cpu/armv7/start.o
 .rel.text.disk_write
                0x000000008086d4c8       0x20 arch/arm/cpu/armv7/start.o
 .rel.text.get_fatent
                0x000000008086d4e8        0x8 arch/arm/cpu/armv7/start.o
 .rel.text.set_name
                0x000000008086d4f0        0x8 arch/arm/cpu/armv7/start.o
 .rel.text.normalize_longname
                0x000000008086d4f8        0x8 arch/arm/cpu/armv7/start.o
 .rel.text.fat_itr_resolve
                0x000000008086d500       0x10 arch/arm/cpu/armv7/start.o
 .rel.text.set_contents
                0x000000008086d510       0x28 arch/arm/cpu/armv7/start.o
 .rel.text.fat_set_blk_dev
                0x000000008086d538       0x28 arch/arm/cpu/armv7/start.o
 .rel.text.fat_register_device
                0x000000008086d560        0x0 arch/arm/cpu/armv7/start.o
 .rel.text.file_fat_detectfs
                0x000000008086d560       0x70 arch/arm/cpu/armv7/start.o
 .rel.text.file_fat_read_at
                0x000000008086d5d0       0x10 arch/arm/cpu/armv7/start.o
 .rel.text.fat_read_file
                0x000000008086d5e0        0x8 arch/arm/cpu/armv7/start.o
 .rel.text.file_fat_write_at
                0x000000008086d5e8       0x48 arch/arm/cpu/armv7/start.o
 .rel.text.fat_unlink
                0x000000008086d630       0x50 arch/arm/cpu/armv7/start.o
 .rel.text.fat_mkdir
                0x000000008086d680       0x68 arch/arm/cpu/armv7/start.o
 .rel.text.fs_devread
                0x000000008086d6e8       0x30 arch/arm/cpu/armv7/start.o
 .rel.data.fstypes
                0x000000008086d718      0x148 arch/arm/cpu/armv7/start.o
 .rel.text.efi_uc_destroy
                0x000000008086d860        0x8 arch/arm/cpu/armv7/start.o
 .rel.text.efi_uc_init
                0x000000008086d868        0x8 arch/arm/cpu/armv7/start.o
 .rel.text.check_node_type
                0x000000008086d870       0x10 arch/arm/cpu/armv7/start.o
 .rel.text.efi_uc_start
                0x000000008086d880        0x8 arch/arm/cpu/armv7/start.o
 .rel.text.efi_uc_supported
                0x000000008086d888        0x8 arch/arm/cpu/armv7/start.o
 .rel.text.disconnect_child
                0x000000008086d890        0x8 arch/arm/cpu/armv7/start.o
 .rel.text.efi_uc_stop
                0x000000008086d898       0x18 arch/arm/cpu/armv7/start.o
 .rel.text.efi_driver_init
                0x000000008086d8b0       0x40 arch/arm/cpu/armv7/start.o
 .rel.text.efi_bl_bind
                0x000000008086d8f0       0x10 arch/arm/cpu/armv7/start.o
 .rel.text.get_var.constprop.0
                0x000000008086d900       0x10 arch/arm/cpu/armv7/start.o
 .rel.text.try_load_entry
                0x000000008086d910       0x40 arch/arm/cpu/armv7/start.o
 .rel.text.efi_bootmgr_load
                0x000000008086d950       0x48 arch/arm/cpu/armv7/start.o
 .rel.text.efi_is_event
                0x000000008086d998        0x8 arch/arm/cpu/armv7/start.o
 .rel.text.indent_string
                0x000000008086d9a0        0x0 arch/arm/cpu/armv7/start.o
 .rel.text.__efi_entry_check
                0x000000008086d9a0       0x18 arch/arm/cpu/armv7/start.o
 .rel.text.__efi_exit_check
                0x000000008086d9b8       0x10 arch/arm/cpu/armv7/start.o
 .rel.text.efi_process_event_queue
                0x000000008086d9c8       0x10 arch/arm/cpu/armv7/start.o
 .rel.text.efi_queue_event
                0x000000008086d9d8        0x8 arch/arm/cpu/armv7/start.o
 .rel.text.efi_get_next_monotonic_count
                0x000000008086d9e0        0x8 arch/arm/cpu/armv7/start.o
 .rel.text.efi_register_protocol_notify
                0x000000008086d9e8        0x8 arch/arm/cpu/armv7/start.o
 .rel.text.efi_close_event
                0x000000008086d9f0        0x8 arch/arm/cpu/armv7/start.o
 .rel.text.efi_raise_tpl
                0x000000008086d9f8        0x8 arch/arm/cpu/armv7/start.o
 .rel.text.efi_save_gd
                0x000000008086da00        0x8 arch/arm/cpu/armv7/start.o
 .rel.text.efi_restore_gd
                0x000000008086da08        0x8 arch/arm/cpu/armv7/start.o
 .rel.text.__efi_nesting
                0x000000008086da10        0x0 arch/arm/cpu/armv7/start.o
 .rel.text.__efi_nesting_inc
                0x000000008086da10        0x0 arch/arm/cpu/armv7/start.o
 .rel.text.__efi_nesting_dec
                0x000000008086da10        0x0 arch/arm/cpu/armv7/start.o
 .rel.text.efi_signal_event
                0x000000008086da10        0x8 arch/arm/cpu/armv7/start.o
 .rel.text.efi_exit_boot_services
                0x000000008086da18       0x28 arch/arm/cpu/armv7/start.o
 .rel.text.efi_add_handle
                0x000000008086da40        0x8 arch/arm/cpu/armv7/start.o
 .rel.text.efi_create_event
                0x000000008086da48        0x8 arch/arm/cpu/armv7/start.o
 .rel.text.efi_timer_check
                0x000000008086da50       0x10 arch/arm/cpu/armv7/start.o
 .rel.text.efi_wait_for_event
                0x000000008086da60        0x8 arch/arm/cpu/armv7/start.o
 .rel.text.efi_restore_tpl
                0x000000008086da68        0x8 arch/arm/cpu/armv7/start.o
 .rel.text.efi_search_obj
                0x000000008086da70        0x8 arch/arm/cpu/armv7/start.o
 .rel.text.efi_locate_protocol
                0x000000008086da78       0x10 arch/arm/cpu/armv7/start.o
 .rel.text.efi_locate_handle
                0x000000008086da88       0x10 arch/arm/cpu/armv7/start.o
 .rel.text.efi_locate_device_path
                0x000000008086da98        0x8 arch/arm/cpu/armv7/start.o
 .rel.text.efi_delete_image
                0x000000008086daa0        0x8 arch/arm/cpu/armv7/start.o
 .rel.text.efi_disconnect_controller
                0x000000008086daa8        0x8 arch/arm/cpu/armv7/start.o
 .rel.text.efi_start_image
                0x000000008086dab0       0x20 arch/arm/cpu/armv7/start.o
 .rel.text.efi_handle_protocol
                0x000000008086dad0        0x8 arch/arm/cpu/armv7/start.o
 .rel.text.efi_exit
                0x000000008086dad8       0x18 arch/arm/cpu/armv7/start.o
 .rel.text.efi_bind_controller
                0x000000008086daf0        0x8 arch/arm/cpu/armv7/start.o
 .rel.text.efi_unload_image
                0x000000008086daf8        0x8 arch/arm/cpu/armv7/start.o
 .rel.text.efi_connect_controller
                0x000000008086db00        0x8 arch/arm/cpu/armv7/start.o
 .rel.text.efi_add_protocol
                0x000000008086db08       0x10 arch/arm/cpu/armv7/start.o
 .rel.text.efi_install_multiple_protocol_interfaces
                0x000000008086db18        0x8 arch/arm/cpu/armv7/start.o
 .rel.text.efi_install_configuration_table
                0x000000008086db20       0x10 arch/arm/cpu/armv7/start.o
 .rel.text.efi_setup_loaded_image
                0x000000008086db30       0x20 arch/arm/cpu/armv7/start.o
 .rel.text.efi_load_image
                0x000000008086db50       0x18 arch/arm/cpu/armv7/start.o
 .rel.text.efi_initialize_system_table
                0x000000008086db68       0x28 arch/arm/cpu/armv7/start.o
 .rel.text.efi_cout_enable_cursor
                0x000000008086db90       0x10 arch/arm/cpu/armv7/start.o
 .rel.text.efi_cout_set_cursor_position
                0x000000008086dba0       0x18 arch/arm/cpu/armv7/start.o
 .rel.text.efi_cout_clear_screen
                0x000000008086dbb8       0x10 arch/arm/cpu/armv7/start.o
 .rel.text.efi_cout_set_attribute
                0x000000008086dbc8       0x20 arch/arm/cpu/armv7/start.o
 .rel.text.efi_cout_reset
                0x000000008086dbe8       0x10 arch/arm/cpu/armv7/start.o
 .rel.text.efi_cout_output_string
                0x000000008086dbf8       0x10 arch/arm/cpu/armv7/start.o
 .rel.text.efi_cin_unregister_key_notify
                0x000000008086dc08        0x8 arch/arm/cpu/armv7/start.o
 .rel.text.efi_cin_empty_buffer
                0x000000008086dc10        0x8 arch/arm/cpu/armv7/start.o
 .rel.text.efi_cin_register_key_notify
                0x000000008086dc18        0x8 arch/arm/cpu/armv7/start.o
 .rel.text.efi_cout_set_mode
                0x000000008086dc20       0x10 arch/arm/cpu/armv7/start.o
 .rel.text.efi_cout_query_mode
                0x000000008086dc30       0x10 arch/arm/cpu/armv7/start.o
 .rel.text.analyze_modifiers.constprop.6
                0x000000008086dc40        0x8 arch/arm/cpu/armv7/start.o
 .rel.text.efi_cin_check
                0x000000008086dc48       0xe8 arch/arm/cpu/armv7/start.o
 .rel.text.efi_cin_read_key_stroke
                0x000000008086dd30       0x18 arch/arm/cpu/armv7/start.o
 .rel.text.efi_cin_read_key_stroke_ex
                0x000000008086dd48       0x18 arch/arm/cpu/armv7/start.o
 .rel.text.efi_console_register
                0x000000008086dd60       0xa0 arch/arm/cpu/armv7/start.o
 .rel.text.dp_fill
                0x000000008086de00        0x8 arch/arm/cpu/armv7/start.o
 .rel.text.find_obj
                0x000000008086de08       0x10 arch/arm/cpu/armv7/start.o
 .rel.text.efi_dp_append
                0x000000008086de18        0x8 arch/arm/cpu/armv7/start.o
 .rel.text.efi_dp_append_node
                0x000000008086de20        0x8 arch/arm/cpu/armv7/start.o
 .rel.text.efi_dp_append_instance
                0x000000008086de28        0x8 arch/arm/cpu/armv7/start.o
 .rel.text.efi_dp_from_dev
                0x000000008086de30        0x0 arch/arm/cpu/armv7/start.o
 .rel.text.efi_dp_from_part
                0x000000008086de30        0x8 arch/arm/cpu/armv7/start.o
 .rel.text.efi_dp_from_file
                0x000000008086de38        0x8 arch/arm/cpu/armv7/start.o
 .rel.text.efi_dp_from_eth
                0x000000008086de40        0x8 arch/arm/cpu/armv7/start.o
 .rel.text.efi_dp_from_mem
                0x000000008086de48        0x8 arch/arm/cpu/armv7/start.o
 .rel.text.efi_dp_from_name
                0x000000008086de50       0x10 arch/arm/cpu/armv7/start.o
 .rel.text.efi_convert_single_device_node_to_text
                0x000000008086de60       0xa8 arch/arm/cpu/armv7/start.o
 .rel.text.file_open
                0x000000008086df08       0x28 arch/arm/cpu/armv7/start.o
 .rel.text.efi_file_getinfo
                0x000000008086df30       0x18 arch/arm/cpu/armv7/start.o
 .rel.text.efi_file_setinfo
                0x000000008086df48        0x8 arch/arm/cpu/armv7/start.o
 .rel.text.efi_file_from_path
                0x000000008086df50        0x8 arch/arm/cpu/armv7/start.o
 .rel.text.efi_simple_file_system
                0x000000008086df58        0x8 arch/arm/cpu/armv7/start.o
 .rel.text.efi_hii_packagelist_exists
                0x000000008086df60        0x8 arch/arm/cpu/armv7/start.o
 .rel.text.get_package_list_handle
                0x000000008086df68        0x8 arch/arm/cpu/armv7/start.o
 .rel.text.list_package_lists
                0x000000008086df70        0x8 arch/arm/cpu/armv7/start.o
 .rel.text.find_keyboard_layouts
                0x000000008086df78        0x8 arch/arm/cpu/armv7/start.o
 .rel.text.get_keyboard_layout
                0x000000008086df80        0x8 arch/arm/cpu/armv7/start.o
 .rel.text.add_packages
                0x000000008086df88        0x8 arch/arm/cpu/armv7/start.o
 .rel.text.new_package_list
                0x000000008086df90        0x8 arch/arm/cpu/armv7/start.o
 .rel.text.efi_set_code_and_data_type
                0x000000008086df98       0x10 arch/arm/cpu/armv7/start.o
 .rel.text.efi_print_image_infos
                0x000000008086dfa8       0x38 arch/arm/cpu/armv7/start.o
 .rel.text.efi_load_pe
                0x000000008086dfe0       0x40 arch/arm/cpu/armv7/start.o
 .rel.text.efi_check_allocated
                0x000000008086e020        0x8 arch/arm/cpu/armv7/start.o
 .rel.text.efi_find_free_memory
                0x000000008086e028        0x8 arch/arm/cpu/armv7/start.o
 .rel.text.efi_add_memory_map
                0x000000008086e030       0x28 arch/arm/cpu/armv7/start.o
 .rel.text.efi_free_pages
                0x000000008086e058       0x10 arch/arm/cpu/armv7/start.o
 .rel.text.efi_free_pool
                0x000000008086e068       0x10 arch/arm/cpu/armv7/start.o
 .rel.text.efi_get_memory_map
                0x000000008086e078       0x10 arch/arm/cpu/armv7/start.o
 .rel.text.efi_memory_init
                0x000000008086e088       0x10 arch/arm/cpu/armv7/start.o
 .rel.text.efi_root_node_register
                0x000000008086e098       0x78 arch/arm/cpu/armv7/start.o
 .rel.text.efi_reset_system_boottime
                0x000000008086e110       0x10 arch/arm/cpu/armv7/start.o
 .rel.text.efi_init_runtime_supported
                0x000000008086e120       0x10 arch/arm/cpu/armv7/start.o
 .rel.text.efi_runtime_detach
                0x000000008086e130       0x20 arch/arm/cpu/armv7/start.o
 .rel.text.efi_runtime_relocate
                0x000000008086e150       0x40 arch/arm/cpu/armv7/start.o
 .rel.text.efi_set_virtual_address_map
                0x000000008086e190       0x40 arch/arm/cpu/armv7/start.o
 .rel.text.efi_add_runtime_mmio
                0x000000008086e1d0        0x0 arch/arm/cpu/armv7/start.o
 .rel.text.efi_init_obj_list
                0x000000008086e1d0       0x38 arch/arm/cpu/armv7/start.o
 .rel.text.efi_str_to_fat
                0x000000008086e208       0x10 arch/arm/cpu/armv7/start.o
 .rel.text.efi_fat_to_str
                0x000000008086e218        0x8 arch/arm/cpu/armv7/start.o
 .rel.text.efi_to_native
                0x000000008086e220       0x10 arch/arm/cpu/armv7/start.o
 .rel.text.parse_attr.part.0
                0x000000008086e230       0x28 arch/arm/cpu/armv7/start.o
 .rel.text.efi_get_variable
                0x000000008086e258       0x18 arch/arm/cpu/armv7/start.o
 .rel.text.efi_get_next_variable_name
                0x000000008086e270       0x18 arch/arm/cpu/armv7/start.o
 .rel.text.efi_set_variable
                0x000000008086e288       0x48 arch/arm/cpu/armv7/start.o
 .rel.text.efi_variables_boot_exit_notify
                0x000000008086e2d0       0x20 arch/arm/cpu/armv7/start.o
 .rel.text.efi_watchdog_timer_notify
                0x000000008086e2f0       0x10 arch/arm/cpu/armv7/start.o
 .rel.text.efi_set_watchdog
                0x000000008086e300        0x8 arch/arm/cpu/armv7/start.o
 .rel.text.efi_watchdog_register
                0x000000008086e308       0x20 arch/arm/cpu/armv7/start.o
 .rel.text.efi_disk_add_dev.isra.0.part.1
                0x000000008086e328       0x38 arch/arm/cpu/armv7/start.o
 .rel.text.efi_fs_from_path
                0x000000008086e360        0x8 arch/arm/cpu/armv7/start.o
 .rel.text.efi_disk_create_partitions
                0x000000008086e368       0x18 arch/arm/cpu/armv7/start.o
 .rel.text.efi_disk_register
                0x000000008086e380       0x20 arch/arm/cpu/armv7/start.o
 .rel.text.efi_net_push
                0x000000008086e3a0        0x8 arch/arm/cpu/armv7/start.o
 .rel.text.efi_network_timer_notify
                0x000000008086e3a8       0x28 arch/arm/cpu/armv7/start.o
 .rel.text.efi_net_start
                0x000000008086e3d0        0x8 arch/arm/cpu/armv7/start.o
 .rel.text.efi_net_get_status
                0x000000008086e3d8        0x8 arch/arm/cpu/armv7/start.o
 .rel.text.efi_net_receive
                0x000000008086e3e0       0x18 arch/arm/cpu/armv7/start.o
 .rel.text.efi_net_transmit
                0x000000008086e3f8       0x10 arch/arm/cpu/armv7/start.o
 .rel.text.efi_net_shutdown
                0x000000008086e408        0x8 arch/arm/cpu/armv7/start.o
 .rel.text.efi_net_initialize
                0x000000008086e410        0x8 arch/arm/cpu/armv7/start.o
 .rel.text.efi_net_set_dhcp_ack
                0x000000008086e418        0x8 arch/arm/cpu/armv7/start.o
 .rel.text.efi_net_register
                0x000000008086e420      0x128 arch/arm/cpu/armv7/start.o
 .rel.text.efi_smbios_register
                0x000000008086e548        0x8 arch/arm/cpu/armv7/start.o
 .rel.text.fdt_next_tag
                0x000000008086e550       0x48 arch/arm/cpu/armv7/start.o
 .rel.text.fdt_strerror
                0x000000008086e598       0x20 arch/arm/cpu/armv7/start.o
 .rel.text.fdt_create_empty_tree
                0x000000008086e5b8        0x0 arch/arm/cpu/armv7/start.o
 .rel.text.fdt_address_cells
                0x000000008086e5b8        0x8 arch/arm/cpu/armv7/start.o
 .rel.text.fdt_size_cells
                0x000000008086e5c0        0x8 arch/arm/cpu/armv7/start.o
 .rel.text.overlay_adjust_node_phandles
                0x000000008086e5c8       0x10 arch/arm/cpu/armv7/start.o
 .rel.text.overlay_get_target
                0x000000008086e5d8       0x10 arch/arm/cpu/armv7/start.o
 .rel.text.fdt_overlay_apply
                0x000000008086e5e8       0x38 arch/arm/cpu/armv7/start.o
 .rel.text.fdt_get_phandle
                0x000000008086e620       0x10 arch/arm/cpu/armv7/start.o
 .rel.text.fdt_get_alias_namelen
                0x000000008086e630        0x8 arch/arm/cpu/armv7/start.o
 .rel.text.fdt_node_check_compatible
                0x000000008086e638        0x8 arch/arm/cpu/armv7/start.o
 .rel.text.fdt_add_alias_regions
                0x000000008086e640        0x0 arch/arm/cpu/armv7/start.o
 .rel.text.console_read_unicode
                0x000000008086e640        0x8 arch/arm/cpu/armv7/start.o
 .rel.text.utf8_get
                0x000000008086e648        0x8 arch/arm/cpu/armv7/start.o
 .rel.text.utf_to_lower
                0x000000008086e650        0x8 arch/arm/cpu/armv7/start.o
 .rel.text.utf_to_upper
                0x000000008086e658        0x8 arch/arm/cpu/armv7/start.o
 .rel.text.crc7
                0x000000008086e660        0x0 arch/arm/cpu/armv7/start.o
 .rel.text.crc16_ccitt
                0x000000008086e660        0x8 arch/arm/cpu/armv7/start.o
 .rel.text.smbios_write_type3
                0x000000008086e668        0x8 arch/arm/cpu/armv7/start.o
 .rel.text.smbios_write_type2
                0x000000008086e670       0x10 arch/arm/cpu/armv7/start.o
 .rel.text.smbios_write_type0
                0x000000008086e680       0x18 arch/arm/cpu/armv7/start.o
 .rel.text.smbios_write_type1
                0x000000008086e698       0x18 arch/arm/cpu/armv7/start.o
 .rel.text.smbios_write_type4
                0x000000008086e6b0        0x8 arch/arm/cpu/armv7/start.o
 .rel.text.write_smbios_table
                0x000000008086e6b8       0x18 arch/arm/cpu/armv7/start.o
 .rel.text.list_sort
                0x000000008086e6d0        0x8 arch/arm/cpu/armv7/start.o
 .rel.text.rsa_verify_with_keynode
                0x000000008086e6d8       0x30 arch/arm/cpu/armv7/start.o
 .rel.text.rsa_verify
                0x000000008086e708       0x10 arch/arm/cpu/armv7/start.o
 .rel.text.sha1_finish
                0x000000008086e718        0x8 arch/arm/cpu/armv7/start.o
 .rel.text.sha256_finish
                0x000000008086e720        0x8 arch/arm/cpu/armv7/start.o
 .rel.text.inflate_fast
                0x000000008086e728       0x18 arch/arm/cpu/armv7/start.o
 .rel.text.inflate_table
                0x000000008086e740       0x20 arch/arm/cpu/armv7/start.o
 .rel.text.inflateInit2_
                0x000000008086e760       0x10 arch/arm/cpu/armv7/start.o
 .rel.text.inflate
                0x000000008086e770       0xa0 arch/arm/cpu/armv7/start.o
 .rel.text.gzip_parse_header
                0x000000008086e810       0x10 arch/arm/cpu/armv7/start.o
 .rel.text.zunzip
                0x000000008086e820       0x28 arch/arm/cpu/armv7/start.o
 .rel.text.lzop_is_valid_header
                0x000000008086e848        0x8 arch/arm/cpu/armv7/start.o
 .rel.text.fdtdec_get_compatible
                0x000000008086e850        0x0 arch/arm/cpu/armv7/start.o
 .rel.text.fdtdec_get_is_enabled
                0x000000008086e850       0x10 arch/arm/cpu/armv7/start.o
 .rel.text.get_next_memory_node
                0x000000008086e860        0x0 arch/arm/cpu/armv7/start.o
 .rel.text.fdtdec_lookup
                0x000000008086e860        0x0 arch/arm/cpu/armv7/start.o
 .rel.text.fdtdec_next_compatible
                0x000000008086e860        0x0 arch/arm/cpu/armv7/start.o
 .rel.text.fdtdec_next_compatible_subnode
                0x000000008086e860        0x0 arch/arm/cpu/armv7/start.o
 .rel.text.fdtdec_next_alias
                0x000000008086e860        0x0 arch/arm/cpu/armv7/start.o
 .rel.text.fdtdec_add_aliases_for_id
                0x000000008086e860        0x0 arch/arm/cpu/armv7/start.o
 .rel.text.fdtdec_get_alias_seq
                0x000000008086e860        0x8 arch/arm/cpu/armv7/start.o
 .rel.text.fdtdec_get_alias_highest_id
                0x000000008086e868        0x8 arch/arm/cpu/armv7/start.o
 .rel.text.fdtdec_get_chosen_prop
                0x000000008086e870        0x8 arch/arm/cpu/armv7/start.o
 .rel.text.fdtdec_prepare_fdt
                0x000000008086e878        0x8 arch/arm/cpu/armv7/start.o
 .rel.text.fdtdec_get_config_int
                0x000000008086e880        0x8 arch/arm/cpu/armv7/start.o
 .rel.text.fdtdec_get_config_bool
                0x000000008086e888        0x0 arch/arm/cpu/armv7/start.o
 .rel.text.fdtdec_get_config_string
                0x000000008086e888        0x8 arch/arm/cpu/armv7/start.o
 .rel.text.fdtdec_decode_display_timing
                0x000000008086e890        0x0 arch/arm/cpu/armv7/start.o
 .rel.text.fdtdec_setup_mem_size_base_fdt
                0x000000008086e890        0x0 arch/arm/cpu/armv7/start.o
 .rel.text.fdtdec_setup_memory_banksize_fdt
                0x000000008086e890        0x0 arch/arm/cpu/armv7/start.o
 .rel.text.board_fdt_blob_setup
                0x000000008086e890        0x8 arch/arm/cpu/armv7/start.o
 .rel.text.fdtdec_set_ethernet_mac_address
                0x000000008086e898        0x0 arch/arm/cpu/armv7/start.o
 .rel.text.fdtdec_add_reserved_memory
                0x000000008086e898        0x0 arch/arm/cpu/armv7/start.o
 .rel.text.fdtdec_get_carveout
                0x000000008086e898        0x0 arch/arm/cpu/armv7/start.o
 .rel.text.fdtdec_setup
                0x000000008086e898        0x8 arch/arm/cpu/armv7/start.o
 .rel.text.fdtdec_decode_ram_size
                0x000000008086e8a0        0x0 arch/arm/cpu/armv7/start.o
 .rel.text.match_string
                0x000000008086e8a0        0x8 arch/arm/cpu/armv7/start.o
 .rel.text.match_entry
                0x000000008086e8a8        0x8 arch/arm/cpu/armv7/start.o
 .rel.text.hcreate_r
                0x000000008086e8b0        0x8 arch/arm/cpu/armv7/start.o
 .rel.text.hdestroy_r
                0x000000008086e8b8        0x8 arch/arm/cpu/armv7/start.o
 .rel.text.hmatch_r
                0x000000008086e8c0        0x8 arch/arm/cpu/armv7/start.o
 .rel.text.hsearch_r
                0x000000008086e8c8        0x8 arch/arm/cpu/armv7/start.o
 .rel.text.hdelete_r
                0x000000008086e8d0        0x8 arch/arm/cpu/armv7/start.o
 .rel.text.hexport_r
                0x000000008086e8d8       0x18 arch/arm/cpu/armv7/start.o
 .rel.text.himport_r
                0x000000008086e8f0       0x20 arch/arm/cpu/armv7/start.o
 .rel.text.display_options_get_banner_priv
                0x000000008086e910       0x28 arch/arm/cpu/armv7/start.o
 .rel.text.display_options
                0x000000008086e938        0x8 arch/arm/cpu/armv7/start.o
 .rel.text.print_freq
                0x000000008086e940        0x0 arch/arm/cpu/armv7/start.o
 .rel.text.print_size
                0x000000008086e940       0x28 arch/arm/cpu/armv7/start.o
 .rel.text.print_buffer
                0x000000008086e968       0x28 arch/arm/cpu/armv7/start.o
 .rel.text.hang
                0x000000008086e990        0x8 arch/arm/cpu/armv7/start.o
 .rel.text.skip_spaces
                0x000000008086e998        0x8 arch/arm/cpu/armv7/start.o
 .rel.text.strim
                0x000000008086e9a0        0x8 arch/arm/cpu/armv7/start.o
 .rel.text.lmb_alloc_base
                0x000000008086e9a8        0x8 arch/arm/cpu/armv7/start.o
 .rel.text.emit
                0x000000008086e9b0        0x8 arch/arm/cpu/armv7/start.o
 .rel.text.store_char_in_data
                0x000000008086e9b8        0x8 arch/arm/cpu/armv7/start.o
 .rel.text.match
                0x000000008086e9c0       0x10 arch/arm/cpu/armv7/start.o
 .rel.text.quantifier
                0x000000008086e9d0        0x8 arch/arm/cpu/armv7/start.o
 .rel.text.fixup_branch
                0x000000008086e9d8        0x8 arch/arm/cpu/armv7/start.o
 .rel.text.compile
                0x000000008086e9e0       0x28 arch/arm/cpu/armv7/start.o
 .rel.text.slre_compile
                0x000000008086ea08        0x8 arch/arm/cpu/armv7/start.o
 .rel.text.strncasecmp
                0x000000008086ea10        0x8 arch/arm/cpu/armv7/start.o
 .rel.text.strtok
                0x000000008086ea18        0x8 arch/arm/cpu/armv7/start.o
 .rel.text.hex_dump_to_buffer
                0x000000008086ea20       0x38 arch/arm/cpu/armv7/start.o
 .rel.text.print_hex_dump
                0x000000008086ea58       0x18 arch/arm/cpu/armv7/start.o
 .rel.text.uuid_str_valid
                0x000000008086ea70        0x8 arch/arm/cpu/armv7/start.o
 .rel.text.uuid_bin_to_str
                0x000000008086ea78       0x20 arch/arm/cpu/armv7/start.o
 .rel.text.rand
                0x000000008086ea98        0x8 arch/arm/cpu/armv7/start.o
 .rel.text.srand
                0x000000008086eaa0        0x8 arch/arm/cpu/armv7/start.o
 .rel.text.__assert_fail
                0x000000008086eaa8        0x0 arch/arm/cpu/armv7/start.o
 .rel.text.number
                0x000000008086eaa8        0x8 arch/arm/cpu/armv7/start.o
 .rel.text.string16
                0x000000008086eab0        0x8 arch/arm/cpu/armv7/start.o
 .rel.text.string
                0x000000008086eab8        0x8 arch/arm/cpu/armv7/start.o
 .rel.text.vsnprintf_internal
                0x000000008086eac0       0x18 arch/arm/cpu/armv7/start.o
 .rel.text.simple_itoa
                0x000000008086ead8        0x8 arch/arm/cpu/armv7/start.o
 .rel.text.print_grouped_ull
                0x000000008086eae0        0x0 arch/arm/cpu/armv7/start.o
 .rel.text._parse_integer_fixup_radix
                0x000000008086eae0        0x8 arch/arm/cpu/armv7/start.o
 .rel.text.simple_strtoul
                0x000000008086eae8        0x8 arch/arm/cpu/armv7/start.o
 .rel.text.ustrtoul
                0x000000008086eaf0        0x8 arch/arm/cpu/armv7/start.o
 .rel.text.simple_strtoull
                0x000000008086eaf8        0x8 arch/arm/cpu/armv7/start.o
 .rel.text.ustrtoull
                0x000000008086eb00        0x8 arch/arm/cpu/armv7/start.o
 .rel.text.trailing_strtoln
                0x000000008086eb08        0x8 arch/arm/cpu/armv7/start.o
 .rel.text.strmhz
                0x000000008086eb10        0x0 arch/arm/cpu/armv7/start.o
 .rel.rodata.driver_ops
                0x000000008086eb10       0x18 arch/arm/cpu/armv7/start.o
 .rel.rodata.efi_blk_ops
                0x000000008086eb28       0x10 arch/arm/cpu/armv7/start.o
 .rel.rodata.efi_device_path_to_text
                0x000000008086eb38       0x10 arch/arm/cpu/armv7/start.o
 .rel.rodata.efi_device_path_utilities
                0x000000008086eb48       0x40 arch/arm/cpu/armv7/start.o
 .rel.rodata.efi_file_handle_protocol
                0x000000008086eb88       0x70 arch/arm/cpu/armv7/start.o
 .rel.rodata.efi_hii_database
                0x000000008086ebf8       0x58 arch/arm/cpu/armv7/start.o
 .rel.rodata.efi_hii_string
                0x000000008086ec50       0x28 arch/arm/cpu/armv7/start.o
 .rel.rodata.efi_hii_config_access
                0x000000008086ec78        0x0 arch/arm/cpu/armv7/start.o
 .rel.rodata.efi_hii_config_routing
                0x000000008086ec78       0x30 arch/arm/cpu/armv7/start.o
 .rel.rodata.efi_unicode_collation_protocol2
                0x000000008086eca8       0x38 arch/arm/cpu/armv7/start.o
 .rel.rodata.fdt_errtable
                0x000000008086ece0       0x88 arch/arm/cpu/armv7/start.o
 .rel.rodata.smbios_write_funcs
                0x000000008086ed68       0x38 arch/arm/cpu/armv7/start.o
 .rel.rodata.z_errmsg
                0x000000008086eda0        0x0 arch/arm/cpu/armv7/start.o
 .rel.rodata.compat_names
                0x000000008086eda0        0x0 arch/arm/cpu/armv7/start.o
 .rel.u_boot_list_2_uclass_2_efi
                0x000000008086eda0       0x18 arch/arm/cpu/armv7/start.o
 .rel.u_boot_list_2_driver_2_efi_blk
                0x000000008086edb8       0x10 arch/arm/cpu/armv7/start.o
 .rel.u_boot_list_2_driver_2_efi_block
                0x000000008086edc8       0x10 arch/arm/cpu/armv7/start.o
 .rel.data.efi_boot_services
                0x000000008086edd8      0x158 arch/arm/cpu/armv7/start.o
 .rel.data.efi_event_queue
                0x000000008086ef30       0x10 arch/arm/cpu/armv7/start.o
 .rel.data.efi_obj_list
                0x000000008086ef40       0x10 arch/arm/cpu/armv7/start.o
 .rel.data.efi_register_notify_events
                0x000000008086ef50       0x10 arch/arm/cpu/armv7/start.o
 .rel.data.cin_notify_functions
                0x000000008086ef60       0x10 arch/arm/cpu/armv7/start.o
 .rel.data.efi_con_in
                0x000000008086ef70       0x10 arch/arm/cpu/armv7/start.o
 .rel.data.efi_con_in_ex
                0x000000008086ef80       0x28 arch/arm/cpu/armv7/start.o
 .rel.data.efi_con_out
                0x000000008086efa8       0x50 arch/arm/cpu/armv7/start.o
 .rel.data.efi_keyboard_layout_list
                0x000000008086eff8       0x10 arch/arm/cpu/armv7/start.o
 .rel.data.efi_package_lists
                0x000000008086f008       0x10 arch/arm/cpu/armv7/start.o
 .rel.data.efi_mem
                0x000000008086f018       0x10 arch/arm/cpu/armv7/start.o
 .rel.data.efi_runtime_mmio
                0x000000008086f028       0x10 arch/arm/cpu/armv7/start.o
 .rel.data.current
                0x000000008086f038        0x0 arch/arm/cpu/armv7/start.o
 .rel.text.arp_init
                0x000000008086f038       0x30 arch/arm/cpu/armv7/start.o
 .rel.text.arp_raw_request
                0x000000008086f068       0x18 arch/arm/cpu/armv7/start.o
 .rel.text.arp_request
                0x000000008086f080       0x38 arch/arm/cpu/armv7/start.o
 .rel.text.arp_timeout_check
                0x000000008086f0b8       0x28 arch/arm/cpu/armv7/start.o
 .rel.text.arp_receive
                0x000000008086f0e0       0x40 arch/arm/cpu/armv7/start.o
 .rel.text.arp_is_waiting
                0x000000008086f120        0x8 arch/arm/cpu/armv7/start.o
 .rel.text.dhcp_extended
                0x000000008086f128       0x30 arch/arm/cpu/armv7/start.o
 .rel.text.dhcp_process_options
                0x000000008086f158       0x78 arch/arm/cpu/armv7/start.o
 .rel.text.dhcp_packet_process_options
                0x000000008086f1d0        0x8 arch/arm/cpu/armv7/start.o
 .rel.text.dhcp_handler
                0x000000008086f1d8       0x98 arch/arm/cpu/armv7/start.o
 .rel.text.bootp_reset
                0x000000008086f270       0x20 arch/arm/cpu/armv7/start.o
 .rel.text.bootp_request
                0x000000008086f290       0x78 arch/arm/cpu/armv7/start.o
 .rel.text.bootp_timeout_handler
                0x000000008086f308       0x28 arch/arm/cpu/armv7/start.o
 .rel.text.eth_write_hwaddr
                0x000000008086f330       0x10 arch/arm/cpu/armv7/start.o
 .rel.text.eth_post_probe
                0x000000008086f340       0x40 arch/arm/cpu/armv7/start.o
 .rel.text.eth_post_bind
                0x000000008086f380        0x8 arch/arm/cpu/armv7/start.o
 .rel.text.eth_get_dev
                0x000000008086f388        0x8 arch/arm/cpu/armv7/start.o
 .rel.text.eth_set_dev
                0x000000008086f390        0x8 arch/arm/cpu/armv7/start.o
 .rel.text.eth_get_dev_by_name
                0x000000008086f398        0x8 arch/arm/cpu/armv7/start.o
 .rel.text.eth_init
                0x000000008086f3a0       0x28 arch/arm/cpu/armv7/start.o
 .rel.text.eth_initialize
                0x000000008086f3c8       0x28 arch/arm/cpu/armv7/start.o
 .rel.text.eth_env_get_enetaddr_by_index
                0x000000008086f3f0       0x10 arch/arm/cpu/armv7/start.o
 .rel.text.eth_env_set_enetaddr_by_index
                0x000000008086f400       0x10 arch/arm/cpu/armv7/start.o
 .rel.text.eth_mac_skip
                0x000000008086f410       0x10 arch/arm/cpu/armv7/start.o
 .rel.text.eth_get_name
                0x000000008086f420        0x8 arch/arm/cpu/armv7/start.o
 .rel.text.eth_current_changed
                0x000000008086f428       0x18 arch/arm/cpu/armv7/start.o
 .rel.text.eth_try_another
                0x000000008086f440       0x20 arch/arm/cpu/armv7/start.o
 .rel.text.eth_set_current
                0x000000008086f460       0x20 arch/arm/cpu/armv7/start.o
 .rel.text.net_clear_handlers
                0x000000008086f480       0x20 arch/arm/cpu/armv7/start.o
 .rel.text.start_again_timeout_handler
                0x000000008086f4a0        0x8 arch/arm/cpu/armv7/start.o
 .rel.text.on_ipaddr
                0x000000008086f4a8        0x8 arch/arm/cpu/armv7/start.o
 .rel.text.on_gatewayip
                0x000000008086f4b0        0x8 arch/arm/cpu/armv7/start.o
 .rel.text.on_netmask
                0x000000008086f4b8        0x8 arch/arm/cpu/armv7/start.o
 .rel.text.on_serverip
                0x000000008086f4c0        0x8 arch/arm/cpu/armv7/start.o
 .rel.text.net_init_loop.part.0
                0x000000008086f4c8        0x8 arch/arm/cpu/armv7/start.o
 .rel.text.net_init
                0x000000008086f4d0       0x20 arch/arm/cpu/armv7/start.o
 .rel.text.net_start_again
                0x000000008086f4f0       0x78 arch/arm/cpu/armv7/start.o
 .rel.text.net_get_udp_handler
                0x000000008086f568        0x0 arch/arm/cpu/armv7/start.o
 .rel.text.net_set_udp_handler
                0x000000008086f568       0x10 arch/arm/cpu/armv7/start.o
 .rel.text.net_get_arp_handler
                0x000000008086f578        0x8 arch/arm/cpu/armv7/start.o
 .rel.text.net_set_arp_handler
                0x000000008086f580        0x0 arch/arm/cpu/armv7/start.o
 .rel.text.net_set_timeout_handler
                0x000000008086f580       0x18 arch/arm/cpu/armv7/start.o
 .rel.text.net_get_async_tx_pkt_buf
                0x000000008086f598       0x10 arch/arm/cpu/armv7/start.o
 .rel.text.net_process_received_packet
                0x000000008086f5a8       0x40 arch/arm/cpu/armv7/start.o
 .rel.text.net_eth_hdr_size
                0x000000008086f5e8        0x8 arch/arm/cpu/armv7/start.o
 .rel.text.net_set_ether
                0x000000008086f5f0       0x10 arch/arm/cpu/armv7/start.o
 .rel.text.net_update_ether
                0x000000008086f600        0x8 arch/arm/cpu/armv7/start.o
 .rel.text.net_set_ip_header
                0x000000008086f608        0x8 arch/arm/cpu/armv7/start.o
 .rel.text.net_set_udp_header
                0x000000008086f610        0x8 arch/arm/cpu/armv7/start.o
 .rel.text.net_send_ip_packet
                0x000000008086f618       0x40 arch/arm/cpu/armv7/start.o
 .rel.text.is_serverip_in_cmd
                0x000000008086f658        0x8 arch/arm/cpu/armv7/start.o
 .rel.text.net_check_prereq
                0x000000008086f660       0x58 arch/arm/cpu/armv7/start.o
 .rel.text.net_auto_load
                0x000000008086f6b8       0x28 arch/arm/cpu/armv7/start.o
 .rel.text.net_loop
                0x000000008086f6e0       0x78 arch/arm/cpu/armv7/start.o
 .rel.text.net_parse_bootfile
                0x000000008086f758        0x8 arch/arm/cpu/armv7/start.o
 .rel.text.ip_to_string
                0x000000008086f760        0x8 arch/arm/cpu/armv7/start.o
 .rel.text.vlan_to_string
                0x000000008086f768        0x0 arch/arm/cpu/armv7/start.o
 .rel.text.on_nvlan
                0x000000008086f768        0x8 arch/arm/cpu/armv7/start.o
 .rel.text.on_vlan
                0x000000008086f770        0x8 arch/arm/cpu/armv7/start.o
 .rel.text.rpc_lookup_reply
                0x000000008086f778       0x18 arch/arm/cpu/armv7/start.o
 .rel.text.nfs_mount_reply
                0x000000008086f790       0x18 arch/arm/cpu/armv7/start.o
 .rel.text.nfs_umountall_reply
                0x000000008086f7a8       0x18 arch/arm/cpu/armv7/start.o
 .rel.text.nfs_lookup_reply
                0x000000008086f7c0       0x30 arch/arm/cpu/armv7/start.o
 .rel.text.nfs_readlink_reply
                0x000000008086f7f0       0x20 arch/arm/cpu/armv7/start.o
 .rel.text.nfs_read_reply
                0x000000008086f810       0x30 arch/arm/cpu/armv7/start.o
 .rel.text.rpc_req
                0x000000008086f840       0x40 arch/arm/cpu/armv7/start.o
 .rel.text.nfs_read_req
                0x000000008086f880       0x18 arch/arm/cpu/armv7/start.o
 .rel.text.nfs_readlink_req
                0x000000008086f898       0x18 arch/arm/cpu/armv7/start.o
 .rel.text.nfs_lookup_req
                0x000000008086f8b0       0x10 arch/arm/cpu/armv7/start.o
 .rel.text.nfs_umountall_req
                0x000000008086f8c0       0x10 arch/arm/cpu/armv7/start.o
 .rel.text.nfs_send
                0x000000008086f8d0       0x30 arch/arm/cpu/armv7/start.o
 .rel.text.nfs_handler
                0x000000008086f900       0x70 arch/arm/cpu/armv7/start.o
 .rel.text.nfs_timeout_handler
                0x000000008086f970       0x20 arch/arm/cpu/armv7/start.o
 .rel.text.nfs_start
                0x000000008086f990       0xd0 arch/arm/cpu/armv7/start.o
 .rel.text.ping_timeout_handler
                0x000000008086fa60        0x8 arch/arm/cpu/armv7/start.o
 .rel.text.ping_start
                0x000000008086fa68       0x58 arch/arm/cpu/armv7/start.o
 .rel.text.ping_receive
                0x000000008086fac0       0x18 arch/arm/cpu/armv7/start.o
 .rel.text.tftp_send
                0x000000008086fad8       0x80 arch/arm/cpu/armv7/start.o
 .rel.text.tftp_handler
                0x000000008086fb58       0xe0 arch/arm/cpu/armv7/start.o
 .rel.text.tftp_timeout_handler
                0x000000008086fc38       0x40 arch/arm/cpu/armv7/start.o
 .rel.text.tftp_start
                0x000000008086fc78      0x168 arch/arm/cpu/armv7/start.o
 .rel.u_boot_list_2_env_clbk_2_ethaddr
                0x000000008086fde0       0x10 arch/arm/cpu/armv7/start.o
 .rel.u_boot_list_2_uclass_2_eth
                0x000000008086fdf0       0x28 arch/arm/cpu/armv7/start.o
 .rel.u_boot_list_2_env_clbk_2_gatewayip
                0x000000008086fe18       0x10 arch/arm/cpu/armv7/start.o
 .rel.u_boot_list_2_env_clbk_2_ipaddr
                0x000000008086fe28       0x10 arch/arm/cpu/armv7/start.o
 .rel.u_boot_list_2_env_clbk_2_netmask
                0x000000008086fe38       0x10 arch/arm/cpu/armv7/start.o
 .rel.u_boot_list_2_env_clbk_2_nvlan
                0x000000008086fe48       0x10 arch/arm/cpu/armv7/start.o
 .rel.u_boot_list_2_env_clbk_2_serverip
                0x000000008086fe58       0x10 arch/arm/cpu/armv7/start.o
 .rel.u_boot_list_2_env_clbk_2_vlan
                0x000000008086fe68       0x10 arch/arm/cpu/armv7/start.o
 .rel.text.raise
                0x000000008086fe78        0x0 arch/arm/cpu/armv7/start.o

.rel_dyn_end    0x000000008086fe78        0x0
 *(.__rel_dyn_end)
 .__rel_dyn_end
                0x000000008086fe78        0x0 arch/arm/lib/built-in.o

.hash           0x000000008086fe78       0x18
 *(.hash*)
 .hash          0x000000008086fe78       0x18 arch/arm/cpu/armv7/start.o

.end            0x000000008086fe90        0x0
 *(.__end)
 .__end         0x000000008086fe90        0x0 arch/arm/lib/built-in.o
                0x000000008086fe90                _image_binary_end = .
                0x0000000080870000                . = ALIGN (0x1000)

.mmutable
 *(.mmutable)

.bss_start      0x0000000080862cf0        0x0
 *(.__bss_start)
 .__bss_start   0x0000000080862cf0        0x0 arch/arm/lib/built-in.o
                0x0000000080862cf0                __bss_start
                0x0000000080862cf0                __bss_base = .

.bss            0x0000000080862cf0    0x1b390
 *(.bss*)
 .bss.params    0x0000000080862cf0        0x4 arch/arm/lib/built-in.o
 .bss.bootefi_device_path
                0x0000000080862cf4        0x4 cmd/built-in.o
 .bss.bootefi_image_path
                0x0000000080862cf8        0x4 cmd/built-in.o
 .bss.eeprom_i2c_bus
                0x0000000080862cfc        0x4 cmd/built-in.o
                0x0000000080862cfc                eeprom_i2c_bus
 .bss.data.9360
                0x0000000080862d00      0x400 cmd/built-in.o
 .bss.working_fdt
                0x0000000080863100        0x4 cmd/built-in.o
                0x0000000080863100                working_fdt
 .bss.i2c_cur_bus
                0x0000000080863104        0x4 cmd/built-in.o
 .bss.i2c_dp_last_addr
                0x0000000080863108        0x4 cmd/built-in.o
 .bss.i2c_dp_last_alen
                0x000000008086310c        0x4 cmd/built-in.o
 .bss.i2c_dp_last_chip
                0x0000000080863110        0x4 cmd/built-in.o
 .bss.i2c_mm_last_addr
                0x0000000080863114        0x4 cmd/built-in.o
 .bss.i2c_mm_last_alen
                0x0000000080863118        0x4 cmd/built-in.o
 .bss.i2c_mm_last_chip
                0x000000008086311c        0x4 cmd/built-in.o
 .bss.a_b       0x0000000080863120       0x18 cmd/built-in.o
 .bss.bin_start_address
                0x0000000080863138        0x4 cmd/built-in.o
 .bss.his_eol   0x000000008086313c        0x1 cmd/built-in.o
 .bss.his_pad_char
                0x000000008086313d        0x1 cmd/built-in.o
 *fill*         0x000000008086313e        0x2 
 .bss.his_pad_count
                0x0000000080863140        0x4 cmd/built-in.o
 .bss.his_quote
                0x0000000080863144        0x1 cmd/built-in.o
 *fill*         0x0000000080863145        0x3 
 .bss.k_data_escape
                0x0000000080863148        0x4 cmd/built-in.o
 .bss.k_data_escape_saved
                0x000000008086314c        0x4 cmd/built-in.o
 .bss.os_data_addr
                0x0000000080863150        0x4 cmd/built-in.o
 .bss.os_data_addr_saved
                0x0000000080863154        0x4 cmd/built-in.o
 .bss.os_data_char
                0x0000000080863158        0x4 cmd/built-in.o
 .bss.os_data_init
                0x000000008086315c        0x4 cmd/built-in.o
 .bss.os_data_state
                0x0000000080863160        0x4 cmd/built-in.o
 .bss.os_data_state_saved
                0x0000000080863164        0x4 cmd/built-in.o
 .bss.send_parms
                0x0000000080863168       0x14 cmd/built-in.o
 .bss.send_ptr  0x000000008086317c        0x4 cmd/built-in.o
 .bss.base_address
                0x0000000080863180        0x4 cmd/built-in.o
 .bss.dp_last_addr
                0x0000000080863184        0x4 cmd/built-in.o
 .bss.dp_last_size
                0x0000000080863188        0x4 cmd/built-in.o
 .bss.mm_last_addr
                0x000000008086318c        0x4 cmd/built-in.o
 .bss.mm_last_size
                0x0000000080863190        0x4 cmd/built-in.o
 .bss.last_addr_hi
                0x0000000080863194        0x8 cmd/built-in.o
 .bss.last_addr_lo
                0x000000008086319c        0x8 cmd/built-in.o
 .bss.last_data
                0x00000000808631a4        0x8 cmd/built-in.o
 .bss.last_mask
                0x00000000808631ac        0x4 cmd/built-in.o
 .bss.last_op   0x00000000808631b0        0x4 cmd/built-in.o
 .bss.last_reg_hi
                0x00000000808631b4        0x8 cmd/built-in.o
 .bss.last_reg_lo
                0x00000000808631bc        0x8 cmd/built-in.o
 .bss.last_devad_hi
                0x00000000808631c4        0x4 cmd/built-in.o
 .bss.last_devad_lo
                0x00000000808631c8        0x4 cmd/built-in.o
 .bss.do_getfile
                0x00000000808631cc        0x4 cmd/built-in.o
 .bss.fs_argv   0x00000000808631d0       0x14 cmd/built-in.o
 .bss.is_pxe    0x00000000808631e4        0x1 cmd/built-in.o
 *fill*         0x00000000808631e5        0x3 
 .bss.flash     0x00000000808631e8        0x4 cmd/built-in.o
 .bss.bitlen    0x00000000808631ec        0x4 cmd/built-in.o
 .bss.bus       0x00000000808631f0        0x4 cmd/built-in.o
 .bss.cs        0x00000000808631f4        0x4 cmd/built-in.o
 .bss.din       0x00000000808631f8       0x20 cmd/built-in.o
 .bss.dout      0x0000000080863218       0x20 cmd/built-in.o
 .bss.mode      0x0000000080863238        0x4 cmd/built-in.o
 .bss.buf.9676  0x000000008086323c       0x28 common/built-in.o
 .bss.do_repeat
                0x0000000080863264        0x4 common/built-in.o
 .bss.flag_repeat
                0x0000000080863268        0x4 common/built-in.o
 .bss.ifs       0x000000008086326c        0x4 common/built-in.o
 .bss.last_return_code
                0x0000000080863270        0x4 common/built-in.o
 .bss.map       0x0000000080863274      0x100 common/built-in.o
 .bss.the_command.9476
                0x0000000080863374      0x401 common/built-in.o
 *fill*         0x0000000080863775        0x3 
 .bss.top_vars  0x0000000080863778        0x4 common/built-in.o
 .bss.stored_bootdelay
                0x000000008086377c        0x4 common/built-in.o
 .bss.monitor_flash_len
                0x0000000080863780        0x4 common/built-in.o
                0x0000000080863780                monitor_flash_len
 .bss.images    0x0000000080863784      0x164 common/built-in.o
                0x0000000080863784                images
 .bss.current_mii
                0x00000000808638e8        0x4 common/built-in.o
 .bss.mii_devs  0x00000000808638ec        0x8 common/built-in.o
 .bss.usb_started
                0x00000000808638f4        0x1 common/built-in.o
                0x00000000808638f4                usb_started
 *fill*         0x00000000808638f5        0x3 
 .bss.running.11143
                0x00000000808638f8        0x4 common/built-in.o
 .bss.CBWTag    0x00000000808638fc        0x4 common/built-in.o
 *fill*         0x0000000080863900        0x0 
 .bss.usb_ccb   0x0000000080863900       0xc0 common/built-in.o
 .bss.usb_max_devs
                0x00000000808639c0        0x4 common/built-in.o
 .bss.console_buffer
                0x00000000808639c4      0x401 common/built-in.o
                0x00000000808639c4                console_buffer
 *fill*         0x0000000080863dc5        0x3 
 .bss.hist_add_idx
                0x0000000080863dc8        0x4 common/built-in.o
 .bss.hist_lines
                0x0000000080863dcc     0x5014 common/built-in.o
 .bss.hist_list
                0x0000000080868de0       0x50 common/built-in.o
 .bss.hist_max  0x0000000080868e30        0x4 common/built-in.o
 .bss.hist_num  0x0000000080868e34        0x4 common/built-in.o
 .bss.initted.9339
                0x0000000080868e38        0x4 common/built-in.o
 .bss.ctrlc_disabled
                0x0000000080868e3c        0x4 common/built-in.o
 .bss.ctrlc_was_pressed
                0x0000000080868e40        0x4 common/built-in.o
 .bss.current_mallinfo
                0x0000000080868e44       0x28 common/built-in.o
 .bss.max_sbrked_mem
                0x0000000080868e6c        0x4 common/built-in.o
 .bss.max_total_mem
                0x0000000080868e70        0x4 common/built-in.o
 .bss.mem_malloc_brk
                0x0000000080868e74        0x4 common/built-in.o
                0x0000000080868e74                mem_malloc_brk
 .bss.mem_malloc_end
                0x0000000080868e78        0x4 common/built-in.o
                0x0000000080868e78                mem_malloc_end
 .bss.mem_malloc_start
                0x0000000080868e7c        0x4 common/built-in.o
                0x0000000080868e7c                mem_malloc_start
 .bss.top_pad   0x0000000080868e80        0x4 common/built-in.o
 .bss.andr_tmp_str
                0x0000000080868e84      0x201 common/built-in.o
 *fill*         0x0000000080869085        0x3 
 .bss.devs      0x0000000080869088       0x4c common/built-in.o
 .bss.stdio_devices
                0x00000000808690d4        0xc common/built-in.o
                0x00000000808690d4                stdio_devices
 .bss.env_complete_buf
                0x00000000808690e0      0x200 common/built-in.o
 .bss.tmp_buf   0x00000000808692e0      0x401 common/built-in.o
 *fill*         0x00000000808696e1        0x3 
 .bss.xyz       0x00000000808696e4      0x434 common/built-in.o
 *fill*         0x0000000080869b18       0x28 
 .bss.tmpbuf    0x0000000080869b40      0x800 disk/built-in.o
 .bss.name.9316
                0x000000008086a340       0x25 disk/built-in.o
 *fill*         0x000000008086a365        0x3 
 .bss.alt_num_cnt
                0x000000008086a368        0x4 drivers/built-in.o
 .bss.dfu_alt_num
                0x000000008086a36c        0x4 drivers/built-in.o
 .bss.dfu_buf   0x000000008086a370        0x4 drivers/built-in.o
 .bss.dfu_buf_size
                0x000000008086a374        0x4 drivers/built-in.o
 .bss.dfu_hash_algo
                0x000000008086a378        0x4 drivers/built-in.o
 .bss.dfu_file_buf
                0x000000008086a37c        0x4 drivers/built-in.o
 .bss.dfu_file_buf_filled
                0x000000008086a380        0x4 drivers/built-in.o
 *fill*         0x000000008086a384        0x4 
 .bss.dfu_file_buf_len
                0x000000008086a388        0x8 drivers/built-in.o
 .bss.boot_addr_start.9200
                0x000000008086a390       0x14 drivers/built-in.o
 .bss.fastboot_buf_addr
                0x000000008086a3a4        0x4 drivers/built-in.o
                0x000000008086a3a4                fastboot_buf_addr
 .bss.fastboot_buf_size
                0x000000008086a3a8        0x4 drivers/built-in.o
                0x000000008086a3a8                fastboot_buf_size
 .bss.fastboot_progress_callback
                0x000000008086a3ac        0x4 drivers/built-in.o
                0x000000008086a3ac                fastboot_progress_callback
 .bss.fastboot_bytes_expected
                0x000000008086a3b0        0x4 drivers/built-in.o
 .bss.fastboot_bytes_received
                0x000000008086a3b4        0x4 drivers/built-in.o
 .bss.initialized.11188
                0x000000008086a3b8        0x4 drivers/built-in.o
 .bss.omap2_pdata
                0x000000008086a3bc        0x4 drivers/spi/built-in.o
 .bss.epnum     0x000000008086a3c0        0x4 drivers/usb/gadget/built-in.o
 .bss.composite
                0x000000008086a3c4        0x4 drivers/usb/gadget/built-in.o
 .bss.g_dnl_detach_request
                0x000000008086a3c8        0x1 drivers/usb/gadget/built-in.o
 .bss.g_dnl_serial
                0x000000008086a3c9      0x100 drivers/usb/gadget/built-in.o
 *fill*         0x000000008086a4c9        0x3 
 .bss.dfu_defer_flush
                0x000000008086a4cc        0x4 drivers/usb/gadget/built-in.o
                0x000000008086a4cc                dfu_defer_flush
 .bss.fastboot_func
                0x000000008086a4d0        0x4 drivers/usb/gadget/built-in.o
 *fill*         0x000000008086a4d4       0x2c 
 .bss.__control_req
                0x000000008086a500      0x100 drivers/usb/gadget/built-in.o
 .bss.__status_req
                0x000000008086a600       0x40 drivers/usb/gadget/built-in.o
 .bss.dev_addr  0x000000008086a640       0x12 drivers/usb/gadget/built-in.o
 *fill*         0x000000008086a652        0x2 
 .bss.eth_priv  0x000000008086a654       0xd4 drivers/usb/gadget/built-in.o
                0x000000008086a654                eth_priv
 .bss.ethaddr   0x000000008086a728        0xd drivers/usb/gadget/built-in.o
 .bss.host_addr
                0x000000008086a735       0x12 drivers/usb/gadget/built-in.o
 .bss.manufacturer
                0x000000008086a747       0x32 drivers/usb/gadget/built-in.o
 *fill*         0x000000008086a779        0x3 
 .bss.packet_received
                0x000000008086a77c        0x4 drivers/usb/gadget/built-in.o
                0x000000008086a77c                packet_received
 .bss.packet_sent
                0x000000008086a780        0x4 drivers/usb/gadget/built-in.o
                0x000000008086a780                packet_sent
 .bss.rndis_resp_buf
                0x000000008086a784        0x8 drivers/usb/gadget/built-in.o
 .bss.serial_number
                0x000000008086a78c       0x14 drivers/usb/gadget/built-in.o
 .bss.rndis_per_dev_params
                0x000000008086a7a0       0x3c drivers/usb/gadget/built-in.o
 .bss.dev_array
                0x000000008086a7dc       0x10 drivers/usb/gadget/udc/built-in.o
 .bss.asynch_allowed
                0x000000008086a7ec        0x1 drivers/usb/host/built-in.o
 .bss.env_flags
                0x000000008086a7ed        0x1 env/built-in.o
 *fill*         0x000000008086a7ee        0x2 
 .bss.callback_list
                0x000000008086a7f0        0x4 env/built-in.o
 .bss.flags_list
                0x000000008086a7f4        0x4 env/built-in.o
 .bss.env_mmc_orig_hwpart
                0x000000008086a7f8        0x1 env/built-in.o
 *fill*         0x000000008086a7f9        0x3 
 .bss.fs_dev_desc
                0x000000008086a7fc        0x4 fs/built-in.o
 .bss.fs_dev_part
                0x000000008086a800        0x4 fs/built-in.o
 .bss.fs_partition
                0x000000008086a804       0x78 fs/built-in.o
 .bss.fs_type   0x000000008086a87c        0x4 fs/built-in.o
 .bss.ext_fs    0x000000008086a880       0x48 fs/built-in.o
                0x000000008086a880                ext_fs
 .bss.ext4fs_file
                0x000000008086a8c8        0x4 fs/built-in.o
                0x000000008086a8c8                ext4fs_file
 .bss.ext4fs_indir1_block
                0x000000008086a8cc        0x4 fs/built-in.o
                0x000000008086a8cc                ext4fs_indir1_block
 .bss.ext4fs_indir1_size
                0x000000008086a8d0        0x4 fs/built-in.o
                0x000000008086a8d0                ext4fs_indir1_size
 .bss.ext4fs_indir2_block
                0x000000008086a8d4        0x4 fs/built-in.o
                0x000000008086a8d4                ext4fs_indir2_block
 .bss.ext4fs_indir2_size
                0x000000008086a8d8        0x4 fs/built-in.o
                0x000000008086a8d8                ext4fs_indir2_size
 .bss.ext4fs_indir3_block
                0x000000008086a8dc        0x4 fs/built-in.o
                0x000000008086a8dc                ext4fs_indir3_block
 .bss.ext4fs_indir3_size
                0x000000008086a8e0        0x4 fs/built-in.o
                0x000000008086a8e0                ext4fs_indir3_size
 .bss.ext4fs_root
                0x000000008086a8e4        0x4 fs/built-in.o
                0x000000008086a8e4                ext4fs_root
 .bss.g_parent_inode
                0x000000008086a8e8        0x4 fs/built-in.o
                0x000000008086a8e8                g_parent_inode
 .bss.symlinknest
                0x000000008086a8ec        0x4 fs/built-in.o
 .bss.part_info
                0x000000008086a8f0        0x4 fs/built-in.o
 .bss.part_offset
                0x000000008086a8f4        0x4 fs/built-in.o
                0x000000008086a8f4                part_offset
 .bss.dirty_block_ptr
                0x000000008086a8f8      0x190 fs/built-in.o
                0x000000008086a8f8                dirty_block_ptr
 .bss.gd_index  0x000000008086aa88        0x4 fs/built-in.o
                0x000000008086aa88                gd_index
 .bss.gindex    0x000000008086aa8c        0x4 fs/built-in.o
                0x000000008086aa8c                gindex
 .bss.journal_ptr
                0x000000008086aa90      0x190 fs/built-in.o
                0x000000008086aa90                journal_ptr
 .bss.jrnl_blk_idx
                0x000000008086ac20        0x4 fs/built-in.o
                0x000000008086ac20                jrnl_blk_idx
 .bss.prev_node
                0x000000008086ac24        0x4 fs/built-in.o
 .bss.revk_blk_list
                0x000000008086ac28        0x4 fs/built-in.o
 .bss.cur_dev   0x000000008086ac2c        0x4 fs/built-in.o
 .bss.cur_part_info
                0x000000008086ac30       0x78 fs/built-in.o
 *fill*         0x000000008086aca8       0x18 
 .bss.tmpbuf_cluster
                0x000000008086acc0    0x10000 fs/built-in.o
 .bss.total_sector
                0x000000008087acc0        0x4 fs/built-in.o
 .bss.rs        0x000000008087acc4        0x4 lib/built-in.o
 .bss.app_gd    0x000000008087acc8        0x4 lib/built-in.o
 .bss.current_image
                0x000000008087accc        0x4 lib/built-in.o
 .bss.efi_gd    0x000000008087acd0        0x4 lib/built-in.o
 *fill*         0x000000008087acd4        0x4 
 .bss.mono.11842
                0x000000008087acd8        0x8 lib/built-in.o
 .bss.ret.11771
                0x000000008087ace0        0x4 lib/built-in.o
 .bss.console_timer_event
                0x000000008087ace4        0x4 lib/built-in.o
 .bss.key_available
                0x000000008087ace8        0x1 lib/built-in.o
 *fill*         0x000000008087ace9        0x3 
 .bss.next_key  0x000000008087acec        0xc lib/built-in.o
 .bss.efi_memory_map_key
                0x000000008087acf8        0x4 lib/built-in.o
                0x000000008087acf8                efi_memory_map_key
 .bss.efi_root  0x000000008087acfc        0x4 lib/built-in.o
                0x000000008087acfc                efi_root
 .bss.efi_variables_list
                0x000000008087ad00        0x4 lib/built-in.o
 .bss.watchdog_timer_event
                0x000000008087ad04        0x4 lib/built-in.o
 .bss.dhcp_ack  0x000000008087ad08        0x4 lib/built-in.o
 .bss.network_timer_event
                0x000000008087ad0c        0x4 lib/built-in.o
 .bss.new_rx_packet
                0x000000008087ad10        0x1 lib/built-in.o
 *fill*         0x000000008087ad11        0x3 
 .bss.new_tx_packet
                0x000000008087ad14        0x4 lib/built-in.o
 .bss.transmit_buffer
                0x000000008087ad18        0x4 lib/built-in.o
 .bss.wait_for_packet
                0x000000008087ad1c        0x4 lib/built-in.o
 .bss.errno     0x000000008087ad20        0x4 lib/built-in.o
                0x000000008087ad20                errno
 .bss.___strtok
                0x000000008087ad24        0x4 lib/built-in.o
                0x000000008087ad24                ___strtok
 .bss.local.11434
                0x000000008087ad28       0x16 lib/built-in.o
 *fill*         0x000000008087ad3e        0x2 
 .bss.arp_tx_packet
                0x000000008087ad40        0x4 net/built-in.o
                0x000000008087ad40                arp_tx_packet
 .bss.arp_tx_packet_buf
                0x000000008087ad44      0x640 net/built-in.o
 .bss.arp_wait_packet_ethaddr
                0x000000008087b384        0x4 net/built-in.o
                0x000000008087b384                arp_wait_packet_ethaddr
 .bss.arp_wait_timer_start
                0x000000008087b388        0x4 net/built-in.o
                0x000000008087b388                arp_wait_timer_start
 .bss.arp_wait_try
                0x000000008087b38c        0x4 net/built-in.o
                0x000000008087b38c                arp_wait_try
 .bss.arp_wait_tx_packet_size
                0x000000008087b390        0x4 net/built-in.o
                0x000000008087b390                arp_wait_tx_packet_size
 .bss.net_arp_wait_packet_ip
                0x000000008087b394        0x4 net/built-in.o
                0x000000008087b394                net_arp_wait_packet_ip
 .bss.net_arp_wait_reply_ip
                0x000000008087b398        0x4 net/built-in.o
 .bss.bootp_ids
                0x000000008087b39c       0x10 net/built-in.o
                0x000000008087b39c                bootp_ids
 .bss.bootp_num_ids
                0x000000008087b3ac        0x4 net/built-in.o
                0x000000008087b3ac                bootp_num_ids
 .bss.bootp_start
                0x000000008087b3b0        0x4 net/built-in.o
                0x000000008087b3b0                bootp_start
 .bss.bootp_timeout
                0x000000008087b3b4        0x4 net/built-in.o
                0x000000008087b3b4                bootp_timeout
 .bss.bootp_try
                0x000000008087b3b8        0x4 net/built-in.o
                0x000000008087b3b8                bootp_try
 .bss.dhcp_leasetime
                0x000000008087b3bc        0x4 net/built-in.o
 .bss.dhcp_option_overload
                0x000000008087b3c0        0x1 net/built-in.o
 *fill*         0x000000008087b3c1        0x3 
 .bss.dhcp_server_ip
                0x000000008087b3c4        0x4 net/built-in.o
 .bss.dhcp_state
                0x000000008087b3c8        0x4 net/built-in.o
 .bss.net_hostname
                0x000000008087b3cc       0x20 net/built-in.o
                0x000000008087b3cc                net_hostname
 .bss.net_nis_domain
                0x000000008087b3ec       0x20 net/built-in.o
                0x000000008087b3ec                net_nis_domain
 .bss.net_root_path
                0x000000008087b40c       0x40 net/built-in.o
                0x000000008087b40c                net_root_path
 .bss.time_taken_max
                0x000000008087b44c        0x4 net/built-in.o
 .bss.eth_errno
                0x000000008087b450        0x4 net/built-in.o
 .bss.act.10685
                0x000000008087b454        0x4 net/built-in.o
 .bss.env_changed_id.10686
                0x000000008087b458        0x4 net/built-in.o
 .bss.first_failed.10680
                0x000000008087b45c        0x4 net/built-in.o
 .bss.arp_packet_handler
                0x000000008087b460        0x4 net/built-in.o
 .bss.net_boot_file_expected_size_in_blocks
                0x000000008087b464        0x4 net/built-in.o
                0x000000008087b464                net_boot_file_expected_size_in_blocks
 .bss.net_boot_file_name
                0x000000008087b468      0x400 net/built-in.o
                0x000000008087b468                net_boot_file_name
 .bss.net_boot_file_name_explicit
                0x000000008087b868        0x1 net/built-in.o
                0x000000008087b868                net_boot_file_name_explicit
 *fill*         0x000000008087b869        0x3 
 .bss.net_boot_file_size
                0x000000008087b86c        0x4 net/built-in.o
                0x000000008087b86c                net_boot_file_size
 .bss.net_dev_exists
                0x000000008087b870        0x4 net/built-in.o
 .bss.net_dns_server
                0x000000008087b874        0x4 net/built-in.o
                0x000000008087b874                net_dns_server
 .bss.net_dns_server2
                0x000000008087b878        0x4 net/built-in.o
                0x000000008087b878                net_dns_server2
 .bss.net_ethaddr
                0x000000008087b87c        0x6 net/built-in.o
                0x000000008087b87c                net_ethaddr
 *fill*         0x000000008087b882        0x2 
 .bss.net_gateway
                0x000000008087b884        0x4 net/built-in.o
                0x000000008087b884                net_gateway
 .bss.net_ip    0x000000008087b888        0x4 net/built-in.o
                0x000000008087b888                net_ip
 .bss.net_ip_id
                0x000000008087b88c        0x4 net/built-in.o
 .bss.net_netmask
                0x000000008087b890        0x4 net/built-in.o
                0x000000008087b890                net_netmask
 .bss.net_null_ethaddr
                0x000000008087b894        0x6 net/built-in.o
                0x000000008087b894                net_null_ethaddr
 .bss.net_pkt_buf
                0x000000008087b89a     0x1e40 net/built-in.o
 *fill*         0x000000008087d6da        0x2 
 .bss.net_restart_wrap
                0x000000008087d6dc        0x4 net/built-in.o
                0x000000008087d6dc                net_restart_wrap
 .bss.net_restarted
                0x000000008087d6e0        0x4 net/built-in.o
 .bss.net_rx_packet
                0x000000008087d6e4        0x4 net/built-in.o
                0x000000008087d6e4                net_rx_packet
 .bss.net_rx_packet_len
                0x000000008087d6e8        0x4 net/built-in.o
                0x000000008087d6e8                net_rx_packet_len
 .bss.net_rx_packets
                0x000000008087d6ec       0x10 net/built-in.o
                0x000000008087d6ec                net_rx_packets
 .bss.net_server_ethaddr
                0x000000008087d6fc        0x6 net/built-in.o
                0x000000008087d6fc                net_server_ethaddr
 *fill*         0x000000008087d702        0x2 
 .bss.net_server_ip
                0x000000008087d704        0x4 net/built-in.o
                0x000000008087d704                net_server_ip
 .bss.net_state
                0x000000008087d708        0x4 net/built-in.o
                0x000000008087d708                net_state
 .bss.net_try_count
                0x000000008087d70c        0x4 net/built-in.o
 .bss.net_tx_packet
                0x000000008087d710        0x4 net/built-in.o
                0x000000008087d710                net_tx_packet
 .bss.push_packet
                0x000000008087d714        0x4 net/built-in.o
                0x000000008087d714                push_packet
 .bss.time_delta
                0x000000008087d718        0x4 net/built-in.o
 .bss.time_handler
                0x000000008087d71c        0x4 net/built-in.o
 .bss.time_start
                0x000000008087d720        0x8 net/built-in.o
 .bss.udp_packet_handler
                0x000000008087d728        0x4 net/built-in.o
 .bss.dirfh     0x000000008087d72c       0x20 net/built-in.o
 .bss.filefh    0x000000008087d74c       0x40 net/built-in.o
 .bss.filefh3_length
                0x000000008087d78c        0x4 net/built-in.o
 .bss.fs_mounted
                0x000000008087d790        0x4 net/built-in.o
 .bss.nfs_download_state
                0x000000008087d794        0x4 net/built-in.o
 .bss.nfs_filename
                0x000000008087d798        0x4 net/built-in.o
 .bss.nfs_len   0x000000008087d79c        0x4 net/built-in.o
 .bss.nfs_our_port
                0x000000008087d7a0        0x4 net/built-in.o
 .bss.nfs_path  0x000000008087d7a4        0x4 net/built-in.o
 .bss.nfs_path_buff
                0x000000008087d7a8      0x800 net/built-in.o
 .bss.nfs_server_ip
                0x000000008087dfa8        0x4 net/built-in.o
 .bss.nfs_server_mount_port
                0x000000008087dfac        0x4 net/built-in.o
 .bss.nfs_server_port
                0x000000008087dfb0        0x4 net/built-in.o
 .bss.nfs_state
                0x000000008087dfb4        0x4 net/built-in.o
 .bss.nfs_timeout_count
                0x000000008087dfb8        0x4 net/built-in.o
 .bss.rpc_id    0x000000008087dfbc        0x4 net/built-in.o
 .bss.net_ping_ip
                0x000000008087dfc0        0x4 net/built-in.o
                0x000000008087dfc0                net_ping_ip
 .bss.ping_seq_number
                0x000000008087dfc4        0x2 net/built-in.o
 .bss.default_filename
                0x000000008087dfc6        0xd net/built-in.o
 *fill*         0x000000008087dfd3        0x1 
 .bss.tftp_block_wrap
                0x000000008087dfd4        0x4 net/built-in.o
 .bss.tftp_block_wrap_offset
                0x000000008087dfd8        0x4 net/built-in.o
 .bss.tftp_cur_block
                0x000000008087dfdc        0x4 net/built-in.o
 .bss.tftp_filename
                0x000000008087dfe0       0x80 net/built-in.o
 .bss.tftp_load_addr
                0x000000008087e060        0x4 net/built-in.o
 .bss.tftp_load_size
                0x000000008087e064        0x4 net/built-in.o
 .bss.tftp_our_port
                0x000000008087e068        0x4 net/built-in.o
 .bss.tftp_prev_block
                0x000000008087e06c        0x4 net/built-in.o
 .bss.tftp_remote_ip
                0x000000008087e070        0x4 net/built-in.o
 .bss.tftp_remote_port
                0x000000008087e074        0x4 net/built-in.o
 .bss.tftp_state
                0x000000008087e078        0x4 net/built-in.o
 .bss.timeout_count
                0x000000008087e07c        0x4 net/built-in.o
                0x000000008087e080                . = ALIGN (0x4)
                0x000000008087e080                __bss_limit = .

.bss_end        0x000000008087e080        0x0
 *(.__bss_end)
 .__bss_end     0x000000008087e080        0x0 arch/arm/lib/built-in.o
                0x000000008087e080                __bss_end

.dynsym         0x000000008086fe90       0x30
 *(.dynsym)
 .dynsym        0x000000008086fe90       0x30 arch/arm/cpu/armv7/start.o

.dynbss         0x000000008086fec0        0x0
 *(.dynbss)
 .dynbss        0x000000008086fec0        0x0 arch/arm/cpu/armv7/start.o

.dynstr         0x000000008086fec0        0x1
 *(.dynstr*)
 .dynstr        0x000000008086fec0        0x1 arch/arm/cpu/armv7/start.o

.dynamic        0x000000008086fec4       0x88
 *(.dynamic*)
 .dynamic       0x000000008086fec4       0x88 arch/arm/cpu/armv7/start.o
                0x000000008086fec4                _DYNAMIC

.gnu.hash
 *(.gnu.hash)

.plt            0x000000008086ff4c        0x0
 *(.plt*)
 .plt           0x000000008086ff4c        0x0 arch/arm/cpu/armv7/start.o

.interp
 *(.interp*)

.gnu            0x000000008086ff4c        0x0
 *(.gnu*)
 .gnu.version_d
                0x000000008086ff4c        0x0 arch/arm/cpu/armv7/start.o
 .gnu.version   0x000000008086ff4c        0x0 arch/arm/cpu/armv7/start.o
 .gnu.version_r
                0x000000008086ff4c        0x0 arch/arm/cpu/armv7/start.o

.ARM.exidx
 *(.ARM.exidx*)
LOAD arch/arm/cpu/armv7/start.o
START GROUP
LOAD arch/arm/cpu/built-in.o
LOAD arch/arm/cpu/armv7/built-in.o
LOAD arch/arm/lib/built-in.o
LOAD arch/arm/mach-omap2/built-in.o
LOAD board/ti/am335x/built-in.o
LOAD board/ti/common/built-in.o
LOAD cmd/built-in.o
LOAD common/built-in.o
LOAD disk/built-in.o
LOAD drivers/built-in.o
LOAD drivers/dma/built-in.o
LOAD drivers/gpio/built-in.o
LOAD drivers/i2c/built-in.o
LOAD drivers/mtd/built-in.o
LOAD drivers/mtd/onenand/built-in.o
LOAD drivers/mtd/spi/built-in.o
LOAD drivers/net/built-in.o
LOAD drivers/net/phy/built-in.o
LOAD drivers/power/built-in.o
LOAD drivers/power/battery/built-in.o
LOAD drivers/power/domain/built-in.o
LOAD drivers/power/fuel_gauge/built-in.o
LOAD drivers/power/mfd/built-in.o
LOAD drivers/power/pmic/built-in.o
LOAD drivers/power/regulator/built-in.o
LOAD drivers/serial/built-in.o
LOAD drivers/spi/built-in.o
LOAD drivers/usb/common/built-in.o
LOAD drivers/usb/dwc3/built-in.o
LOAD drivers/usb/emul/built-in.o
LOAD drivers/usb/eth/built-in.o
LOAD drivers/usb/gadget/built-in.o
LOAD drivers/usb/gadget/udc/built-in.o
LOAD drivers/usb/host/built-in.o
LOAD drivers/usb/musb-new/built-in.o
LOAD drivers/usb/musb/built-in.o
LOAD drivers/usb/phy/built-in.o
LOAD drivers/usb/ulpi/built-in.o
LOAD env/built-in.o
LOAD fs/built-in.o
LOAD lib/built-in.o
LOAD net/built-in.o
END GROUP
LOAD arch/arm/lib/eabi_compat.o
LOAD arch/arm/lib/lib.a
OUTPUT(u-boot elf32-littlearm)

.ARM.attributes
                0x0000000000000000       0x2d
 .ARM.attributes
                0x0000000000000000       0x1f arch/arm/cpu/armv7/start.o
 .ARM.attributes
                0x000000000000001f       0x2d board/ti/am335x/built-in.o
 .ARM.attributes
                0x000000000000004c       0x2d arch/arm/cpu/armv7/built-in.o
 .ARM.attributes
                0x0000000000000079       0x2b arch/arm/lib/built-in.o
 .ARM.attributes
                0x00000000000000a4       0x2f arch/arm/mach-omap2/built-in.o
 .ARM.attributes
                0x00000000000000d3       0x2d board/ti/common/built-in.o
 .ARM.attributes
                0x0000000000000100       0x2d cmd/built-in.o
 .ARM.attributes
                0x000000000000012d       0x2d common/built-in.o
 .ARM.attributes
                0x000000000000015a       0x2d disk/built-in.o
 .ARM.attributes
                0x0000000000000187       0x2f drivers/built-in.o
 .ARM.attributes
                0x00000000000001b6       0x2d drivers/gpio/built-in.o
 .ARM.attributes
                0x00000000000001e3       0x2d drivers/i2c/built-in.o
 .ARM.attributes
                0x0000000000000210       0x2d drivers/mtd/built-in.o
 .ARM.attributes
                0x000000000000023d       0x2f drivers/mtd/spi/built-in.o
 .ARM.attributes
                0x000000000000026c       0x2d drivers/net/built-in.o
 .ARM.attributes
                0x0000000000000299       0x2d drivers/net/phy/built-in.o
 .ARM.attributes
                0x00000000000002c6       0x2d drivers/serial/built-in.o
 .ARM.attributes
                0x00000000000002f3       0x2d drivers/spi/built-in.o
 .ARM.attributes
                0x0000000000000320       0x2d drivers/usb/common/built-in.o
 .ARM.attributes
                0x000000000000034d       0x2d drivers/usb/gadget/built-in.o
 .ARM.attributes
                0x000000000000037a       0x2d drivers/usb/gadget/udc/built-in.o
 .ARM.attributes
                0x00000000000003a7       0x2d drivers/usb/host/built-in.o
 .ARM.attributes
                0x00000000000003d4       0x2d drivers/usb/musb-new/built-in.o
 .ARM.attributes
                0x0000000000000401       0x2d env/built-in.o
 .ARM.attributes
                0x000000000000042e       0x2d fs/built-in.o
 .ARM.attributes
                0x000000000000045b       0x2f lib/built-in.o
 .ARM.attributes
                0x000000000000048a       0x2d net/built-in.o
 .ARM.attributes
                0x00000000000004b7       0x1f arch/arm/lib/lib.a(lib1funcs.o)
 .ARM.attributes
                0x00000000000004d6       0x2d arch/arm/lib/lib.a(div0.o)

.comment        0x0000000000000000       0x74
 .comment       0x0000000000000000       0x74 board/ti/am335x/built-in.o
                                         0x75 (size before relaxing)
 .comment       0x0000000000000074      0x1d4 arch/arm/cpu/armv7/built-in.o
 .comment       0x0000000000000074      0x492 arch/arm/lib/built-in.o
 .comment       0x0000000000000074      0x7c5 arch/arm/mach-omap2/built-in.o
 .comment       0x0000000000000074       0x75 board/ti/common/built-in.o
 .comment       0x0000000000000074     0x1506 cmd/built-in.o
 .comment       0x0000000000000074      0xfff common/built-in.o
 .comment       0x0000000000000074      0x1d4 disk/built-in.o
 .comment       0x0000000000000074      0xfff drivers/built-in.o
 .comment       0x0000000000000074       0xea drivers/gpio/built-in.o
 .comment       0x0000000000000074       0xea drivers/i2c/built-in.o
 .comment       0x0000000000000074       0xea drivers/mtd/built-in.o
 .comment       0x0000000000000074      0x1d4 drivers/mtd/spi/built-in.o
 .comment       0x0000000000000074      0x15f drivers/net/built-in.o
 .comment       0x0000000000000074      0x15f drivers/net/phy/built-in.o
 .comment       0x0000000000000074      0x15f drivers/serial/built-in.o
 .comment       0x0000000000000074      0x15f drivers/spi/built-in.o
 .comment       0x0000000000000074       0x75 drivers/usb/common/built-in.o
 .comment       0x0000000000000074      0x3a8 drivers/usb/gadget/built-in.o
 .comment       0x0000000000000074       0xea drivers/usb/gadget/udc/built-in.o
 .comment       0x0000000000000074       0x75 drivers/usb/host/built-in.o
 .comment       0x0000000000000074      0x333 drivers/usb/musb-new/built-in.o
 .comment       0x0000000000000074      0x333 env/built-in.o
 .comment       0x0000000000000074      0x41d fs/built-in.o
 .comment       0x0000000000000074     0x2247 lib/built-in.o
 .comment       0x0000000000000074      0x41d net/built-in.o
 .comment       0x0000000000000074       0x75 arch/arm/lib/lib.a(div0.o)

.note.GNU-stack
                0x0000000000000000        0x0
 .note.GNU-stack
                0x0000000000000000        0x0 board/ti/am335x/built-in.o
 .note.GNU-stack
                0x0000000000000000        0x0 arch/arm/cpu/armv7/built-in.o
 .note.GNU-stack
                0x0000000000000000        0x0 arch/arm/lib/built-in.o
 .note.GNU-stack
                0x0000000000000000        0x0 arch/arm/mach-omap2/built-in.o
 .note.GNU-stack
                0x0000000000000000        0x0 board/ti/common/built-in.o
 .note.GNU-stack
                0x0000000000000000        0x0 cmd/built-in.o
 .note.GNU-stack
                0x0000000000000000        0x0 common/built-in.o
 .note.GNU-stack
                0x0000000000000000        0x0 disk/built-in.o
 .note.GNU-stack
                0x0000000000000000        0x0 drivers/built-in.o
 .note.GNU-stack
                0x0000000000000000        0x0 drivers/gpio/built-in.o
 .note.GNU-stack
                0x0000000000000000        0x0 drivers/i2c/built-in.o
 .note.GNU-stack
                0x0000000000000000        0x0 drivers/mtd/built-in.o
 .note.GNU-stack
                0x0000000000000000        0x0 drivers/mtd/spi/built-in.o
 .note.GNU-stack
                0x0000000000000000        0x0 drivers/net/built-in.o
 .note.GNU-stack
                0x0000000000000000        0x0 drivers/net/phy/built-in.o
 .note.GNU-stack
                0x0000000000000000        0x0 drivers/serial/built-in.o
 .note.GNU-stack
                0x0000000000000000        0x0 drivers/spi/built-in.o
 .note.GNU-stack
                0x0000000000000000        0x0 drivers/usb/common/built-in.o
 .note.GNU-stack
                0x0000000000000000        0x0 drivers/usb/gadget/built-in.o
 .note.GNU-stack
                0x0000000000000000        0x0 drivers/usb/gadget/udc/built-in.o
 .note.GNU-stack
                0x0000000000000000        0x0 drivers/usb/host/built-in.o
 .note.GNU-stack
                0x0000000000000000        0x0 drivers/usb/musb-new/built-in.o
 .note.GNU-stack
                0x0000000000000000        0x0 env/built-in.o
 .note.GNU-stack
                0x0000000000000000        0x0 fs/built-in.o
 .note.GNU-stack
                0x0000000000000000        0x0 lib/built-in.o
 .note.GNU-stack
                0x0000000000000000        0x0 net/built-in.o
 .note.GNU-stack
                0x0000000000000000        0x0 arch/arm/lib/lib.a(div0.o)

.debug_line     0x0000000000000000    0x6a3a3
 .debug_line    0x0000000000000000       0xc8 arch/arm/cpu/armv7/start.o
 .debug_line    0x00000000000000c8      0x6c5 board/ti/am335x/built-in.o
 .debug_line    0x000000000000078d      0xf35 arch/arm/cpu/armv7/built-in.o
 .debug_line    0x00000000000016c2     0x29ff arch/arm/lib/built-in.o
 .debug_line    0x00000000000040c1     0x4554 arch/arm/mach-omap2/built-in.o
 .debug_line    0x0000000000008615      0x76c board/ti/common/built-in.o
 .debug_line    0x0000000000008d81     0xeb18 cmd/built-in.o
 .debug_line    0x0000000000017899     0xe42e common/built-in.o
 .debug_line    0x0000000000025cc7     0x1b21 disk/built-in.o
 .debug_line    0x00000000000277e8     0xc948 drivers/built-in.o
 .debug_line    0x0000000000034130      0xf6e drivers/gpio/built-in.o
 .debug_line    0x000000000003509e     0x1058 drivers/i2c/built-in.o
 .debug_line    0x00000000000360f6     0x1116 drivers/mtd/built-in.o
 .debug_line    0x000000000003720c     0x18a3 drivers/mtd/spi/built-in.o
 .debug_line    0x0000000000038aaf     0x1391 drivers/net/built-in.o
 .debug_line    0x0000000000039e40     0x127b drivers/net/phy/built-in.o
 .debug_line    0x000000000003b0bb     0x115d drivers/serial/built-in.o
 .debug_line    0x000000000003c218     0x129a drivers/spi/built-in.o
 .debug_line    0x000000000003d4b2      0x44c drivers/usb/common/built-in.o
 .debug_line    0x000000000003d8fe     0x3fb5 drivers/usb/gadget/built-in.o
 .debug_line    0x00000000000418b3      0xb18 drivers/usb/gadget/udc/built-in.o
 .debug_line    0x00000000000423cb      0x8c4 drivers/usb/host/built-in.o
 .debug_line    0x0000000000042c8f     0x446c drivers/usb/musb-new/built-in.o
 .debug_line    0x00000000000470fb     0x2142 env/built-in.o
 .debug_line    0x000000000004923d     0x4fe8 fs/built-in.o
 .debug_line    0x000000000004e225    0x18327 lib/built-in.o
 .debug_line    0x000000000006654c     0x3cba net/built-in.o
 .debug_line    0x000000000006a206      0x126 arch/arm/lib/lib.a(lib1funcs.o)
 .debug_line    0x000000000006a32c       0x77 arch/arm/lib/lib.a(div0.o)

.debug_info     0x0000000000000000   0x276be2
 .debug_info    0x0000000000000000       0xb3 arch/arm/cpu/armv7/start.o
 .debug_info    0x00000000000000b3     0x442b board/ti/am335x/built-in.o
 .debug_info    0x00000000000044de     0x3312 arch/arm/cpu/armv7/built-in.o
 .debug_info    0x00000000000077f0     0xc613 arch/arm/lib/built-in.o
 .debug_info    0x0000000000013e03    0x211d7 arch/arm/mach-omap2/built-in.o
 .debug_info    0x0000000000034fda     0x40d9 board/ti/common/built-in.o
 .debug_info    0x00000000000390b3    0x52ebf cmd/built-in.o
 .debug_info    0x000000000008bf72    0x4d2f6 common/built-in.o
 .debug_info    0x00000000000d9268     0x8a0f disk/built-in.o
 .debug_info    0x00000000000e1c77    0x46221 drivers/built-in.o
 .debug_info    0x0000000000127e98     0x5528 drivers/gpio/built-in.o
 .debug_info    0x000000000012d3c0     0x67cc drivers/i2c/built-in.o
 .debug_info    0x0000000000133b8c     0x5de5 drivers/mtd/built-in.o
 .debug_info    0x0000000000139971     0xa597 drivers/mtd/spi/built-in.o
 .debug_info    0x0000000000143f08     0x8333 drivers/net/built-in.o
 .debug_info    0x000000000014c23b     0x6fbd drivers/net/phy/built-in.o
 .debug_info    0x00000000001531f8     0x6ae5 drivers/serial/built-in.o
 .debug_info    0x0000000000159cdd     0x6d15 drivers/spi/built-in.o
 .debug_info    0x00000000001609f2     0x1206 drivers/usb/common/built-in.o
 .debug_info    0x0000000000161bf8    0x17522 drivers/usb/gadget/built-in.o
 .debug_info    0x000000000017911a     0x3bfa drivers/usb/gadget/udc/built-in.o
 .debug_info    0x000000000017cd14     0x36f3 drivers/usb/host/built-in.o
 .debug_info    0x0000000000180407    0x2047a drivers/usb/musb-new/built-in.o
 .debug_info    0x00000000001a0881     0xabe1 env/built-in.o
 .debug_info    0x00000000001ab462    0x1da49 fs/built-in.o
 .debug_info    0x00000000001c8eab    0x980ec lib/built-in.o
 .debug_info    0x0000000000260f97    0x15b47 net/built-in.o
 .debug_info    0x0000000000276ade       0xad arch/arm/lib/lib.a(lib1funcs.o)
 .debug_info    0x0000000000276b8b       0x57 arch/arm/lib/lib.a(div0.o)

.debug_abbrev   0x0000000000000000    0x44607
 .debug_abbrev  0x0000000000000000       0x14 arch/arm/cpu/armv7/start.o
 .debug_abbrev  0x0000000000000014      0x420 board/ti/am335x/built-in.o
 .debug_abbrev  0x0000000000000434      0x961 arch/arm/cpu/armv7/built-in.o
 .debug_abbrev  0x0000000000000d95     0x19ac arch/arm/lib/built-in.o
 .debug_abbrev  0x0000000000002741     0x2abd arch/arm/mach-omap2/built-in.o
 .debug_abbrev  0x00000000000051fe      0x4fe board/ti/common/built-in.o
 .debug_abbrev  0x00000000000056fc     0x9f5d cmd/built-in.o
 .debug_abbrev  0x000000000000f659     0x8dd9 common/built-in.o
 .debug_abbrev  0x0000000000018432     0x143f disk/built-in.o
 .debug_abbrev  0x0000000000019871     0x852d drivers/built-in.o
 .debug_abbrev  0x0000000000021d9e      0x9f9 drivers/gpio/built-in.o
 .debug_abbrev  0x0000000000022797      0xaed drivers/i2c/built-in.o
 .debug_abbrev  0x0000000000023284      0xa4f drivers/mtd/built-in.o
 .debug_abbrev  0x0000000000023cd3      0xe91 drivers/mtd/spi/built-in.o
 .debug_abbrev  0x0000000000024b64      0xd04 drivers/net/built-in.o
 .debug_abbrev  0x0000000000025868      0xc22 drivers/net/phy/built-in.o
 .debug_abbrev  0x000000000002648a      0xd68 drivers/serial/built-in.o
 .debug_abbrev  0x00000000000271f2      0xd75 drivers/spi/built-in.o
 .debug_abbrev  0x0000000000027f67      0x271 drivers/usb/common/built-in.o
 .debug_abbrev  0x00000000000281d8     0x26b7 drivers/usb/gadget/built-in.o
 .debug_abbrev  0x000000000002a88f      0x83b drivers/usb/gadget/udc/built-in.o
 .debug_abbrev  0x000000000002b0ca      0x5b4 drivers/usb/host/built-in.o
 .debug_abbrev  0x000000000002b67e     0x2863 drivers/usb/musb-new/built-in.o
 .debug_abbrev  0x000000000002dee1     0x1a9e env/built-in.o
 .debug_abbrev  0x000000000002f97f     0x29e3 fs/built-in.o
 .debug_abbrev  0x0000000000032362     0xfb63 lib/built-in.o
 .debug_abbrev  0x0000000000041ec5     0x26d2 net/built-in.o
 .debug_abbrev  0x0000000000044597       0x12 arch/arm/lib/lib.a(lib1funcs.o)
 .debug_abbrev  0x00000000000445a9       0x5e arch/arm/lib/lib.a(div0.o)

.debug_aranges  0x0000000000000000     0x7358
 .debug_aranges
                0x0000000000000000       0x20 arch/arm/cpu/armv7/start.o
 .debug_aranges
                0x0000000000000020       0x38 board/ti/am335x/built-in.o
 .debug_aranges
                0x0000000000000058      0x120 arch/arm/cpu/armv7/built-in.o
 .debug_aranges
                0x0000000000000178      0x320 arch/arm/lib/built-in.o
 .debug_aranges
                0x0000000000000498      0x390 arch/arm/mach-omap2/built-in.o
 .debug_aranges
                0x0000000000000828       0xd0 board/ti/common/built-in.o
 .debug_aranges
                0x00000000000008f8      0xb78 cmd/built-in.o
 .debug_aranges
                0x0000000000001470     0x1148 common/built-in.o
 .debug_aranges
                0x00000000000025b8      0x1c0 disk/built-in.o
 .debug_aranges
                0x0000000000002778      0xe70 drivers/built-in.o
 .debug_aranges
                0x00000000000035e8      0x1e0 drivers/gpio/built-in.o
 .debug_aranges
                0x00000000000037c8      0x138 drivers/i2c/built-in.o
 .debug_aranges
                0x0000000000003900      0x1b8 drivers/mtd/built-in.o
 .debug_aranges
                0x0000000000003ab8      0x148 drivers/mtd/spi/built-in.o
 .debug_aranges
                0x0000000000003c00      0x118 drivers/net/built-in.o
 .debug_aranges
                0x0000000000003d18      0x128 drivers/net/phy/built-in.o
 .debug_aranges
                0x0000000000003e40      0x180 drivers/serial/built-in.o
 .debug_aranges
                0x0000000000003fc0      0x158 drivers/spi/built-in.o
 .debug_aranges
                0x0000000000004118       0x28 drivers/usb/common/built-in.o
 .debug_aranges
                0x0000000000004140      0x470 drivers/usb/gadget/built-in.o
 .debug_aranges
                0x00000000000045b0       0xb0 drivers/usb/gadget/udc/built-in.o
 .debug_aranges
                0x0000000000004660       0xd0 drivers/usb/host/built-in.o
 .debug_aranges
                0x0000000000004730      0x320 drivers/usb/musb-new/built-in.o
 .debug_aranges
                0x0000000000004a50      0x208 env/built-in.o
 .debug_aranges
                0x0000000000004c58      0x568 fs/built-in.o
 .debug_aranges
                0x00000000000051c0     0x1cf8 lib/built-in.o
 .debug_aranges
                0x0000000000006eb8      0x438 net/built-in.o
 .debug_aranges
                0x00000000000072f0       0x48 arch/arm/lib/lib.a(lib1funcs.o)
 .debug_aranges
                0x0000000000007338       0x20 arch/arm/lib/lib.a(div0.o)

.debug_frame    0x0000000000000000    0x158dc
 .debug_frame   0x0000000000000000       0xa4 board/ti/am335x/built-in.o
 .debug_frame   0x00000000000000a4      0x1ec arch/arm/cpu/armv7/built-in.o
 .debug_frame   0x0000000000000290      0x4a8 arch/arm/lib/built-in.o
 .debug_frame   0x0000000000000738      0x658 arch/arm/mach-omap2/built-in.o
 .debug_frame   0x0000000000000d90      0x298 board/ti/common/built-in.o
 .debug_frame   0x0000000000001028     0x2060 cmd/built-in.o
 .debug_frame   0x0000000000003088     0x3660 common/built-in.o
 .debug_frame   0x00000000000066e8      0x6a0 disk/built-in.o
 .debug_frame   0x0000000000006d88     0x29f4 drivers/built-in.o
 .debug_frame   0x000000000000977c      0x664 drivers/gpio/built-in.o
 .debug_frame   0x0000000000009de0      0x470 drivers/i2c/built-in.o
 .debug_frame   0x000000000000a250      0x728 drivers/mtd/built-in.o
 .debug_frame   0x000000000000a978      0x3b8 drivers/mtd/spi/built-in.o
 .debug_frame   0x000000000000ad30      0x36c drivers/net/built-in.o
 .debug_frame   0x000000000000b09c      0x340 drivers/net/phy/built-in.o
 .debug_frame   0x000000000000b3dc      0x3d4 drivers/serial/built-in.o
 .debug_frame   0x000000000000b7b0      0x424 drivers/spi/built-in.o
 .debug_frame   0x000000000000bbd4       0x50 drivers/usb/common/built-in.o
 .debug_frame   0x000000000000bc24      0xccc drivers/usb/gadget/built-in.o
 .debug_frame   0x000000000000c8f0      0x184 drivers/usb/gadget/udc/built-in.o
 .debug_frame   0x000000000000ca74      0x2b8 drivers/usb/host/built-in.o
 .debug_frame   0x000000000000cd2c      0xa80 drivers/usb/musb-new/built-in.o
 .debug_frame   0x000000000000d7ac      0x5ec env/built-in.o
 .debug_frame   0x000000000000dd98     0x13c4 fs/built-in.o
 .debug_frame   0x000000000000f15c     0x5a08 lib/built-in.o
 .debug_frame   0x0000000000014b64      0xd58 net/built-in.o
 .debug_frame   0x00000000000158bc       0x20 arch/arm/lib/lib.a(div0.o)

.debug_str      0x0000000000000000    0x2cc5f
 .debug_str     0x0000000000000000     0x41da board/ti/am335x/built-in.o
                                       0x464c (size before relaxing)
 .debug_str     0x00000000000041da      0x42b arch/arm/cpu/armv7/built-in.o
                                       0x2fc0 (size before relaxing)
 .debug_str     0x0000000000004605     0x23f6 arch/arm/lib/built-in.o
                                       0xb9d4 (size before relaxing)
 .debug_str     0x00000000000069fb     0x21c0 arch/arm/mach-omap2/built-in.o
                                      0x26af6 (size before relaxing)
 .debug_str     0x0000000000008bbb      0x4dd board/ti/common/built-in.o
                                       0x3f6e (size before relaxing)
 .debug_str     0x0000000000009098     0x69da cmd/built-in.o
                                      0x42426 (size before relaxing)
 .debug_str     0x000000000000fa72     0x5129 common/built-in.o
                                      0x3a04d (size before relaxing)
 .debug_str     0x0000000000014b9b      0xac5 disk/built-in.o
                                       0x5939 (size before relaxing)
 .debug_str     0x0000000000015660     0x3c7a drivers/built-in.o
                                      0x36234 (size before relaxing)
 .debug_str     0x00000000000192da      0x5a7 drivers/gpio/built-in.o
                                       0x366b (size before relaxing)
 .debug_str     0x0000000000019881      0x7c7 drivers/i2c/built-in.o
                                       0x38bb (size before relaxing)
 .debug_str     0x000000000001a048      0xbf2 drivers/mtd/built-in.o
                                       0x3cad (size before relaxing)
 .debug_str     0x000000000001ac3a      0xb18 drivers/mtd/spi/built-in.o
                                       0x7929 (size before relaxing)
 .debug_str     0x000000000001b752      0xb39 drivers/net/built-in.o
                                       0x58a3 (size before relaxing)
 .debug_str     0x000000000001c28b      0x3bc drivers/net/phy/built-in.o
                                       0x5093 (size before relaxing)
 .debug_str     0x000000000001c647      0x7e2 drivers/serial/built-in.o
                                       0x5170 (size before relaxing)
 .debug_str     0x000000000001ce29      0x4c3 drivers/spi/built-in.o
                                       0x4c04 (size before relaxing)
 .debug_str     0x000000000001d2ec       0xe8 drivers/usb/common/built-in.o
                                       0x1408 (size before relaxing)
 .debug_str     0x000000000001d3d4     0x1e43 drivers/usb/gadget/built-in.o
                                       0xe9f4 (size before relaxing)
 .debug_str     0x000000000001f217      0x2db drivers/usb/gadget/udc/built-in.o
                                       0x3446 (size before relaxing)
 .debug_str     0x000000000001f4f2      0x28e drivers/usb/host/built-in.o
                                       0x2180 (size before relaxing)
 .debug_str     0x000000000001f780     0x1b6d drivers/usb/musb-new/built-in.o
                                      0x13285 (size before relaxing)
 .debug_str     0x00000000000212ed      0xa46 env/built-in.o
                                       0x9bab (size before relaxing)
 .debug_str     0x0000000000021d33     0x2031 fs/built-in.o
                                      0x10771 (size before relaxing)
 .debug_str     0x0000000000023d64     0x7931 lib/built-in.o
                                      0x69402 (size before relaxing)
 .debug_str     0x000000000002b695     0x157a net/built-in.o
                                      0x1182d (size before relaxing)
 .debug_str     0x000000000002cc0f       0x50 arch/arm/lib/lib.a(div0.o)
                                        0x274 (size before relaxing)

.debug_loc      0x0000000000000000    0xb9d78
 .debug_loc     0x0000000000000000      0x524 board/ti/am335x/built-in.o
 .debug_loc     0x0000000000000524      0x41e arch/arm/cpu/armv7/built-in.o
 .debug_loc     0x0000000000000942      0xdff arch/arm/lib/built-in.o
 .debug_loc     0x0000000000001741     0x20ef arch/arm/mach-omap2/built-in.o
 .debug_loc     0x0000000000003830      0xaad board/ti/common/built-in.o
 .debug_loc     0x00000000000042dd    0x15daf cmd/built-in.o
 .debug_loc     0x000000000001a08c    0x19950 common/built-in.o
 .debug_loc     0x00000000000339dc     0x2ff7 disk/built-in.o
 .debug_loc     0x00000000000369d3    0x11214 drivers/built-in.o
 .debug_loc     0x0000000000047be7     0x2133 drivers/gpio/built-in.o
 .debug_loc     0x0000000000049d1a     0x3501 drivers/i2c/built-in.o
 .debug_loc     0x000000000004d21b     0x2815 drivers/mtd/built-in.o
 .debug_loc     0x000000000004fa30     0x1b79 drivers/mtd/spi/built-in.o
 .debug_loc     0x00000000000515a9     0x2710 drivers/net/built-in.o
 .debug_loc     0x0000000000053cb9     0x203d drivers/net/phy/built-in.o
 .debug_loc     0x0000000000055cf6     0x12ec drivers/serial/built-in.o
 .debug_loc     0x0000000000056fe2     0x254e drivers/spi/built-in.o
 .debug_loc     0x0000000000059530      0x122 drivers/usb/common/built-in.o
 .debug_loc     0x0000000000059652     0x822e drivers/usb/gadget/built-in.o
 .debug_loc     0x0000000000061880      0x752 drivers/usb/gadget/udc/built-in.o
 .debug_loc     0x0000000000061fd2     0x1768 drivers/usb/host/built-in.o
 .debug_loc     0x000000000006373a     0xa557 drivers/usb/musb-new/built-in.o
 .debug_loc     0x000000000006dc91     0x22a5 env/built-in.o
 .debug_loc     0x000000000006ff36     0xec37 fs/built-in.o
 .debug_loc     0x000000000007eb6d    0x35bbe lib/built-in.o
 .debug_loc     0x00000000000b472b     0x564d net/built-in.o

.debug_ranges   0x0000000000000000    0x113f8
 .debug_ranges  0x0000000000000000      0x120 board/ti/am335x/built-in.o
 .debug_ranges  0x0000000000000120      0x108 arch/arm/cpu/armv7/built-in.o
 .debug_ranges  0x0000000000000228      0x310 arch/arm/lib/built-in.o
 .debug_ranges  0x0000000000000538      0x558 arch/arm/mach-omap2/built-in.o
 .debug_ranges  0x0000000000000a90      0x110 board/ti/common/built-in.o
 .debug_ranges  0x0000000000000ba0     0x1da8 cmd/built-in.o
 .debug_ranges  0x0000000000002948     0x2620 common/built-in.o
 .debug_ranges  0x0000000000004f68      0x4c8 disk/built-in.o
 .debug_ranges  0x0000000000005430     0x1ed8 drivers/built-in.o
 .debug_ranges  0x0000000000007308      0x290 drivers/gpio/built-in.o
 .debug_ranges  0x0000000000007598      0x6d0 drivers/i2c/built-in.o
 .debug_ranges  0x0000000000007c68      0x348 drivers/mtd/built-in.o
 .debug_ranges  0x0000000000007fb0      0x3f0 drivers/mtd/spi/built-in.o
 .debug_ranges  0x00000000000083a0      0x510 drivers/net/built-in.o
 .debug_ranges  0x00000000000088b0      0x430 drivers/net/phy/built-in.o
 .debug_ranges  0x0000000000008ce0      0x208 drivers/serial/built-in.o
 .debug_ranges  0x0000000000008ee8      0x488 drivers/spi/built-in.o
 .debug_ranges  0x0000000000009370       0x18 drivers/usb/common/built-in.o
 .debug_ranges  0x0000000000009388      0xc90 drivers/usb/gadget/built-in.o
 .debug_ranges  0x000000000000a018       0xe8 drivers/usb/gadget/udc/built-in.o
 .debug_ranges  0x000000000000a100      0x220 drivers/usb/host/built-in.o
 .debug_ranges  0x000000000000a320     0x10d0 drivers/usb/musb-new/built-in.o
 .debug_ranges  0x000000000000b3f0      0x3a0 env/built-in.o
 .debug_ranges  0x000000000000b790     0x1478 fs/built-in.o
 .debug_ranges  0x000000000000cc08     0x3d90 lib/built-in.o
 .debug_ranges  0x0000000000010998      0xa10 net/built-in.o
 .debug_ranges  0x00000000000113a8       0x40 arch/arm/lib/lib.a(lib1funcs.o)
 .debug_ranges  0x00000000000113e8       0x10 arch/arm/lib/lib.a(div0.o)
